 xerces-c_3_1

 Timestamp is 53e90b57 (Mon Aug 11 20:28:39 2014)

 Preferred load address is 12000000

 Start         Length     Name                   Class
 0001:00000000 00026900H .text                   CODE
 0001:00026900 0000111cH .text$x                 CODE
 0001:00027a1c 0000018aH .text$yc                CODE
 0001:00027ba6 00000082H .text$yd                CODE
 0002:00000000 0000009cH .idata$5                DATA
 0002:000000a0 0002feb0H .rdata                  DATA
 0002:0002ff50 0000006bH .rdata$debug            DATA
 0002:0002ffbc 00000044H .rdata$r                DATA
 0002:00030000 000002f0H .rdata$sxdata           DATA
 0002:000302f0 00000004H .rtc$IAA                DATA
 0002:000302f4 00000004H .rtc$IZZ                DATA
 0002:000302f8 00000004H .rtc$TAA                DATA
 0002:000302fc 00000004H .rtc$TZZ                DATA
 0002:00030300 00004f80H .xdata$x                DATA
 0002:00035280 00000028H .idata$2                DATA
 0002:000352a8 00000014H .idata$3                DATA
 0002:000352bc 0000009cH .idata$4                DATA
 0002:00035358 00000256H .idata$6                DATA
 0002:000355ae 00000000H .edata                  DATA
 0003:00000000 00000004H .CRT$XCA                DATA
 0003:00000004 00000004H .CRT$XCAA               DATA
 0003:00000008 00000034H .CRT$XCU                DATA
 0003:0000003c 00000004H .CRT$XCZ                DATA
 0003:00000040 00000004H .CRT$XIA                DATA
 0003:00000044 00000004H .CRT$XIZ                DATA
 0003:00000050 000214d0H .data                   DATA
 0003:00021520 000002d4H .bss                    DATA
 0004:00000000 000009a0H .rsrc$01                DATA
 0004:000009a0 00013130H .rsrc$02                DATA

  Address         Publics by Value              Rva+Base     Lib:Object

 0000:00000000       __except_list              00000000     <absolute>
 0000:000000bc       ___safe_se_handler_count   000000bc     <absolute>
 0000:00009876       __ldused                   00009876     <absolute>
 0000:00009876       __fltused                  00009876     <absolute>
 0001:00000000       ?stringLen@XMLString@xercesc_3_1@@SAKQBG@Z 12001000 f i Base64.obj
 0001:0000003f       ?getDataLength@Base64@xercesc_3_1@@SAHQBGQAVMemoryManager@2@W4Conformance@12@@Z 1200103f f   Base64.obj
 0001:00000071       ?decode@Base64@xercesc_3_1@@SAPAEQBEPAKQAVMemoryManager@2@W4Conformance@12@@Z 12001071 f   Base64.obj
 0001:000000a6       ?decodeToXMLByte@Base64@xercesc_3_1@@SAPAEQBGPAKQAVMemoryManager@2@W4Conformance@12@@Z 120010a6 f   Base64.obj
 0001:0000013a       ?decode@Base64@xercesc_3_1@@CAPAEQBEPAKAAPAEQAVMemoryManager@2@W4Conformance@12@@Z 1200113a f   Base64.obj
 0001:000003f0       ??1?$ArrayJanitor@E@xercesc_3_1@@QAE@XZ 120013f0 f i Base64.obj
 0001:000003f8       ?reset@?$ArrayJanitor@E@xercesc_3_1@@QAEXPAE@Z 120013f8 f i Base64.obj
 0001:00000420       ?equals@XMLString@xercesc_3_1@@SA_NPBG0@Z 12001420 f i EncodingValidator.obj
 0001:0000046b       ?hash@XMLString@xercesc_3_1@@SAKQBGK@Z 1200146b f i EncodingValidator.obj
 0001:000004ae       ??0IllegalArgumentException@xercesc_3_1@@QAE@QBD_KW4Codes@XMLExcepts@1@PAVMemoryManager@1@@Z 120014ae f i EncodingValidator.obj
 0001:000004ed       ??0IllegalArgumentException@xercesc_3_1@@QAE@ABV01@@Z 120014ed f i EncodingValidator.obj
 0001:00000505       ??1IllegalArgumentException@xercesc_3_1@@UAE@XZ 12001505 f i EncodingValidator.obj
 0001:00000510       ?duplicate@IllegalArgumentException@xercesc_3_1@@UBEPAVXMLException@2@XZ 12001510 f i EncodingValidator.obj
 0001:0000054c       ?getType@IllegalArgumentException@xercesc_3_1@@UBEPBGXZ 1200154c f i EncodingValidator.obj
 0001:00000552       ??_GIllegalArgumentException@xercesc_3_1@@UAEPAXI@Z 12001552 f i EncodingValidator.obj
 0001:00000552       ??_EIllegalArgumentException@xercesc_3_1@@UAEPAXI@Z 12001552 f i EncodingValidator.obj
 0001:0000056e       ?replicate@XMLString@xercesc_3_1@@SAPAGQBGQAVMemoryManager@2@@Z 1200156e f i HexBin.obj
 0001:000005a0       ?getDataLength@HexBin@xercesc_3_1@@SAHQBG@Z 120015a0 f   HexBin.obj
 0001:000005c0       ?isArrayByteHex@HexBin@xercesc_3_1@@SA_NQBG@Z 120015c0 f   HexBin.obj
 0001:000005fc       ?isHex@HexBin@xercesc_3_1@@CA_NABG@Z 120015fc f   HexBin.obj
 0001:0000061a       ??_GXSerializable@xercesc_3_1@@UAEPAXI@Z 1200161a f i KVStringPair.obj
 0001:0000061a       ??_EXSerializable@xercesc_3_1@@UAEPAXI@Z 1200161a f i KVStringPair.obj
 0001:00000637       ?setKey@KVStringPair@xercesc_3_1@@QAEXQBGK@Z 12001637 f i KVStringPair.obj
 0001:00000676       ?setValue@KVStringPair@xercesc_3_1@@QAEXQBGK@Z 12001676 f i KVStringPair.obj
 0001:000006b5       ?set@KVStringPair@xercesc_3_1@@QAEXQBG0@Z 120016b5 f i KVStringPair.obj
 0001:000006e6       ??0KVStringPair@xercesc_3_1@@QAE@QAVMemoryManager@1@@Z 120016e6 f   KVStringPair.obj
 0001:00000704       ??_GKVStringPair@xercesc_3_1@@UAEPAXI@Z 12001704 f i KVStringPair.obj
 0001:00000704       ??_EKVStringPair@xercesc_3_1@@UAEPAXI@Z 12001704 f i KVStringPair.obj
 0001:00000721       ??0KVStringPair@xercesc_3_1@@QAE@ABV01@@Z 12001721 f   KVStringPair.obj
 0001:0000076d       ??1KVStringPair@xercesc_3_1@@UAE@XZ 1200176d f   KVStringPair.obj
 0001:000007b0       ?createObject@KVStringPair@xercesc_3_1@@SAPAVXSerializable@2@PAVMemoryManager@2@@Z 120017b0 f   KVStringPair.obj
 0001:000007cd       ?getProtoType@KVStringPair@xercesc_3_1@@UBEPAVXProtoType@2@XZ 120017cd f   KVStringPair.obj
 0001:000007d3       ?serialize@KVStringPair@xercesc_3_1@@UAEXAAVXSerializeEngine@2@@Z 120017d3 f   KVStringPair.obj
 0001:00000834       ??1XMLMutexLock@xercesc_3_1@@QAE@XZ 12001834 f   Mutexes.obj
 0001:0000083f       ??0RuntimeException@xercesc_3_1@@QAE@QBD_KW4Codes@XMLExcepts@1@PAVMemoryManager@1@@Z 1200183f f i PlatformUtils.obj
 0001:0000087e       ??0RuntimeException@xercesc_3_1@@QAE@ABV01@@Z 1200187e f i PlatformUtils.obj
 0001:00000896       ??1RuntimeException@xercesc_3_1@@UAE@XZ 12001896 f i PlatformUtils.obj
 0001:000008a1       ?duplicate@RuntimeException@xercesc_3_1@@UBEPAVXMLException@2@XZ 120018a1 f i PlatformUtils.obj
 0001:000008dd       ?getType@RuntimeException@xercesc_3_1@@UBEPBGXZ 120018dd f i PlatformUtils.obj
 0001:000008e3       ??_GRuntimeException@xercesc_3_1@@UAEPAXI@Z 120018e3 f i PlatformUtils.obj
 0001:000008e3       ??_ERuntimeException@xercesc_3_1@@UAEPAXI@Z 120018e3 f i PlatformUtils.obj
 0001:000008ff       ?panic@XMLPlatformUtils@xercesc_3_1@@SAXW4PanicReasons@PanicHandler@2@@Z 120018ff f   PlatformUtils.obj
 0001:00000919       ?lockMutex@XMLPlatformUtils@xercesc_3_1@@SAXQAX@Z 12001919 f   PlatformUtils.obj
 0001:0000093b       ?unlockMutex@XMLPlatformUtils@xercesc_3_1@@SAXQAX@Z 1200193b f   PlatformUtils.obj
 0001:0000095d       ??1?$ArrayJanitor@PAU?$RefHashTableBucketElem@VXMLNotationDecl@xercesc_3_1@@@xercesc_3_1@@@xercesc_3_1@@QAE@XZ 1200195d f i XTemplateSerializer.obj
 0001:0000095d       ??1?$ArrayJanitor@PAU?$RefHashTableBucketElem@VDatatypeValidator@xercesc_3_1@@@xercesc_3_1@@@xercesc_3_1@@QAE@XZ 1200195d f i XTemplateSerializer.obj
 0001:0000095d       ??1?$ArrayJanitor@PAU?$RefHashTableBucketElem@VComplexTypeInfo@xercesc_3_1@@@xercesc_3_1@@@xercesc_3_1@@QAE@XZ 1200195d f i XTemplateSerializer.obj
 0001:0000095d       ??1?$ArrayJanitor@PAU?$RefHashTableBucketElem@VXMLInteger@xercesc_3_1@@@xercesc_3_1@@@xercesc_3_1@@QAE@XZ 1200195d f i DFAContentModel.obj
 0001:0000095d       ??1?$ArrayJanitor@PAU?$RefHashTableBucketElem@VDTDEntityDecl@xercesc_3_1@@@xercesc_3_1@@@xercesc_3_1@@QAE@XZ 1200195d f i XTemplateSerializer.obj
 0001:0000095d       ??1?$ArrayJanitor@PAU?$RefHashTableBucketElem@VXSerializedObjectId@xercesc_3_1@@@xercesc_3_1@@@xercesc_3_1@@QAE@XZ 1200195d f i XSerializeEngine.obj
 0001:0000095d       ??1?$ArrayJanitor@PAU?$RefHashTableBucketElem@VXSAnnotation@xercesc_3_1@@@xercesc_3_1@@@xercesc_3_1@@QAE@XZ 1200195d f i XTemplateSerializer.obj
 0001:0000095d       ??1?$ArrayJanitor@PAU?$RefHashTableBucketElem@UPoolElem@XMLStringPool@xercesc_3_1@@@xercesc_3_1@@@xercesc_3_1@@QAE@XZ 1200195d f i StringPool.obj
 0001:0000095d       ??1?$ArrayJanitor@PAU?$RefHashTableBucketElem@VXMLAttDef@xercesc_3_1@@@xercesc_3_1@@@xercesc_3_1@@QAE@XZ 1200195d f i XTemplateSerializer.obj
 0001:0000095d       ??1?$ArrayJanitor@PAU?$RefHashTableBucketElem@VXercesGroupInfo@xercesc_3_1@@@xercesc_3_1@@@xercesc_3_1@@QAE@XZ 1200195d f i XTemplateSerializer.obj
 0001:0000095d       ??1?$ArrayJanitor@PAU?$RefHashTableBucketElem@VXercesAttGroupInfo@xercesc_3_1@@@xercesc_3_1@@@xercesc_3_1@@QAE@XZ 1200195d f i XTemplateSerializer.obj
 0001:0000095d       ??1?$ArrayJanitor@PAU?$RefHashTableBucketElem@VDTDElementDecl@xercesc_3_1@@@xercesc_3_1@@@xercesc_3_1@@QAE@XZ 1200195d f i DGXMLScanner.obj
 0001:0000095d       ??1?$ArrayJanitor@_N@xercesc_3_1@@QAE@XZ 1200195d f i AllContentModel.obj
 0001:0000095d       ??1?$ArrayJanitor@PAU?$RefHash2KeysTableBucketElem@V?$ValueVectorOf@PAVSchemaElementDecl@xercesc_3_1@@@xercesc_3_1@@@xercesc_3_1@@@xercesc_3_1@@QAE@XZ 1200195d f i XTemplateSerializer.obj
 0001:0000095d       ??1?$ArrayJanitor@PAU?$RefHashTableBucketElem@VGrammar@xercesc_3_1@@@xercesc_3_1@@@xercesc_3_1@@QAE@XZ 1200195d f i XMLGrammarPoolImpl.obj
 0001:0000095d       ??1?$ArrayJanitor@D@xercesc_3_1@@QAE@XZ 1200195d f i XMLAbstractDoubleFloat.obj
 0001:0000095d       ??1?$ArrayJanitor@PAU?$RefHashTableBucketElem@VKVStringPair@xercesc_3_1@@@xercesc_3_1@@@xercesc_3_1@@QAE@XZ 1200195d f i XTemplateSerializer.obj
 0001:0000095d       ??1?$ArrayJanitor@PAU?$RefHash2KeysTableBucketElem@VSchemaAttDef@xercesc_3_1@@@xercesc_3_1@@@xercesc_3_1@@QAE@XZ 1200195d f i XTemplateSerializer.obj
 0001:0000095d       ??1?$ArrayJanitor@PAU?$RefHashTableBucketElem@VDTDAttDef@xercesc_3_1@@@xercesc_3_1@@@xercesc_3_1@@QAE@XZ 1200195d f i XTemplateSerializer.obj
 0001:0000095d       ??1?$ArrayJanitor@G@xercesc_3_1@@QAE@XZ 1200195d f i PlatformUtils.obj
 0001:00000965       ??0QName@xercesc_3_1@@QAE@QAVMemoryManager@1@@Z 12001965 f   QName.obj
 0001:0000098c       ??_GQName@xercesc_3_1@@UAEPAXI@Z 1200198c f i QName.obj
 0001:0000098c       ??_EQName@xercesc_3_1@@UAEPAXI@Z 1200198c f i QName.obj
 0001:000009a9       ??0QName@xercesc_3_1@@QAE@QBG0IQAVMemoryManager@1@@Z 120019a9 f   QName.obj
 0001:00000a3f       ??0QName@xercesc_3_1@@QAE@QBGIQAVMemoryManager@1@@Z 12001a3f f   QName.obj
 0001:00000ad2       ??1QName@xercesc_3_1@@UAE@XZ 12001ad2 f   QName.obj
 0001:00000b06       ??0QName@xercesc_3_1@@QAE@ABV01@@Z 12001b06 f   QName.obj
 0001:00000bb5       ?getRawName@QName@xercesc_3_1@@QAEPAGXZ 12001bb5 f   QName.obj
 0001:00000bb5       ?getRawName@QName@xercesc_3_1@@QBEPBGXZ 12001bb5 f   QName.obj
 0001:00000c3f       ?setName@QName@xercesc_3_1@@QAEXQBG0I@Z 12001c3f f   QName.obj
 0001:00000c7b       ?setName@QName@xercesc_3_1@@QAEXQBGI@Z 12001c7b f   QName.obj
 0001:00000d25       ?setNPrefix@QName@xercesc_3_1@@QAEXPBGK@Z 12001d25 f   QName.obj
 0001:00000d76       ?setNLocalPart@QName@xercesc_3_1@@QAEXPBGK@Z 12001d76 f   QName.obj
 0001:00000dc7       ?setValues@QName@xercesc_3_1@@QAEXABV12@@Z 12001dc7 f   QName.obj
 0001:00000df4       ?cleanUp@QName@xercesc_3_1@@QAEXXZ 12001df4 f   QName.obj
 0001:00000e25       ?createObject@QName@xercesc_3_1@@SAPAVXSerializable@2@PAVMemoryManager@2@@Z 12001e25 f   QName.obj
 0001:00000e42       ?getProtoType@QName@xercesc_3_1@@UBEPAVXProtoType@2@XZ 12001e42 f   QName.obj
 0001:00000e48       ?serialize@QName@xercesc_3_1@@UAEXAAVXSerializeEngine@2@@Z 12001e48 f   QName.obj
 0001:00000eca       ??1?$JanitorMemFunCall@VUnionDatatypeValidator@xercesc_3_1@@@xercesc_3_1@@QAE@XZ 12001eca f i UnionDatatypeValidator.obj
 0001:00000eca       ??1?$JanitorMemFunCall@VRegularExpression@xercesc_3_1@@@xercesc_3_1@@QAE@XZ 12001eca f i RegularExpression.obj
 0001:00000eca       ??1?$JanitorMemFunCall@VXMLUri@xercesc_3_1@@@xercesc_3_1@@QAE@XZ 12001eca f i XMLUri.obj
 0001:00000eca       ??1?$JanitorMemFunCall@VSchemaGrammar@xercesc_3_1@@@xercesc_3_1@@QAE@XZ 12001eca f i SchemaGrammar.obj
 0001:00000eca       ??1?$JanitorMemFunCall@VQName@xercesc_3_1@@@xercesc_3_1@@QAE@XZ 12001eca f i QName.obj
 0001:00000eca       ??1?$JanitorMemFunCall@VXMLBigDecimal@xercesc_3_1@@@xercesc_3_1@@QAE@XZ 12001eca f i XMLBigDecimal.obj
 0001:00000eca       ??1?$JanitorMemFunCall@VIdentityConstraint@xercesc_3_1@@@xercesc_3_1@@QAE@XZ 12001eca f i IdentityConstraint.obj
 0001:00000ed2       ?readString@XSerializeEngine@xercesc_3_1@@QAEXAAPAG@Z 12001ed2 f i StringPool.obj
 0001:00000eee       ?addOrFind@XMLStringPool@xercesc_3_1@@UAEIQBG@Z 12001eee f i StringPool.obj
 0001:00000f13       ?getId@XMLStringPool@xercesc_3_1@@UBEIQBG@Z 12001f13 f i StringPool.obj
 0001:00000f2c       ?exists@XMLStringPool@xercesc_3_1@@UBE_NQBG@Z 12001f2c f i StringPool.obj
 0001:00000f3b       ?exists@XMLStringPool@xercesc_3_1@@UBE_NI@Z 12001f3b f i StringPool.obj
 0001:00000f52       ?getValueForId@XMLStringPool@xercesc_3_1@@UBEPBGI@Z 12001f52 f i StringPool.obj
 0001:00000f9a       ?getStringCount@XMLStringPool@xercesc_3_1@@UBEIXZ 12001f9a f i StringPool.obj
 0001:00000f9f       ??_EXMLStringPool@xercesc_3_1@@UAEPAXI@Z 12001f9f f i StringPool.obj
 0001:00000f9f       ??_GXMLStringPool@xercesc_3_1@@UAEPAXI@Z 12001f9f f i StringPool.obj
 0001:00000fbb       ??1XMLStringPool@xercesc_3_1@@UAE@XZ 12001fbb f   StringPool.obj
 0001:00001032       ??_G?$RefHashTableOf@UPoolElem@XMLStringPool@xercesc_3_1@@UStringHasher@3@@xercesc_3_1@@QAEPAXI@Z 12002032 f i StringPool.obj
 0001:00001052       ?flushAll@XMLStringPool@xercesc_3_1@@UAEXXZ 12002052 f   StringPool.obj
 0001:00001095       ?addNewEntry@XMLStringPool@xercesc_3_1@@AAEIQBG@Z 12002095 f   StringPool.obj
 0001:0000114d       ?createObject@XMLStringPool@xercesc_3_1@@SAPAVXSerializable@2@PAVMemoryManager@2@@Z 1200214d f   StringPool.obj
 0001:00001188       ?getProtoType@XMLStringPool@xercesc_3_1@@UBEPAVXProtoType@2@XZ 12002188 f   StringPool.obj
 0001:0000118e       ?serialize@XMLStringPool@xercesc_3_1@@UAEXAAVXSerializeEngine@2@@Z 1200218e f   StringPool.obj
 0001:0000120c       ??0XMLStringPool@xercesc_3_1@@QAE@QAVMemoryManager@1@@Z 1200220c f   StringPool.obj
 0001:000012a2       ?removeAll@?$RefHashTableOf@UPoolElem@XMLStringPool@xercesc_3_1@@UStringHasher@3@@xercesc_3_1@@QAEXXZ 120022a2 f i StringPool.obj
 0001:000012f4       ?put@?$RefHashTableOf@UPoolElem@XMLStringPool@xercesc_3_1@@UStringHasher@3@@xercesc_3_1@@QAEXPAXQAUPoolElem@XMLStringPool@2@@Z 120022f4 f i StringPool.obj
 0001:0000136b       ?cleanup@?$RefHashTableOf@UPoolElem@XMLStringPool@xercesc_3_1@@UStringHasher@3@@xercesc_3_1@@QAEXXZ 1200236b f i StringPool.obj
 0001:00001383       ??0ArrayIndexOutOfBoundsException@xercesc_3_1@@QAE@QBD_KW4Codes@XMLExcepts@1@PAVMemoryManager@1@@Z 12002383 f i TransService.obj
 0001:000013c2       ??0ArrayIndexOutOfBoundsException@xercesc_3_1@@QAE@ABV01@@Z 120023c2 f i TransService.obj
 0001:000013da       ??1ArrayIndexOutOfBoundsException@xercesc_3_1@@UAE@XZ 120023da f i TransService.obj
 0001:000013e5       ?duplicate@ArrayIndexOutOfBoundsException@xercesc_3_1@@UBEPAVXMLException@2@XZ 120023e5 f i TransService.obj
 0001:00001421       ?getType@ArrayIndexOutOfBoundsException@xercesc_3_1@@UBEPBGXZ 12002421 f i TransService.obj
 0001:00001427       ??_EArrayIndexOutOfBoundsException@xercesc_3_1@@UAEPAXI@Z 12002427 f i TransService.obj
 0001:00001427       ??_GArrayIndexOutOfBoundsException@xercesc_3_1@@UAEPAXI@Z 12002427 f i TransService.obj
 0001:00001443       ??0TranscodingException@xercesc_3_1@@QAE@QBD_KW4Codes@XMLExcepts@1@PAVMemoryManager@1@@Z 12002443 f i TransService.obj
 0001:00001482       ??0TranscodingException@xercesc_3_1@@QAE@ABV01@@Z 12002482 f i TransService.obj
 0001:0000149a       ??1TranscodingException@xercesc_3_1@@UAE@XZ 1200249a f i TransService.obj
 0001:000014a5       ?duplicate@TranscodingException@xercesc_3_1@@UBEPAVXMLException@2@XZ 120024a5 f i TransService.obj
 0001:000014e1       ?getType@TranscodingException@xercesc_3_1@@UBEPBGXZ 120024e1 f i TransService.obj
 0001:000014e7       ??_ETranscodingException@xercesc_3_1@@UAEPAXI@Z 120024e7 f i TransService.obj
 0001:000014e7       ??_GTranscodingException@xercesc_3_1@@UAEPAXI@Z 120024e7 f i TransService.obj
 0001:00001503       ??1XMLTranscoder@xercesc_3_1@@UAE@XZ 12002503 f   TransService.obj
 0001:00001517       ??_GXMLTranscoder@xercesc_3_1@@UAEPAXI@Z 12002517 f i TransService.obj
 0001:00001517       ??_EXMLTranscoder@xercesc_3_1@@UAEPAXI@Z 12002517 f i TransService.obj
 0001:00001533       ??0XMLTranscoder@xercesc_3_1@@IAE@QBGKQAVMemoryManager@1@@Z 12002533 f   TransService.obj
 0001:00001559       ?reset@?$ArrayJanitor@G@xercesc_3_1@@QAEXPAGQAVMemoryManager@2@@Z 12002559 f i TransService.obj
 0001:00001584       ??2XMemory@xercesc_3_1@@SAPAXI@Z 12002584 f   XMemory.obj
 0001:0000159f       ??2XMemory@xercesc_3_1@@SAPAXIPAVMemoryManager@1@@Z 1200259f f   XMemory.obj
 0001:000015b0       ??3XMemory@xercesc_3_1@@SAXPAX@Z 120025b0 f   XMemory.obj
 0001:000015b0       ??3XMemory@xercesc_3_1@@SAXPAXPAVMemoryManager@1@@Z 120025b0 f   XMemory.obj
 0001:000015c0       ??0TranscodingException@xercesc_3_1@@QAE@QBD_KW4Codes@XMLExcepts@1@QBG333PAVMemoryManager@1@@Z 120025c0 f i XML256TableTranscoder.obj
 0001:0000160b       ??0NumberFormatException@xercesc_3_1@@QAE@QBD_KW4Codes@XMLExcepts@1@PAVMemoryManager@1@@Z 1200260b f i XMLAbstractDoubleFloat.obj
 0001:0000164a       ??0NumberFormatException@xercesc_3_1@@QAE@ABV01@@Z 1200264a f i XMLAbstractDoubleFloat.obj
 0001:00001662       ??0NumberFormatException@xercesc_3_1@@QAE@QBD_KW4Codes@XMLExcepts@1@QBG333PAVMemoryManager@1@@Z 12002662 f i XMLAbstractDoubleFloat.obj
 0001:000016ad       ??1NumberFormatException@xercesc_3_1@@UAE@XZ 120026ad f i XMLAbstractDoubleFloat.obj
 0001:000016b8       ?duplicate@NumberFormatException@xercesc_3_1@@UBEPAVXMLException@2@XZ 120026b8 f i XMLAbstractDoubleFloat.obj
 0001:000016f4       ?getType@NumberFormatException@xercesc_3_1@@UBEPBGXZ 120026f4 f i XMLAbstractDoubleFloat.obj
 0001:000016fa       ??_GNumberFormatException@xercesc_3_1@@UAEPAXI@Z 120026fa f i XMLAbstractDoubleFloat.obj
 0001:000016fa       ??_ENumberFormatException@xercesc_3_1@@UAEPAXI@Z 120026fa f i XMLAbstractDoubleFloat.obj
 0001:00001716       ??0XMLAbstractDoubleFloat@xercesc_3_1@@IAE@QAVMemoryManager@1@@Z 12002716 f   XMLAbstractDoubleFloat.obj
 0001:00001743       ??_EXMLAbstractDoubleFloat@xercesc_3_1@@UAEPAXI@Z 12002743 f i XMLAbstractDoubleFloat.obj
 0001:00001743       ??_GXMLAbstractDoubleFloat@xercesc_3_1@@UAEPAXI@Z 12002743 f i XMLAbstractDoubleFloat.obj
 0001:0000175f       ??1XMLAbstractDoubleFloat@xercesc_3_1@@UAE@XZ 1200275f f   XMLAbstractDoubleFloat.obj
 0001:000017a3       ?init@XMLAbstractDoubleFloat@xercesc_3_1@@IAEXQBG@Z 120027a3 f   XMLAbstractDoubleFloat.obj
 0001:0000198b       ?getRawData@XMLAbstractDoubleFloat@xercesc_3_1@@UBEPAGXZ 1200298b f   XMLAbstractDoubleFloat.obj
 0001:0000198b       ?getAttributes@XMLSchemaDescriptionImpl@xercesc_3_1@@UBEPBVXMLAttDef@2@XZ 1200298b f   XMLSchemaDescriptionImpl.obj
 0001:0000198f       ?getFormattedString@XMLAbstractDoubleFloat@xercesc_3_1@@UBEPBGXZ 1200298f f   XMLAbstractDoubleFloat.obj
 0001:000019af       ?formatString@XMLAbstractDoubleFloat@xercesc_3_1@@AAEXXZ 120029af f   XMLAbstractDoubleFloat.obj
 0001:00001a4b       ?getSign@XMLAbstractDoubleFloat@xercesc_3_1@@UBEHXZ 12002a4b f   XMLAbstractDoubleFloat.obj
 0001:00001a4b       ?getGrammarDescription@DTDGrammar@xercesc_3_1@@UBEPAVXMLGrammarDescription@2@XZ 12002a4b f   DTDGrammar.obj
 0001:00001a4b       ?getData2@ModifierOp@xercesc_3_1@@UBEHXZ 12002a4b f   Op.obj
 0001:00001a4b       ?getAttDefCount@SchemaAttDefList@xercesc_3_1@@UBEKXZ 12002a4b f   SchemaAttDefList.obj
 0001:00001a4b       ?getAttDefCount@DTDAttDefList@xercesc_3_1@@UBEKXZ 12002a4b f   DTDAttDefList.obj
 0001:00001a4b       ?getEnclosingElementName@XMLSchemaDescriptionImpl@xercesc_3_1@@UBEPBVQName@2@XZ 12002a4b f   XMLSchemaDescriptionImpl.obj
 0001:00001a4f       ?compareValues@XMLAbstractDoubleFloat@xercesc_3_1@@KAHQBV12@0QAVMemoryManager@2@@Z 12002a4f f   XMLAbstractDoubleFloat.obj
 0001:00001adc       ?compareSpecial@XMLAbstractDoubleFloat@xercesc_3_1@@CAHQBV12@QAVMemoryManager@2@@Z 12002adc f   XMLAbstractDoubleFloat.obj
 0001:00001b63       ?normalizeZero@XMLAbstractDoubleFloat@xercesc_3_1@@AAEXQAG@Z 12002b63 f   XMLAbstractDoubleFloat.obj
 0001:00001c91       ?normalizeDecimalPoint@XMLAbstractDoubleFloat@xercesc_3_1@@SAXQAD@Z 12002c91 f   XMLAbstractDoubleFloat.obj
 0001:00001cb7       ?convert@XMLAbstractDoubleFloat@xercesc_3_1@@IAEXQAD@Z 12002cb7 f   XMLAbstractDoubleFloat.obj
 0001:00001d7f       ?getCanonicalRepresentation@XMLAbstractDoubleFloat@xercesc_3_1@@SAPAGQBGQAVMemoryManager@2@@Z 12002d7f f   XMLAbstractDoubleFloat.obj
 0001:0000200c       ?getProtoType@XMLAbstractDoubleFloat@xercesc_3_1@@UBEPAVXProtoType@2@XZ 1200300c f   XMLAbstractDoubleFloat.obj
 0001:00002012       ?serialize@XMLAbstractDoubleFloat@xercesc_3_1@@UAEXAAVXSerializeEngine@2@@Z 12003012 f   XMLAbstractDoubleFloat.obj
 0001:000020c1       ?getTargetNamespace@SchemaGrammar@xercesc_3_1@@UBEPBGXZ 120030c1 f i SchemaGrammar.obj
 0001:000020c1       ?getSign@XMLBigDecimal@xercesc_3_1@@UBEHXZ 120030c1 f i XMLBigDecimal.obj
 0001:000020c5       ?getData@ModifierOp@xercesc_3_1@@UBEHXZ 120030c5 f i Op.obj
 0001:000020c5       ?getRawData@XMLBigDecimal@xercesc_3_1@@UBEPAGXZ 120030c5 f i XMLBigDecimal.obj
 0001:000020c5       ?getFormattedString@XMLBigDecimal@xercesc_3_1@@UBEPBGXZ 120030c5 f i XMLBigDecimal.obj
 0001:000020c5       ?getTriggeringComponent@XMLSchemaDescriptionImpl@xercesc_3_1@@UBEPBVQName@2@XZ 120030c5 f i XMLSchemaDescriptionImpl.obj
 0001:000020c9       ??0XMLBigDecimal@xercesc_3_1@@QAE@QBGQAVMemoryManager@1@@Z 120030c9 f   XMLBigDecimal.obj
 0001:000021db       ??_EXMLBigDecimal@xercesc_3_1@@UAEPAXI@Z 120031db f i XMLBigDecimal.obj
 0001:000021db       ??_GXMLBigDecimal@xercesc_3_1@@UAEPAXI@Z 120031db f i XMLBigDecimal.obj
 0001:000021f8       ??1XMLBigDecimal@xercesc_3_1@@UAE@XZ 120031f8 f   XMLBigDecimal.obj
 0001:0000222c       ?cleanUp@XMLBigDecimal@xercesc_3_1@@AAEXXZ 1200322c f   XMLBigDecimal.obj
 0001:0000223d       ?getCanonicalRepresentation@XMLBigDecimal@xercesc_3_1@@SAPAGQBGQAVMemoryManager@2@@Z 1200323d f   XMLBigDecimal.obj
 0001:00002383       ?parseDecimal@XMLBigDecimal@xercesc_3_1@@SAXQBGQAGAAH22QAVMemoryManager@2@@Z 12003383 f   XMLBigDecimal.obj
 0001:000024f2       ?compareValues@XMLBigDecimal@xercesc_3_1@@SAHQBV12@0QAVMemoryManager@2@@Z 120034f2 f   XMLBigDecimal.obj
 0001:0000253b       ?toCompare@XMLBigDecimal@xercesc_3_1@@QBEHABV12@@Z 1200353b f   XMLBigDecimal.obj
 0001:0000259b       ?createObject@XMLBigDecimal@xercesc_3_1@@SAPAVXSerializable@2@PAVMemoryManager@2@@Z 1200359b f   XMLBigDecimal.obj
 0001:000025b8       ?getProtoType@XMLBigDecimal@xercesc_3_1@@UBEPAVXProtoType@2@XZ 120035b8 f   XMLBigDecimal.obj
 0001:000025be       ??0XMLBigDecimal@xercesc_3_1@@QAE@QAVMemoryManager@1@@Z 120035be f   XMLBigDecimal.obj
 0001:000025e2       ?serialize@XMLBigDecimal@xercesc_3_1@@UAEXAAVXSerializeEngine@2@@Z 120035e2 f   XMLBigDecimal.obj
 0001:0000272d       ?getCanonicalRepresentation@XMLBigInteger@xercesc_3_1@@SAPAGQBGQAVMemoryManager@2@_N@Z 1200372d f   XMLBigInteger.obj
 0001:000027f7       ?parseBigInteger@XMLBigInteger@xercesc_3_1@@SAXQBGQAGAAHQAVMemoryManager@2@@Z 120037f7 f   XMLBigInteger.obj
 0001:00002904       ?isValidNCName@XMLChar1_0@xercesc_3_1@@SA_NQBGK@Z 12003904 f   XMLChar.obj
 0001:0000293f       ?isValidName@XMLChar1_0@xercesc_3_1@@SA_NQBG@Z 1200393f f   XMLChar.obj
 0001:00002968       ?isValidQName@XMLChar1_0@xercesc_3_1@@SA_NQBGK@Z 12003968 f   XMLChar.obj
 0001:000029c5       ??0SchemaDateTimeException@xercesc_3_1@@QAE@ABV01@@Z 120039c5 f i XMLDateTime.obj
 0001:000029dd       ??0SchemaDateTimeException@xercesc_3_1@@QAE@QBD_KW4Codes@XMLExcepts@1@QBG333PAVMemoryManager@1@@Z 120039dd f i XMLDateTime.obj
 0001:00002a28       ??1SchemaDateTimeException@xercesc_3_1@@UAE@XZ 12003a28 f i XMLDateTime.obj
 0001:00002a33       ?duplicate@SchemaDateTimeException@xercesc_3_1@@UBEPAVXMLException@2@XZ 12003a33 f i XMLDateTime.obj
 0001:00002a6f       ?getType@SchemaDateTimeException@xercesc_3_1@@UBEPBGXZ 12003a6f f i XMLDateTime.obj
 0001:00002a75       ??_ESchemaDateTimeException@xercesc_3_1@@UAEPAXI@Z 12003a75 f i XMLDateTime.obj
 0001:00002a75       ??_GSchemaDateTimeException@xercesc_3_1@@UAEPAXI@Z 12003a75 f i XMLDateTime.obj
 0001:00002a91       ?setBuffer@XMLDateTime@xercesc_3_1@@QAEXQBG@Z 12003a91 f i XMLDateTime.obj
 0001:00002b0d       ?reset@XMLDateTime@xercesc_3_1@@AAEXXZ 12003b0d f i XMLDateTime.obj
 0001:00002b38       ?copy@XMLDateTime@xercesc_3_1@@AAEXABV12@@Z 12003b38 f i XMLDateTime.obj
 0001:00002bb4       ?initParser@XMLDateTime@xercesc_3_1@@AAE_NXZ 12003bb4 f i XMLDateTime.obj
 0001:00002bcb       ?getRetVal@XMLDateTime@xercesc_3_1@@CAHHH@Z 12003bcb f i XMLDateTime.obj
 0001:00002c90       ?compare@XMLDateTime@xercesc_3_1@@SAHQBV12@0_N@Z 12003c90 f   XMLDateTime.obj
 0001:00002e0a       ?addDuration@XMLDateTime@xercesc_3_1@@CAXPAV12@QBV12@H@Z 12003e0a f   XMLDateTime.obj
 0001:00002f5c       ?compareResult@XMLDateTime@xercesc_3_1@@CAHHH_N@Z 12003f5c f   XMLDateTime.obj
 0001:00002f7c       ?compare@XMLDateTime@xercesc_3_1@@SAHQBV12@0@Z 12003f7c f   XMLDateTime.obj
 0001:00002fe5       ?compareResult@XMLDateTime@xercesc_3_1@@CAHQBV12@0_NH@Z 12003fe5 f   XMLDateTime.obj
 0001:0000305e       ?compareOrder@XMLDateTime@xercesc_3_1@@SAHQBV12@0@Z 1200405e f   XMLDateTime.obj
 0001:00003111       ??1XMLDateTime@xercesc_3_1@@UAE@XZ 12004111 f   XMLDateTime.obj
 0001:0000314e       ??_GXMLDateTime@xercesc_3_1@@UAEPAXI@Z 1200414e f i XMLDateTime.obj
 0001:0000314e       ??_EXMLDateTime@xercesc_3_1@@UAEPAXI@Z 1200414e f i XMLDateTime.obj
 0001:0000316b       ??0XMLDateTime@xercesc_3_1@@QAE@QAVMemoryManager@1@@Z 1200416b f   XMLDateTime.obj
 0001:0000319a       ??0XMLDateTime@xercesc_3_1@@QAE@QBGQAVMemoryManager@1@@Z 1200419a f   XMLDateTime.obj
 0001:000031e3       ??0XMLDateTime@xercesc_3_1@@QAE@ABV01@@Z 120041e3 f   XMLDateTime.obj
 0001:00003222       ?getEnumString@UnionDatatypeValidator@xercesc_3_1@@UBEPBV?$RefArrayVectorOf@G@2@XZ 12004222 f   UnionDatatypeValidator.obj
 0001:00003222       ?getRawData@XMLDateTime@xercesc_3_1@@UBEPAGXZ 12004222 f   XMLDateTime.obj
 0001:00003226       ?getFormattedString@XMLDateTime@xercesc_3_1@@UBEPBGXZ 12004226 f   XMLDateTime.obj
 0001:0000322b       ?parseDateTime@XMLDateTime@xercesc_3_1@@QAEXXZ 1200422b f   XMLDateTime.obj
 0001:000032c1       ?parseDate@XMLDateTime@xercesc_3_1@@QAEXXZ 120042c1 f   XMLDateTime.obj
 0001:0000332a       ?parseTime@XMLDateTime@xercesc_3_1@@QAEXXZ 1200432a f   XMLDateTime.obj
 0001:000033a7       ?parseDay@XMLDateTime@xercesc_3_1@@QAEXXZ 120043a7 f   XMLDateTime.obj
 0001:0000349a       ?parseMonth@XMLDateTime@xercesc_3_1@@QAEXXZ 1200449a f   XMLDateTime.obj
 0001:000035aa       ?parseYear@XMLDateTime@xercesc_3_1@@QAEXXZ 120045aa f   XMLDateTime.obj
 0001:0000364d       ?parseMonthDay@XMLDateTime@xercesc_3_1@@QAEXXZ 1200464d f   XMLDateTime.obj
 0001:00003741       ?parseYearMonth@XMLDateTime@xercesc_3_1@@QAEXXZ 12004741 f   XMLDateTime.obj
 0001:000037b1       ?parseDuration@XMLDateTime@xercesc_3_1@@QAEXXZ 120047b1 f   XMLDateTime.obj
 0001:00003aa7       ?getDate@XMLDateTime@xercesc_3_1@@AAEXXZ 12004aa7 f   XMLDateTime.obj
 0001:00003b32       ?getTime@XMLDateTime@xercesc_3_1@@AAEXXZ 12004b32 f   XMLDateTime.obj
 0001:00003c77       ?getYearMonth@XMLDateTime@xercesc_3_1@@AAEXXZ 12004c77 f   XMLDateTime.obj
 0001:00003d32       ?parseTimeZone@XMLDateTime@xercesc_3_1@@AAEXXZ 12004d32 f   XMLDateTime.obj
 0001:00003d9f       ?getTimeZone@XMLDateTime@xercesc_3_1@@AAEXK@Z 12004d9f f   XMLDateTime.obj
 0001:00003e2f       ?normalize@XMLDateTime@xercesc_3_1@@AAEXXZ 12004e2f f   XMLDateTime.obj
 0001:00003f3e       ?validateDateTime@XMLDateTime@xercesc_3_1@@ABEXXZ 12004f3e f   XMLDateTime.obj
 0001:000040ef       ?indexOf@XMLDateTime@xercesc_3_1@@ABEHKKG@Z 120050ef f   XMLDateTime.obj
 0001:00004114       ?findUTCSign@XMLDateTime@xercesc_3_1@@AAEHK@Z 12005114 f   XMLDateTime.obj
 0001:00004151       ?parseInt@XMLDateTime@xercesc_3_1@@ABEHKK@Z 12005151 f   XMLDateTime.obj
 0001:000041b9       ?parseMiliSecond@XMLDateTime@xercesc_3_1@@ABENKK@Z 120051b9 f   XMLDateTime.obj
 0001:00004249       ?parseIntYear@XMLDateTime@xercesc_3_1@@ABEHK@Z 12005249 f   XMLDateTime.obj
 0001:000042e2       ?getDateTimeCanonicalRepresentation@XMLDateTime@xercesc_3_1@@QBEPAGQAVMemoryManager@2@@Z 120052e2 f   XMLDateTime.obj
 0001:00004454       ?getDateCanonicalRepresentation@XMLDateTime@xercesc_3_1@@QBEPAGQAVMemoryManager@2@@Z 12005454 f   XMLDateTime.obj
 0001:000046d4       ?getTimeCanonicalRepresentation@XMLDateTime@xercesc_3_1@@QBEPAGQAVMemoryManager@2@@Z 120056d4 f   XMLDateTime.obj
 0001:000047ad       ?fillString@XMLDateTime@xercesc_3_1@@ABEXAAPAGHK@Z 120057ad f   XMLDateTime.obj
 0001:0000481a       ?fillYearString@XMLDateTime@xercesc_3_1@@ABEHAAPAGH@Z 1200581a f   XMLDateTime.obj
 0001:000048ae       ?searchMiliSeconds@XMLDateTime@xercesc_3_1@@ABEXAAPAG0@Z 120058ae f   XMLDateTime.obj
 0001:000048fb       ?createObject@XMLDateTime@xercesc_3_1@@SAPAVXSerializable@2@PAVMemoryManager@2@@Z 120058fb f   XMLDateTime.obj
 0001:0000491a       ?getProtoType@XMLDateTime@xercesc_3_1@@UBEPAVXProtoType@2@XZ 1200591a f   XMLDateTime.obj
 0001:00004920       ?serialize@XMLDateTime@xercesc_3_1@@UAEXAAVXSerializeEngine@2@@Z 12005920 f   XMLDateTime.obj
 0001:000049ef       ??0XMLDouble@xercesc_3_1@@QAE@QBGQAVMemoryManager@1@@Z 120059ef f   XMLDouble.obj
 0001:00004a2a       ??_EXMLDouble@xercesc_3_1@@UAEPAXI@Z 12005a2a f i XMLDouble.obj
 0001:00004a2a       ??_GXMLDouble@xercesc_3_1@@UAEPAXI@Z 12005a2a f i XMLDouble.obj
 0001:00004a46       ??1XMLDouble@xercesc_3_1@@UAE@XZ 12005a46 f   XMLDouble.obj
 0001:00004a51       ?checkBoundary@XMLDouble@xercesc_3_1@@MAEXQAD@Z 12005a51 f   XMLDouble.obj
 0001:00004a61       ?createObject@XMLDouble@xercesc_3_1@@SAPAVXSerializable@2@PAVMemoryManager@2@@Z 12005a61 f   XMLDouble.obj
 0001:00004a7e       ?getProtoType@XMLDouble@xercesc_3_1@@UBEPAVXProtoType@2@XZ 12005a7e f   XMLDouble.obj
 0001:00004a84       ??0XMLDouble@xercesc_3_1@@QAE@QAVMemoryManager@1@@Z 12005a84 f   XMLDouble.obj
 0001:00004a96       ??1XMLException@xercesc_3_1@@UAE@XZ 12005a96 f   XMLException.obj
 0001:00004ab7       ??_EXMLException@xercesc_3_1@@UAEPAXI@Z 12005ab7 f i XMLException.obj
 0001:00004ab7       ??_GXMLException@xercesc_3_1@@UAEPAXI@Z 12005ab7 f i XMLException.obj
 0001:00004ad3       ??0XMLException@xercesc_3_1@@QAE@QBD_KQAVMemoryManager@1@@Z 12005ad3 f   XMLException.obj
 0001:00004b19       ??0XMLException@xercesc_3_1@@QAE@ABV01@@Z 12005b19 f   XMLException.obj
 0001:00004b6c       ?loadExceptText@XMLException@xercesc_3_1@@IAEXW4Codes@XMLExcepts@2@@Z 12005b6c f   XMLException.obj
 0001:00004bcf       ?loadExceptText@XMLException@xercesc_3_1@@IAEXW4Codes@XMLExcepts@2@QBG111@Z 12005bcf f   XMLException.obj
 0001:00004c57       ?loadExceptText@XMLException@xercesc_3_1@@IAEXW4Codes@XMLExcepts@2@QBD111@Z 12005c57 f   XMLException.obj
 0001:00004cdf       ??0XMLFloat@xercesc_3_1@@QAE@QBGQAVMemoryManager@1@@Z 12005cdf f   XMLFloat.obj
 0001:00004d1a       ??_GXMLFloat@xercesc_3_1@@UAEPAXI@Z 12005d1a f i XMLFloat.obj
 0001:00004d1a       ??_EXMLFloat@xercesc_3_1@@UAEPAXI@Z 12005d1a f i XMLFloat.obj
 0001:00004d36       ??1XMLFloat@xercesc_3_1@@UAE@XZ 12005d36 f   XMLFloat.obj
 0001:00004d41       ?checkBoundary@XMLFloat@xercesc_3_1@@MAEXQAD@Z 12005d41 f   XMLFloat.obj
 0001:00004e57       ?createObject@XMLFloat@xercesc_3_1@@SAPAVXSerializable@2@PAVMemoryManager@2@@Z 12005e57 f   XMLFloat.obj
 0001:00004e74       ?getProtoType@XMLFloat@xercesc_3_1@@UBEPAVXProtoType@2@XZ 12005e74 f   XMLFloat.obj
 0001:00004e7a       ??0XMLFloat@xercesc_3_1@@QAE@QAVMemoryManager@1@@Z 12005e7a f   XMLFloat.obj
 0001:00004e8c       ?serialize@XMLDouble@xercesc_3_1@@UAEXAAVXSerializeEngine@2@@Z 12005e8c f   XMLDouble.obj
 0001:00004e8c       ?serialize@XMLFloat@xercesc_3_1@@UAEXAAVXSerializeEngine@2@@Z 12005e8c f   XMLFloat.obj
 0001:00004e91       ??$_Pow_int@N@@YANNH@Z     12005e91 f i XMLFloat.obj
 0001:00004ebe       ??5xercesc_3_1@@YAAAVXSerializeEngine@0@AAV10@AAPAVXMLDouble@0@@Z 12005ebe f i XMLNumber.obj
 0001:00004ed7       ??5xercesc_3_1@@YAAAVXSerializeEngine@0@AAV10@AAPAVXMLFloat@0@@Z 12005ed7 f i XMLNumber.obj
 0001:00004ef0       ??5xercesc_3_1@@YAAAVXSerializeEngine@0@AAV10@AAPAVXMLDateTime@0@@Z 12005ef0 f i XMLNumber.obj
 0001:00004f09       ??5xercesc_3_1@@YAAAVXSerializeEngine@0@AAV10@AAPAVXMLBigDecimal@0@@Z 12005f09 f i XMLNumber.obj
 0001:00004f22       ?loadNumber@XMLNumber@xercesc_3_1@@SAPAV12@W4NumberType@12@AAVXSerializeEngine@2@@Z 12005f22 f   XMLNumber.obj
 0001:00004f6e       ?append@XMLBuffer@xercesc_3_1@@QAEXG@Z 12005f6e f i XMLString.obj
 0001:00004f94       ?validateRegion@XMLString@xercesc_3_1@@CA_NQBGH0HK@Z 12005f94 f i XMLString.obj
 0001:00004fc5       ?lastIndexOf@XMLString@xercesc_3_1@@SAHQBGG@Z 12005fc5 f i XMLString.obj
 0001:00004fdf       ?replicate@XMLString@xercesc_3_1@@SAPADQBDQAVMemoryManager@2@@Z 12005fdf f   XMLString.obj
 0001:00005018       ?transcode@XMLString@xercesc_3_1@@SAPADQBGQAVMemoryManager@2@@Z 12006018 f   XMLString.obj
 0001:0000502c       ?transcode@XMLString@xercesc_3_1@@SA_NQBGQADKQAVMemoryManager@2@@Z 1200602c f   XMLString.obj
 0001:00005048       ?transcode@XMLString@xercesc_3_1@@SAPAGQBDQAVMemoryManager@2@@Z 12006048 f   XMLString.obj
 0001:0000505c       ?isValidNOTATION@XMLString@xercesc_3_1@@SA_NQBGQAVMemoryManager@2@@Z 1200605c f   XMLString.obj
 0001:0000512c       ?isAlpha@XMLString@xercesc_3_1@@SA_NG@Z 1200612c f   XMLString.obj
 0001:0000514a       ?isDigit@XMLString@xercesc_3_1@@SA_NG@Z 1200614a f   XMLString.obj
 0001:00005160       ?isAlphaNum@XMLString@xercesc_3_1@@SA_NG@Z 12006160 f   XMLString.obj
 0001:00005184       ?isHex@XMLString@xercesc_3_1@@SA_NG@Z 12006184 f   XMLString.obj
 0001:000051b0       ?sizeToText@XMLString@xercesc_3_1@@SAXKQAGKIQAVMemoryManager@2@@Z 120061b0 f   XMLString.obj
 0001:000052d7       ?binToText@XMLString@xercesc_3_1@@SAXKQAGKIQAVMemoryManager@2@@Z 120062d7 f   XMLString.obj
 0001:000053fe       ?binToText@XMLString@xercesc_3_1@@SAXJQAGKIQAVMemoryManager@2@@Z 120063fe f   XMLString.obj
 0001:00005422       ?catString@XMLString@xercesc_3_1@@SAXQAGQBG@Z 12006422 f   XMLString.obj
 0001:00005448       ?compareNString@XMLString@xercesc_3_1@@SAHQBG0K@Z 12006448 f   XMLString.obj
 0001:00005477       ?compareNIString@XMLString@xercesc_3_1@@SAHQBG0K@Z 12006477 f   XMLString.obj
 0001:0000548f       ?compareString@XMLString@xercesc_3_1@@SAHQBG0@Z 1200648f f   XMLString.obj
 0001:000054ca       ?regionMatches@XMLString@xercesc_3_1@@SA_NQBGH0HK@Z 120064ca f   XMLString.obj
 0001:00005504       ?regionIMatches@XMLString@xercesc_3_1@@SA_NQBGH0HK@Z 12006504 f   XMLString.obj
 0001:00005542       ?copyString@XMLString@xercesc_3_1@@SAXQAGQBG@Z 12006542 f   XMLString.obj
 0001:00005567       ?copyNString@XMLString@xercesc_3_1@@SA_NQAGQBGK@Z 12006567 f   XMLString.obj
 0001:000055a6       ?findAny@XMLString@xercesc_3_1@@SAPBGQBG0@Z 120065a6 f   XMLString.obj
 0001:000055db       ?patternMatch@XMLString@xercesc_3_1@@SAHQBG0@Z 120065db f   XMLString.obj
 0001:00005630       ?indexOf@XMLString@xercesc_3_1@@SAHQBGG@Z 12006630 f   XMLString.obj
 0001:00005658       ?indexOf@XMLString@xercesc_3_1@@SAHQBGGKQAVMemoryManager@2@@Z 12006658 f   XMLString.obj
 0001:000056b2       ?lastIndexOf@XMLString@xercesc_3_1@@SAHGQBGK@Z 120066b2 f   XMLString.obj
 0001:000056d2       ?textToBin@XMLString@xercesc_3_1@@SA_NQBGAAIQAVMemoryManager@2@@Z 120066d2 f   XMLString.obj
 0001:000057b5       ?parseInt@XMLString@xercesc_3_1@@SAHQBGQAVMemoryManager@2@@Z 120067b5 f   XMLString.obj
 0001:000058dd       ?trim@XMLString@xercesc_3_1@@SAXQAG@Z 120068dd f   XMLString.obj
 0001:00005944       ?upperCase@XMLString@xercesc_3_1@@SAXQAG@Z 12006944 f   XMLString.obj
 0001:00005954       ?lowerCase@XMLString@xercesc_3_1@@SAXQAG@Z 12006954 f   XMLString.obj
 0001:00005964       ?subString@XMLString@xercesc_3_1@@SAXQAGQBGKKQAVMemoryManager@2@@Z 12006964 f   XMLString.obj
 0001:00005983       ?subString@XMLString@xercesc_3_1@@SAXQAGQBGKKKQAVMemoryManager@2@@Z 12006983 f   XMLString.obj
 0001:00005a03       ?tokenizeString@XMLString@xercesc_3_1@@SAPAV?$BaseRefVectorOf@G@2@QBGQAVMemoryManager@2@@Z 12006a03 f   XMLString.obj
 0001:00005b02       ?isWSReplaced@XMLString@xercesc_3_1@@SA_NQBG@Z 12006b02 f   XMLString.obj
 0001:00005b2c       ?replaceWS@XMLString@xercesc_3_1@@SAXPAGQAVMemoryManager@2@@Z 12006b2c f   XMLString.obj
 0001:00005b56       ?isWSCollapsed@XMLString@xercesc_3_1@@SA_NQBG@Z 12006b56 f   XMLString.obj
 0001:00005bad       ?collapseWS@XMLString@xercesc_3_1@@SAXPAGQAVMemoryManager@2@@Z 12006bad f   XMLString.obj
 0001:00005c5f       ?removeWS@XMLString@xercesc_3_1@@SAXPAGQAVMemoryManager@2@@Z 12006c5f f   XMLString.obj
 0001:00005c98       ??1?$BaseRefVectorOf@G@xercesc_3_1@@UAE@XZ 12006c98 f i XMLString.obj
 0001:00005c9f       ?setElementAt@?$BaseRefVectorOf@G@xercesc_3_1@@UAEXQAGK@Z 12006c9f f i XMLString.obj
 0001:00005cf7       ?removeAllElements@?$BaseRefVectorOf@G@xercesc_3_1@@UAEXXZ 12006cf7 f i XMLString.obj
 0001:00005d28       ?removeElementAt@?$BaseRefVectorOf@G@xercesc_3_1@@UAEXK@Z 12006d28 f i XMLString.obj
 0001:00005db3       ?removeLastElement@?$BaseRefVectorOf@G@xercesc_3_1@@UAEXXZ 12006db3 f i XMLString.obj
 0001:00005dd1       ?cleanup@?$BaseRefVectorOf@G@xercesc_3_1@@UAEXXZ 12006dd1 f i XMLString.obj
 0001:00005e02       ??0?$RefArrayVectorOf@G@xercesc_3_1@@QAE@K_NQAVMemoryManager@1@@Z 12006e02 f i XMLString.obj
 0001:00005e14       ??1?$RefArrayVectorOf@G@xercesc_3_1@@UAE@XZ 12006e14 f i XMLString.obj
 0001:00005e6f       ?setElementAt@?$RefArrayVectorOf@G@xercesc_3_1@@UAEXQAGK@Z 12006e6f f i XMLString.obj
 0001:00005ec9       ?removeAllElements@?$RefArrayVectorOf@G@xercesc_3_1@@UAEXXZ 12006ec9 f i XMLString.obj
 0001:00005efc       ?removeElementAt@?$RefArrayVectorOf@G@xercesc_3_1@@UAEXK@Z 12006efc f i XMLString.obj
 0001:00005f86       ?removeLastElement@?$RefArrayVectorOf@G@xercesc_3_1@@UAEXXZ 12006f86 f i XMLString.obj
 0001:00005fac       ?cleanup@?$RefArrayVectorOf@G@xercesc_3_1@@UAEXXZ 12006fac f i XMLString.obj
 0001:00005fdf       ??_G?$BaseRefVectorOf@G@xercesc_3_1@@UAEPAXI@Z 12006fdf f i XMLString.obj
 0001:00005fdf       ??_E?$BaseRefVectorOf@G@xercesc_3_1@@UAEPAXI@Z 12006fdf f i XMLString.obj
 0001:00005ffc       ??_G?$RefArrayVectorOf@G@xercesc_3_1@@UAEPAXI@Z 12006ffc f i XMLString.obj
 0001:00005ffc       ??_E?$RefArrayVectorOf@G@xercesc_3_1@@UAEPAXI@Z 12006ffc f i XMLString.obj
 0001:00006019       ??0?$BaseRefVectorOf@G@xercesc_3_1@@QAE@K_NQAVMemoryManager@1@@Z 12007019 f i XMLString.obj
 0001:00006053       ??0MalformedURLException@xercesc_3_1@@QAE@QBD_KW4Codes@XMLExcepts@1@PAVMemoryManager@1@@Z 12007053 f i XMLUri.obj
 0001:00006092       ??0MalformedURLException@xercesc_3_1@@QAE@ABV01@@Z 12007092 f i XMLUri.obj
 0001:000060aa       ??0MalformedURLException@xercesc_3_1@@QAE@QBD_KW4Codes@XMLExcepts@1@QBG333PAVMemoryManager@1@@Z 120070aa f i XMLUri.obj
 0001:000060f5       ??1MalformedURLException@xercesc_3_1@@UAE@XZ 120070f5 f i XMLUri.obj
 0001:00006100       ?duplicate@MalformedURLException@xercesc_3_1@@UBEPAVXMLException@2@XZ 12007100 f i XMLUri.obj
 0001:0000613c       ?getType@MalformedURLException@xercesc_3_1@@UBEPBGXZ 1200713c f i XMLUri.obj
 0001:00006142       ??_EMalformedURLException@xercesc_3_1@@UAEPAXI@Z 12007142 f i XMLUri.obj
 0001:00006142       ??_GMalformedURLException@xercesc_3_1@@UAEPAXI@Z 12007142 f i XMLUri.obj
 0001:0000615e       ?startsWith@XMLString@xercesc_3_1@@SA_NQBG0@Z 1200715e f i XMLUri.obj
 0001:0000617c       ?endsWith@XMLString@xercesc_3_1@@SA_NQBG0@Z 1200717c f i XMLUri.obj
 0001:000061a9       ?isReservedOrUnreservedCharacter@XMLUri@xercesc_3_1@@CA_NG@Z 120071a9 f i XMLUri.obj
 0001:000061d6       ?isReservedCharacter@XMLUri@xercesc_3_1@@CA_NG@Z 120071d6 f i XMLUri.obj
 0001:000061f2       ?isPathCharacter@XMLUri@xercesc_3_1@@CA_NG@Z 120071f2 f i XMLUri.obj
 0001:0000620e       ?isUnreservedCharacter@XMLUri@xercesc_3_1@@CA_NG@Z 1200720e f i XMLUri.obj
 0001:0000623b       ??0XMLUri@xercesc_3_1@@QAE@QBGQAVMemoryManager@1@@Z 1200723b f   XMLUri.obj
 0001:000062d2       ??_GXMLUri@xercesc_3_1@@UAEPAXI@Z 120072d2 f i XMLUri.obj
 0001:000062d2       ??_EXMLUri@xercesc_3_1@@UAEPAXI@Z 120072d2 f i XMLUri.obj
 0001:000062ee       ??1XMLUri@xercesc_3_1@@UAE@XZ 120072ee f   XMLUri.obj
 0001:00006321       ?cleanUp@XMLUri@xercesc_3_1@@AAEXXZ 12007321 f   XMLUri.obj
 0001:000063bd       ?initialize@XMLUri@xercesc_3_1@@AAEXABV12@@Z 120073bd f   XMLUri.obj
 0001:0000642e       ?initialize@XMLUri@xercesc_3_1@@AAEXQBV12@QBG@Z 1200742e f   XMLUri.obj
 0001:00006b13       ?initializeAuthority@XMLUri@xercesc_3_1@@AAEXQBG@Z 12007b13 f   XMLUri.obj
 0001:00006d41       ?initializeScheme@XMLUri@xercesc_3_1@@AAEXQBG@Z 12007d41 f   XMLUri.obj
 0001:00006dfa       ?initializePath@XMLUri@xercesc_3_1@@AAEXQBG@Z 12007dfa f   XMLUri.obj
 0001:0000728a       ?setScheme@XMLUri@xercesc_3_1@@QAEXQBG@Z 1200828a f   XMLUri.obj
 0001:00007310       ?setUserInfo@XMLUri@xercesc_3_1@@QAEXQBG@Z 12008310 f   XMLUri.obj
 0001:0000738f       ?setHost@XMLUri@xercesc_3_1@@QAEXQBG@Z 1200838f f   XMLUri.obj
 0001:00007446       ?setRegBasedAuthority@XMLUri@xercesc_3_1@@QAEXQBG@Z 12008446 f   XMLUri.obj
 0001:000074d7       ?isConformantSchemeName@XMLUri@xercesc_3_1@@CA_NQBG@Z 120084d7 f   XMLUri.obj
 0001:00007524       ?isConformantUserInfo@XMLUri@xercesc_3_1@@CAXQBGQAVMemoryManager@2@@Z 12008524 f   XMLUri.obj
 0001:0000761b       ?isValidServerBasedAuthority@XMLUri@xercesc_3_1@@CA_NQBGKH0K@Z 1200861b f   XMLUri.obj
 0001:000076b1       ?isValidServerBasedAuthority@XMLUri@xercesc_3_1@@CA_NQBGH0QAVMemoryManager@2@@Z 120086b1 f   XMLUri.obj
 0001:0000773e       ?isValidRegistryBasedAuthority@XMLUri@xercesc_3_1@@CA_NQBGK@Z 1200873e f   XMLUri.obj
 0001:000077cc       ?isValidRegistryBasedAuthority@XMLUri@xercesc_3_1@@CA_NQBG@Z 120087cc f   XMLUri.obj
 0001:00007833       ?isWellFormedAddress@XMLUri@xercesc_3_1@@CA_NQBGQAVMemoryManager@2@@Z 12008833 f   XMLUri.obj
 0001:00007989       ?isWellFormedIPv4Address@XMLUri@xercesc_3_1@@CA_NQBGK@Z 12008989 f   XMLUri.obj
 0001:00007a1f       ?isWellFormedIPv6Reference@XMLUri@xercesc_3_1@@CA_NQBGK@Z 12008a1f f   XMLUri.obj
 0001:00007add       ?scanHexSequence@XMLUri@xercesc_3_1@@CAHQBGKKAAH@Z 12008add f   XMLUri.obj
 0001:00007b6c       ?isValidURI@XMLUri@xercesc_3_1@@SA_N_NQBG0@Z 12008b6c f   XMLUri.obj
 0001:00007cde       ?isWellFormedAddress@XMLUri@xercesc_3_1@@CA_NQBGK@Z 12008cde f   XMLUri.obj
 0001:00007de9       ?processScheme@XMLUri@xercesc_3_1@@CA_NQBGAAK@Z 12008de9 f   XMLUri.obj
 0001:00007e19       ?isConformantSchemeName@XMLUri@xercesc_3_1@@CA_NQBGK@Z 12008e19 f   XMLUri.obj
 0001:00007e65       ?processAuthority@XMLUri@xercesc_3_1@@CA_NQBGK@Z 12008e65 f   XMLUri.obj
 0001:00007f98       ?processPath@XMLUri@xercesc_3_1@@CA_NQBGK_N1@Z 12008f98 f   XMLUri.obj
 0001:000080d1       ?createObject@XMLUri@xercesc_3_1@@SAPAVXSerializable@2@PAVMemoryManager@2@@Z 120090d1 f   XMLUri.obj
 0001:000080ee       ?getProtoType@XMLUri@xercesc_3_1@@UBEPAVXProtoType@2@XZ 120090ee f   XMLUri.obj
 0001:000080f4       ?serialize@XMLUri@xercesc_3_1@@UAEXAAVXSerializeEngine@2@@Z 120090f4 f   XMLUri.obj
 0001:000081b9       ??0XMLUri@xercesc_3_1@@QAE@QAVMemoryManager@1@@Z 120091b9 f   XMLUri.obj
 0001:000081e7       ?reset@?$JanitorMemFunCall@VXMLBigDecimal@xercesc_3_1@@@xercesc_3_1@@QAEXPAVXMLBigDecimal@2@@Z 120091e7 f i XMLBigDecimal.obj
 0001:000081e7       ?reset@?$JanitorMemFunCall@VXMLUri@xercesc_3_1@@@xercesc_3_1@@QAEXPAVXMLUri@2@@Z 120091e7 f i XMLUri.obj
 0001:000081e7       ?reset@?$JanitorMemFunCall@VSchemaGrammar@xercesc_3_1@@@xercesc_3_1@@QAEXPAVSchemaGrammar@2@@Z 120091e7 f i SchemaGrammar.obj
 0001:000081e7       ?reset@?$JanitorMemFunCall@VIdentityConstraint@xercesc_3_1@@@xercesc_3_1@@QAEXPAVIdentityConstraint@2@@Z 120091e7 f i IdentityConstraint.obj
 0001:000081e7       ?reset@?$JanitorMemFunCall@VRegularExpression@xercesc_3_1@@@xercesc_3_1@@QAEXPAVRegularExpression@2@@Z 120091e7 f i RegularExpression.obj
 0001:000081e7       ?reset@?$JanitorMemFunCall@VQName@xercesc_3_1@@@xercesc_3_1@@QAEXPAVQName@2@@Z 120091e7 f i QName.obj
 0001:000081e7       ?reset@?$JanitorMemFunCall@VUnionDatatypeValidator@xercesc_3_1@@@xercesc_3_1@@QAEXPAVUnionDatatypeValidator@2@@Z 120091e7 f i UnionDatatypeValidator.obj
 0001:00008204       ??0UTFDataFormatException@xercesc_3_1@@QAE@ABV01@@Z 12009204 f i XMLUTF8Transcoder.obj
 0001:0000821c       ??0UTFDataFormatException@xercesc_3_1@@QAE@QBD_KW4Codes@XMLExcepts@1@0000PAVMemoryManager@1@@Z 1200921c f i XMLUTF8Transcoder.obj
 0001:00008267       ??1UTFDataFormatException@xercesc_3_1@@UAE@XZ 12009267 f i XMLUTF8Transcoder.obj
 0001:00008272       ?duplicate@UTFDataFormatException@xercesc_3_1@@UBEPAVXMLException@2@XZ 12009272 f i XMLUTF8Transcoder.obj
 0001:000082ae       ?getType@UTFDataFormatException@xercesc_3_1@@UBEPBGXZ 120092ae f i XMLUTF8Transcoder.obj
 0001:000082b4       ??_GUTFDataFormatException@xercesc_3_1@@UAEPAXI@Z 120092b4 f i XMLUTF8Transcoder.obj
 0001:000082b4       ??_EUTFDataFormatException@xercesc_3_1@@UAEPAXI@Z 120092b4 f i XMLUTF8Transcoder.obj
 0001:000082d0       ?checkTrailingBytes@XMLUTF8Transcoder@xercesc_3_1@@ABEXEII@Z 120092d0 f i XMLUTF8Transcoder.obj
 0001:00008339       ??0XMLUTF8Transcoder@xercesc_3_1@@QAE@QBGKQAVMemoryManager@1@@Z 12009339 f   XMLUTF8Transcoder.obj
 0001:00008351       ??_EXMLUTF8Transcoder@xercesc_3_1@@UAEPAXI@Z 12009351 f i XMLUTF8Transcoder.obj
 0001:00008351       ??_GXMLUTF8Transcoder@xercesc_3_1@@UAEPAXI@Z 12009351 f i XMLUTF8Transcoder.obj
 0001:0000836d       ??1XMLUTF8Transcoder@xercesc_3_1@@UAE@XZ 1200936d f   XMLUTF8Transcoder.obj
 0001:00008378       ?transcodeFrom@XMLUTF8Transcoder@xercesc_3_1@@UAEKQBEKQAGKAAKQAE@Z 12009378 f   XMLUTF8Transcoder.obj
 0001:00008752       ?transcodeTo@XMLUTF8Transcoder@xercesc_3_1@@UAEKQBGKQAEKAAKW4UnRepOpts@XMLTranscoder@2@@Z 12009752 f   XMLUTF8Transcoder.obj
 0001:00008902       ?canTranscodeTo@XMLUTF8Transcoder@xercesc_3_1@@UAE_NI@Z 12009902 f   XMLUTF8Transcoder.obj
 0001:00008911       ??0XMLBuffer@xercesc_3_1@@QAE@KQAVMemoryManager@1@@Z 12009911 f i BinHTTPInputStreamCommon.obj
 0001:0000893c       ??1XMLBuffer@xercesc_3_1@@QAE@XZ 1200993c f i BinHTTPInputStreamCommon.obj
 0001:00008948       ?append@XMLBuffer@xercesc_3_1@@QAEXQBG@Z 12009948 f i BinHTTPInputStreamCommon.obj
 0001:0000898b       ??0BMPattern@xercesc_3_1@@QAE@QBGH_NQAVMemoryManager@1@@Z 1200998b f   BMPattern.obj
 0001:00008a0f       ?matches@BMPattern@xercesc_3_1@@QBEHQBGKK@Z 12009a0f f   BMPattern.obj
 0001:00008b05       ?initialize@BMPattern@xercesc_3_1@@AAEXXZ 12009b05 f   BMPattern.obj
 0001:00008bf2       ?cleanUp@BMPattern@xercesc_3_1@@AAEXXZ 12009bf2 f   BMPattern.obj
 0001:00008c18       ??1?$JanitorMemFunCall@VBMPattern@xercesc_3_1@@@xercesc_3_1@@QAE@XZ 12009c18 f i BMPattern.obj
 0001:00008c20       ?reset@?$JanitorMemFunCall@VBMPattern@xercesc_3_1@@@xercesc_3_1@@QAEXPAVBMPattern@2@@Z 12009c20 f i BMPattern.obj
 0001:00008c38       ?getChild@Token@xercesc_3_1@@UBEPAV12@K@Z 12009c38 f i CharToken.obj
 0001:00008c3d       ?getMax@Token@xercesc_3_1@@UBEHXZ 12009c3d f i CharToken.obj
 0001:00008c3d       ?getMin@Token@xercesc_3_1@@UBEHXZ 12009c3d f i CharToken.obj
 0001:00008c3d       ?getChar@Token@xercesc_3_1@@UBEHXZ 12009c3d f i ClosureToken.obj
 0001:00008c41       ?addChild@Token@xercesc_3_1@@UAEXQAV12@QAVTokenFactory@2@@Z 12009c41 f i CharToken.obj
 0001:00008c73       ?addRange@Token@xercesc_3_1@@UAEXHH@Z 12009c73 f i CharToken.obj
 0001:00008ca5       ?mergeRanges@Token@xercesc_3_1@@UAEXQBV12@@Z 12009ca5 f i CharToken.obj
 0001:00008cd7       ?sortRanges@Token@xercesc_3_1@@UAEXXZ 12009cd7 f i CharToken.obj
 0001:00008d09       ?compactRanges@Token@xercesc_3_1@@UAEXXZ 12009d09 f i CharToken.obj
 0001:00008d3b       ?subtractRanges@Token@xercesc_3_1@@UAEXQAVRangeToken@2@@Z 12009d3b f i CharToken.obj
 0001:00008d6d       ?intersectRanges@Token@xercesc_3_1@@UAEXQAVRangeToken@2@@Z 12009d6d f i CharToken.obj
 0001:00008d9f       ?getMin@ClosureToken@xercesc_3_1@@UBEHXZ 12009d9f f i ClosureToken.obj
 0001:00008d9f       ?getRootName@XMLDTDDescriptionImpl@xercesc_3_1@@UBEPBGXZ 12009d9f f i XMLDTDDescriptionImpl.obj
 0001:00008d9f       ?getReferenceNo@StringToken@xercesc_3_1@@UBEHXZ 12009d9f f i StringToken.obj
 0001:00008d9f       ?getChar@CharToken@xercesc_3_1@@UBEHXZ 12009d9f f i CharToken.obj
 0001:00008d9f       ?getNoParen@ParenToken@xercesc_3_1@@UBEHXZ 12009d9f f i ParenToken.obj
 0001:00008d9f       ?getTargetNamespace@XMLSchemaDescriptionImpl@xercesc_3_1@@UBEPBGXZ 12009d9f f i XMLSchemaDescriptionImpl.obj
 0001:00008da3       ??_GParenToken@xercesc_3_1@@UAEPAXI@Z 12009da3 f i ParenToken.obj
 0001:00008da3       ??_ECharToken@xercesc_3_1@@UAEPAXI@Z 12009da3 f i CharToken.obj
 0001:00008da3       ??_EParenToken@xercesc_3_1@@UAEPAXI@Z 12009da3 f i ParenToken.obj
 0001:00008da3       ??_EConcatToken@xercesc_3_1@@UAEPAXI@Z 12009da3 f i ConcatToken.obj
 0001:00008da3       ??_EClosureToken@xercesc_3_1@@UAEPAXI@Z 12009da3 f i ClosureToken.obj
 0001:00008da3       ??_GClosureToken@xercesc_3_1@@UAEPAXI@Z 12009da3 f i ClosureToken.obj
 0001:00008da3       ??_GConcatToken@xercesc_3_1@@UAEPAXI@Z 12009da3 f i ConcatToken.obj
 0001:00008da3       ??_GCharToken@xercesc_3_1@@UAEPAXI@Z 12009da3 f i CharToken.obj
 0001:00008dbf       ??1ParenToken@xercesc_3_1@@UAE@XZ 12009dbf f   ParenToken.obj
 0001:00008dbf       ??1ConcatToken@xercesc_3_1@@UAE@XZ 12009dbf f   ConcatToken.obj
 0001:00008dbf       ??1CharToken@xercesc_3_1@@UAE@XZ 12009dbf f   CharToken.obj
 0001:00008dbf       ??1ClosureToken@xercesc_3_1@@UAE@XZ 12009dbf f   ClosureToken.obj
 0001:00008dc6       ?getObjectType@DTDElementDecl@xercesc_3_1@@UBE?AW4objectType@XMLElementDecl@2@XZ 12009dc6 f i DTDElementDecl.obj
 0001:00008dc6       ?size@ParenToken@xercesc_3_1@@UBEKXZ 12009dc6 f i ParenToken.obj
 0001:00008dc6       ?getGrammarType@SchemaGrammar@xercesc_3_1@@UBE?AW4GrammarType@Grammar@2@XZ 12009dc6 f i SchemaGrammar.obj
 0001:00008dc6       ?size@ClosureToken@xercesc_3_1@@UBEKXZ 12009dc6 f i ClosureToken.obj
 0001:00008dc6       ?getGrammarType@XMLSchemaDescription@xercesc_3_1@@UBE?AW4GrammarType@Grammar@2@XZ 12009dc6 f i XMLSchemaDescription.obj
 0001:00008dca       ?getLocationHints@XMLSchemaDescriptionImpl@xercesc_3_1@@UBEPBV?$RefArrayVectorOf@G@2@XZ 12009dca f i XMLSchemaDescriptionImpl.obj
 0001:00008dca       ?getString@StringToken@xercesc_3_1@@UBEPBGXZ 12009dca f i StringToken.obj
 0001:00008dca       ?getId@XSObject@xercesc_3_1@@UBEKXZ 12009dca f i XSObject.obj
 0001:00008dca       ?getData@CharOp@xercesc_3_1@@UBEHXZ 12009dca f i Op.obj
 0001:00008dca       ?getMax@ClosureToken@xercesc_3_1@@UBEHXZ 12009dca f i ClosureToken.obj
 0001:00008dca       ?getLiteral@StringOp@xercesc_3_1@@UBEPBGXZ 12009dca f i Op.obj
 0001:00008dca       ?getToken@RangeOp@xercesc_3_1@@UBEPBVToken@2@XZ 12009dca f i Op.obj
 0001:00008dca       ?getChild@ChildOp@xercesc_3_1@@UBEPBVOp@2@XZ 12009dca f i Op.obj
 0001:00008dce       ?getChild@ClosureToken@xercesc_3_1@@UBEPAVToken@2@K@Z 12009dce f i ClosureToken.obj
 0001:00008dd4       ?setMax@ClosureToken@xercesc_3_1@@UAEXH@Z 12009dd4 f i ClosureToken.obj
 0001:00008dde       ?setMin@ClosureToken@xercesc_3_1@@UAEXH@Z 12009dde f i ClosureToken.obj
 0001:00008de8       ??0ClosureToken@xercesc_3_1@@QAE@W4tokType@Token@1@QAV31@QAVMemoryManager@1@@Z 12009de8 f   ClosureToken.obj
 0001:00008e0a       ?size@ConcatToken@xercesc_3_1@@UBEKXZ 12009e0a f i ConcatToken.obj
 0001:00008e0e       ?getChild@ConcatToken@xercesc_3_1@@UBEPAVToken@2@K@Z 12009e0e f i ConcatToken.obj
 0001:00008e20       ??0ConcatToken@xercesc_3_1@@QAE@QAVToken@1@0QAVMemoryManager@1@@Z 12009e20 f   ConcatToken.obj
 0001:00008e41       ?getNoGroups@Match@xercesc_3_1@@QBEHXZ 12009e41 f i Match.obj
 0001:00008e78       ?getStartPos@Match@xercesc_3_1@@QBEHH@Z 12009e78 f i Match.obj
 0001:00008ed9       ?getEndPos@Match@xercesc_3_1@@QBEHH@Z 12009ed9 f i Match.obj
 0001:00008f40       ?setStartPos@Match@xercesc_3_1@@QAEXHH@Z 12009f40 f i Match.obj
 0001:00008fac       ?setEndPos@Match@xercesc_3_1@@QAEXHH@Z 12009fac f i Match.obj
 0001:00009018       ??0Match@xercesc_3_1@@QAE@QAVMemoryManager@1@@Z 1200a018 f   Match.obj
 0001:00009036       ??_EMatch@xercesc_3_1@@UAEPAXI@Z 1200a036 f i Match.obj
 0001:00009036       ??_GMatch@xercesc_3_1@@UAEPAXI@Z 1200a036 f i Match.obj
 0001:00009052       ??0Match@xercesc_3_1@@QAE@ABV01@@Z 1200a052 f   Match.obj
 0001:00009072       ??4Match@xercesc_3_1@@QAEAAV01@ABV01@@Z 1200a072 f   Match.obj
 0001:00009082       ??1Match@xercesc_3_1@@UAE@XZ 1200a082 f   Match.obj
 0001:00009092       ?setNoGroups@Match@xercesc_3_1@@QAEXH@Z 1200a092 f   Match.obj
 0001:000090e7       ?initialize@Match@xercesc_3_1@@AAEXABV12@@Z 1200a0e7 f   Match.obj
 0001:0000913d       ?cleanUp@Match@xercesc_3_1@@AAEXXZ 1200a13d f   Match.obj
 0001:0000915c       ??1Op@xercesc_3_1@@UAE@XZ  1200a15c f i Op.obj
 0001:00009163       ??_EOp@xercesc_3_1@@UAEPAXI@Z 1200a163 f i Op.obj
 0001:00009163       ??_GOp@xercesc_3_1@@UAEPAXI@Z 1200a163 f i Op.obj
 0001:00009180       ??1UnionOp@xercesc_3_1@@UAE@XZ 1200a180 f i Op.obj
 0001:000091ba       ??_GUnionOp@xercesc_3_1@@UAEPAXI@Z 1200a1ba f i Op.obj
 0001:000091ba       ??_EUnionOp@xercesc_3_1@@UAEPAXI@Z 1200a1ba f i Op.obj
 0001:000091d7       ??_ERangeOp@xercesc_3_1@@UAEPAXI@Z 1200a1d7 f i Op.obj
 0001:000091d7       ??_EModifierOp@xercesc_3_1@@UAEPAXI@Z 1200a1d7 f i Op.obj
 0001:000091d7       ??_GModifierOp@xercesc_3_1@@UAEPAXI@Z 1200a1d7 f i Op.obj
 0001:000091d7       ??_GChildOp@xercesc_3_1@@UAEPAXI@Z 1200a1d7 f i Op.obj
 0001:000091d7       ??_GRangeOp@xercesc_3_1@@UAEPAXI@Z 1200a1d7 f i Op.obj
 0001:000091d7       ??_EChildOp@xercesc_3_1@@UAEPAXI@Z 1200a1d7 f i Op.obj
 0001:000091d7       ??_GCharOp@xercesc_3_1@@UAEPAXI@Z 1200a1d7 f i Op.obj
 0001:000091d7       ??_ECharOp@xercesc_3_1@@UAEPAXI@Z 1200a1d7 f i Op.obj
 0001:000091f5       ??1ModifierOp@xercesc_3_1@@UAE@XZ 1200a1f5 f i Op.obj
 0001:000091f5       ??1ChildOp@xercesc_3_1@@UAE@XZ 1200a1f5 f i Op.obj
 0001:000091f5       ??1RangeOp@xercesc_3_1@@UAE@XZ 1200a1f5 f i Op.obj
 0001:000091f5       ??1CharOp@xercesc_3_1@@UAE@XZ 1200a1f5 f i Op.obj
 0001:000091fc       ??1StringOp@xercesc_3_1@@UAE@XZ 1200a1fc f i Op.obj
 0001:00009234       ??_GStringOp@xercesc_3_1@@UAEPAXI@Z 1200a234 f i Op.obj
 0001:00009234       ??_EStringOp@xercesc_3_1@@UAEPAXI@Z 1200a234 f i Op.obj
 0001:00009251       ?getSize@Op@xercesc_3_1@@UBEKXZ 1200a251 f   Op.obj
 0001:00009280       ?getData@Op@xercesc_3_1@@UBEHXZ 1200a280 f   Op.obj
 0001:000092af       ?getData2@Op@xercesc_3_1@@UBEHXZ 1200a2af f   Op.obj
 0001:000092de       ?elementAt@Op@xercesc_3_1@@UBEPBV12@K@Z 1200a2de f   Op.obj
 0001:0000930d       ?getChild@Op@xercesc_3_1@@UBEPBV12@XZ 1200a30d f   Op.obj
 0001:0000933c       ?getLiteral@Op@xercesc_3_1@@UBEPBGXZ 1200a33c f   Op.obj
 0001:0000936b       ?getToken@Op@xercesc_3_1@@UBEPBVToken@2@XZ 1200a36b f   Op.obj
 0001:0000939a       ??0UnionOp@xercesc_3_1@@QAE@W4opType@Op@1@KQAVMemoryManager@1@@Z 1200a39a f   Op.obj
 0001:00009406       ?getSize@UnionOp@xercesc_3_1@@UBEKXZ 1200a406 f   Op.obj
 0001:0000940d       ?elementAt@UnionOp@xercesc_3_1@@UBEPBVOp@2@K@Z 1200a40d f   Op.obj
 0001:0000941e       ??0ChildOp@xercesc_3_1@@QAE@W4opType@Op@1@QAVMemoryManager@1@@Z 1200a41e f   Op.obj
 0001:00009439       ??0ModifierOp@xercesc_3_1@@QAE@W4opType@Op@1@HHQAVMemoryManager@1@@Z 1200a439 f   Op.obj
 0001:00009459       ??0StringOp@xercesc_3_1@@QAE@W4opType@Op@1@QBGQAVMemoryManager@1@@Z 1200a459 f   Op.obj
 0001:0000949f       ??1?$BaseRefVectorOf@VOp@xercesc_3_1@@@xercesc_3_1@@UAE@XZ 1200a49f f i Op.obj
 0001:000094a6       ?removeAllElements@?$BaseRefVectorOf@VXercesStep@xercesc_3_1@@@xercesc_3_1@@UAEXXZ 1200a4a6 f i XTemplateSerializer.obj
 0001:000094a6       ?removeAllElements@?$BaseRefVectorOf@VIdentityConstraint@xercesc_3_1@@@xercesc_3_1@@UAEXXZ 1200a4a6 f i XTemplateSerializer.obj
 0001:000094a6       ?removeAllElements@?$BaseRefVectorOf@VXercesLocationPath@xercesc_3_1@@@xercesc_3_1@@UAEXXZ 1200a4a6 f i XTemplateSerializer.obj
 0001:000094a6       ?removeAllElements@?$BaseRefVectorOf@VDatatypeValidator@xercesc_3_1@@@xercesc_3_1@@UAEXXZ 1200a4a6 f i XTemplateSerializer.obj
 0001:000094a6       ?removeAllElements@?$BaseRefVectorOf@VToken@xercesc_3_1@@@xercesc_3_1@@UAEXXZ 1200a4a6 f i TokenFactory.obj
 0001:000094a6       ?removeAllElements@?$BaseRefVectorOf@VSchemaAttDef@xercesc_3_1@@@xercesc_3_1@@UAEXXZ 1200a4a6 f i XTemplateSerializer.obj
 0001:000094a6       ?removeAllElements@?$BaseRefVectorOf@VIC_Field@xercesc_3_1@@@xercesc_3_1@@UAEXXZ 1200a4a6 f i XTemplateSerializer.obj
 0001:000094a6       ?removeAllElements@?$BaseRefVectorOf@VSchemaElementDecl@xercesc_3_1@@@xercesc_3_1@@UAEXXZ 1200a4a6 f i XTemplateSerializer.obj
 0001:000094a6       ?removeAllElements@?$BaseRefVectorOf@VXMLNumber@xercesc_3_1@@@xercesc_3_1@@UAEXXZ 1200a4a6 f i XTemplateSerializer.obj
 0001:000094a6       ?removeAllElements@?$BaseRefVectorOf@VOp@xercesc_3_1@@@xercesc_3_1@@UAEXXZ 1200a4a6 f i Op.obj
 0001:000094db       ??1?$RefVectorOf@VOp@xercesc_3_1@@@xercesc_3_1@@UAE@XZ 1200a4db f i Op.obj
 0001:00009538       ??_G?$BaseRefVectorOf@VOp@xercesc_3_1@@@xercesc_3_1@@UAEPAXI@Z 1200a538 f i Op.obj
 0001:00009538       ??_E?$BaseRefVectorOf@VOp@xercesc_3_1@@@xercesc_3_1@@UAEPAXI@Z 1200a538 f i Op.obj
 0001:00009555       ??_E?$RefVectorOf@VOp@xercesc_3_1@@@xercesc_3_1@@UAEPAXI@Z 1200a555 f i Op.obj
 0001:00009555       ??_G?$RefVectorOf@VOp@xercesc_3_1@@@xercesc_3_1@@UAEPAXI@Z 1200a555 f i Op.obj
 0001:00009572       ??0?$BaseRefVectorOf@VOp@xercesc_3_1@@@xercesc_3_1@@QAE@K_NQAVMemoryManager@1@@Z 1200a572 f i Op.obj
 0001:000095ac       ??0OpFactory@xercesc_3_1@@QAE@QAVMemoryManager@1@@Z 1200a5ac f   OpFactory.obj
 0001:000095ff       ?createDotOp@OpFactory@xercesc_3_1@@QAEPAVOp@2@XZ 1200a5ff f   OpFactory.obj
 0001:00009631       ?createCharOp@OpFactory@xercesc_3_1@@QAEPAVCharOp@2@H@Z 1200a631 f   OpFactory.obj
 0001:00009670       ?createAnchorOp@OpFactory@xercesc_3_1@@QAEPAVCharOp@2@H@Z 1200a670 f   OpFactory.obj
 0001:000096af       ?createCaptureOp@OpFactory@xercesc_3_1@@QAEPAVCharOp@2@HQBVOp@2@@Z 1200a6af f   OpFactory.obj
 0001:000096f5       ?createUnionOp@OpFactory@xercesc_3_1@@QAEPAVUnionOp@2@K@Z 1200a6f5 f   OpFactory.obj
 0001:00009745       ?createClosureOp@OpFactory@xercesc_3_1@@QAEPAVChildOp@2@H@Z 1200a745 f   OpFactory.obj
 0001:00009779       ?createNonGreedyClosureOp@OpFactory@xercesc_3_1@@QAEPAVChildOp@2@XZ 1200a779 f   OpFactory.obj
 0001:000097b2       ?createQuestionOp@OpFactory@xercesc_3_1@@QAEPAVChildOp@2@_N@Z 1200a7b2 f   OpFactory.obj
 0001:000097eb       ?createRangeOp@OpFactory@xercesc_3_1@@QAEPAVRangeOp@2@QBVToken@2@@Z 1200a7eb f   OpFactory.obj
 0001:0000982a       ?createBackReferenceOp@OpFactory@xercesc_3_1@@QAEPAVCharOp@2@H@Z 1200a82a f   OpFactory.obj
 0001:00009869       ?createStringOp@OpFactory@xercesc_3_1@@QAEPAVStringOp@2@QBG@Z 1200a869 f   OpFactory.obj
 0001:000098b9       ?getChild@ParenToken@xercesc_3_1@@UBEPAVToken@2@K@Z 1200a8b9 f i ParenToken.obj
 0001:000098bf       ??0ParenToken@xercesc_3_1@@QAE@W4tokType@Token@1@QAV31@HQAVMemoryManager@1@@Z 1200a8bf f   ParenToken.obj
 0001:000098e0       ??0ParseException@xercesc_3_1@@QAE@QBD_KW4Codes@XMLExcepts@1@PAVMemoryManager@1@@Z 1200a8e0 f i ParserForXMLSchema.obj
 0001:0000991f       ??0ParseException@xercesc_3_1@@QAE@ABV01@@Z 1200a91f f i ParserForXMLSchema.obj
 0001:00009937       ??0ParseException@xercesc_3_1@@QAE@QBD_KW4Codes@XMLExcepts@1@QBG333PAVMemoryManager@1@@Z 1200a937 f i ParserForXMLSchema.obj
 0001:00009982       ??1ParseException@xercesc_3_1@@UAE@XZ 1200a982 f i ParserForXMLSchema.obj
 0001:0000998d       ?duplicate@ParseException@xercesc_3_1@@UBEPAVXMLException@2@XZ 1200a98d f i ParserForXMLSchema.obj
 0001:000099c9       ?getType@ParseException@xercesc_3_1@@UBEPBGXZ 1200a9c9 f i ParserForXMLSchema.obj
 0001:000099cf       ??_EParseException@xercesc_3_1@@UAEPAXI@Z 1200a9cf f i ParserForXMLSchema.obj
 0001:000099cf       ??_GParseException@xercesc_3_1@@UAEPAXI@Z 1200a9cf f i ParserForXMLSchema.obj
 0001:000099eb       ??_GParserForXMLSchema@xercesc_3_1@@UAEPAXI@Z 1200a9eb f i ParserForXMLSchema.obj
 0001:000099eb       ??_EParserForXMLSchema@xercesc_3_1@@UAEPAXI@Z 1200a9eb f i ParserForXMLSchema.obj
 0001:00009a07       ??1ParserForXMLSchema@xercesc_3_1@@UAE@XZ 1200aa07 f   ParserForXMLSchema.obj
 0001:00009a12       ?processCaret@ParserForXMLSchema@xercesc_3_1@@MAEPAVToken@2@XZ 1200aa12 f   ParserForXMLSchema.obj
 0001:00009a31       ?processDollar@ParserForXMLSchema@xercesc_3_1@@MAEPAVToken@2@XZ 1200aa31 f   ParserForXMLSchema.obj
 0001:00009a50       ?processPlus@ParserForXMLSchema@xercesc_3_1@@MAEPAVToken@2@QAV32@@Z 1200aa50 f   ParserForXMLSchema.obj
 0001:00009a78       ?processStar@ParserForXMLSchema@xercesc_3_1@@MAEPAVToken@2@QAV32@@Z 1200aa78 f   ParserForXMLSchema.obj
 0001:00009a98       ?processQuestion@ParserForXMLSchema@xercesc_3_1@@MAEPAVToken@2@QAV32@@Z 1200aa98 f   ParserForXMLSchema.obj
 0001:00009ad7       ?processParen@ParserForXMLSchema@xercesc_3_1@@MAEPAVToken@2@XZ 1200aad7 f   ParserForXMLSchema.obj
 0001:00009b34       ?processBackReference@ParserForXMLSchema@xercesc_3_1@@MAEPAVToken@2@XZ 1200ab34 f   ParserForXMLSchema.obj
 0001:00009b63       ?checkQuestion@ParserForXMLSchema@xercesc_3_1@@MAE_NK@Z 1200ab63 f   ParserForXMLSchema.obj
 0001:00009b68       ?decodeEscaped@ParserForXMLSchema@xercesc_3_1@@MAEHXZ 1200ab68 f   ParserForXMLSchema.obj
 0001:00009c30       ??0RangeToken@xercesc_3_1@@QAE@W4tokType@Token@1@QAVMemoryManager@1@@Z 1200ac30 f   RangeToken.obj
 0001:00009c5e       ??_GRangeToken@xercesc_3_1@@UAEPAXI@Z 1200ac5e f i RangeToken.obj
 0001:00009c5e       ??_ERangeToken@xercesc_3_1@@UAEPAXI@Z 1200ac5e f i RangeToken.obj
 0001:00009c7b       ??1RangeToken@xercesc_3_1@@UAE@XZ 1200ac7b f   RangeToken.obj
 0001:00009cce       ?getCaseInsensitiveToken@RangeToken@xercesc_3_1@@QAEPAV12@QAVTokenFactory@2@@Z 1200acce f   RangeToken.obj
 0001:00009db3       ?addRange@RangeToken@xercesc_3_1@@UAEXHH@Z 1200adb3 f   RangeToken.obj
 0001:00009f01       ?sortRanges@RangeToken@xercesc_3_1@@UAEXXZ 1200af01 f   RangeToken.obj
 0001:00009f87       ?compactRanges@RangeToken@xercesc_3_1@@UAEXXZ 1200af87 f   RangeToken.obj
 0001:0000a01c       ?mergeRanges@RangeToken@xercesc_3_1@@UAEXQBVToken@2@@Z 1200b01c f   RangeToken.obj
 0001:0000a1d9       ?subtractRanges@RangeToken@xercesc_3_1@@UAEXQAV12@@Z 1200b1d9 f   RangeToken.obj
 0001:0000a358       ?intersectRanges@RangeToken@xercesc_3_1@@UAEXQAV12@@Z 1200b358 f   RangeToken.obj
 0001:0000a494       ?complementRanges@RangeToken@xercesc_3_1@@SAPAV12@QAV12@QAVTokenFactory@2@QAVMemoryManager@2@@Z 1200b494 f   RangeToken.obj
 0001:0000a559       ?match@RangeToken@xercesc_3_1@@QAE_NH@Z 1200b559 f   RangeToken.obj
 0001:0000a625       ?expand@RangeToken@xercesc_3_1@@AAEXI@Z 1200b625 f   RangeToken.obj
 0001:0000a68c       ?doCreateMap@RangeToken@xercesc_3_1@@AAEXXZ 1200b68c f   RangeToken.obj
 0001:0000a71b       ?getRange@RangeTokenMap@xercesc_3_1@@IAEPAVRangeToken@2@QBG_N@Z 1200b71b f   RangeTokenMap.obj
 0001:0000a7f6       ?get@?$RefHashTableOf@VGrammar@xercesc_3_1@@UStringHasher@2@@xercesc_3_1@@QAEPAVGrammar@2@QBX@Z 1200b7f6 f i XMLGrammarPoolImpl.obj
 0001:0000a7f6       ?get@?$RefHashTableOf@VDTDAttDef@xercesc_3_1@@UStringHasher@2@@xercesc_3_1@@QAEPAVDTDAttDef@2@QBX@Z 1200b7f6 f i XTemplateSerializer.obj
 0001:0000a7f6       ?get@?$RefHashTableOf@VXercesAttGroupInfo@xercesc_3_1@@UStringHasher@2@@xercesc_3_1@@QAEPAVXercesAttGroupInfo@2@QBX@Z 1200b7f6 f i XTemplateSerializer.obj
 0001:0000a7f6       ?get@?$RefHashTableOf@VComplexTypeInfo@xercesc_3_1@@UStringHasher@2@@xercesc_3_1@@QAEPAVComplexTypeInfo@2@QBX@Z 1200b7f6 f i XTemplateSerializer.obj
 0001:0000a7f6       ?get@?$RefHashTableOf@VKVStringPair@xercesc_3_1@@UStringHasher@2@@xercesc_3_1@@QAEPAVKVStringPair@2@QBX@Z 1200b7f6 f i XTemplateSerializer.obj
 0001:0000a7f6       ?get@?$RefHashTableOf@VDTDElementDecl@xercesc_3_1@@UStringHasher@2@@xercesc_3_1@@QAEPAVDTDElementDecl@2@QBX@Z 1200b7f6 f i DGXMLScanner.obj
 0001:0000a7f6       ?get@?$RefHashTableOf@VXMLAttDef@xercesc_3_1@@UStringHasher@2@@xercesc_3_1@@QAEPAVXMLAttDef@2@QBX@Z 1200b7f6 f i IGXMLScanner2.obj
 0001:0000a7f6       ?get@?$RefHashTableOf@VXMLNotationDecl@xercesc_3_1@@UStringHasher@2@@xercesc_3_1@@QAEPAVXMLNotationDecl@2@QBX@Z 1200b7f6 f i DTDGrammar.obj
 0001:0000a7f6       ?get@?$RefHashTableOf@VXercesGroupInfo@xercesc_3_1@@UStringHasher@2@@xercesc_3_1@@QAEPAVXercesGroupInfo@2@QBX@Z 1200b7f6 f i XTemplateSerializer.obj
 0001:0000a7f6       ?get@?$RefHashTableOf@VRangeFactory@xercesc_3_1@@UStringHasher@2@@xercesc_3_1@@QAEPAVRangeFactory@2@QBX@Z 1200b7f6 f i RangeTokenMap.obj
 0001:0000a7f6       ?get@?$RefHashTableOf@VRangeTokenElemMap@xercesc_3_1@@UStringHasher@2@@xercesc_3_1@@QAEPAVRangeTokenElemMap@2@QBX@Z 1200b7f6 f i RangeTokenMap.obj
 0001:0000a7f6       ?get@?$RefHashTableOf@VDatatypeValidator@xercesc_3_1@@UStringHasher@2@@xercesc_3_1@@QAEPAVDatatypeValidator@2@QBX@Z 1200b7f6 f i XSModel.obj
 0001:0000a7f6       ?get@?$RefHashTableOf@UPoolElem@XMLStringPool@xercesc_3_1@@UStringHasher@3@@xercesc_3_1@@QAEPAUPoolElem@XMLStringPool@2@QBX@Z 1200b7f6 f i StringPool.obj
 0001:0000a816       ?isEOLChar@RegxUtil@xercesc_3_1@@SA_NG@Z 1200b816 f i RegularExpression.obj
 0001:0000a835       ?cleanUp@RegularExpression@xercesc_3_1@@IAEXXZ 1200b835 f i RegularExpression.obj
 0001:0000a873       ??_GBMPattern@xercesc_3_1@@QAEPAXI@Z 1200b873 f i RegularExpression.obj
 0001:0000a893       ?compileUnion@RegularExpression@xercesc_3_1@@IAEPAVOp@2@QBVToken@2@QAV32@_N@Z 1200b893 f i RegularExpression.obj
 0001:0000a8e6       ?compileParenthesis@RegularExpression@xercesc_3_1@@IAEPAVOp@2@QBVToken@2@QAV32@_N@Z 1200b8e6 f i RegularExpression.obj
 0001:0000a973       ?compileConcat@RegularExpression@xercesc_3_1@@IAEPAVOp@2@QBVToken@2@QAV32@_N@Z 1200b973 f i RegularExpression.obj
 0001:0000a9db       ?compileClosure@RegularExpression@xercesc_3_1@@IAEPAVOp@2@QBVToken@2@QAV32@_NW4tokType@42@@Z 1200b9db f i RegularExpression.obj
 0001:0000ab17       ??0EmptyStackException@xercesc_3_1@@QAE@QBD_KW4Codes@XMLExcepts@1@PAVMemoryManager@1@@Z 1200bb17 f i RegularExpression.obj
 0001:0000ab56       ??0EmptyStackException@xercesc_3_1@@QAE@ABV01@@Z 1200bb56 f i RegularExpression.obj
 0001:0000ab6e       ??1EmptyStackException@xercesc_3_1@@UAE@XZ 1200bb6e f i RegularExpression.obj
 0001:0000ab79       ?duplicate@EmptyStackException@xercesc_3_1@@UBEPAVXMLException@2@XZ 1200bb79 f i RegularExpression.obj
 0001:0000abb5       ?getType@EmptyStackException@xercesc_3_1@@UBEPBGXZ 1200bbb5 f i RegularExpression.obj
 0001:0000abbb       ??_EEmptyStackException@xercesc_3_1@@UAEPAXI@Z 1200bbbb f i RegularExpression.obj
 0001:0000abbb       ??_GEmptyStackException@xercesc_3_1@@UAEPAXI@Z 1200bbbb f i RegularExpression.obj
 0001:0000abd7       ?matchIgnoreCase@RegularExpression@xercesc_3_1@@IBE_NHH@Z 1200bbd7 f   RegularExpression.obj
 0001:0000ac9f       ??0Context@RegularExpression@xercesc_3_1@@QAE@QAVMemoryManager@2@@Z 1200bc9f f   RegularExpression.obj
 0001:0000acc8       ??0Context@RegularExpression@xercesc_3_1@@QAE@PAV012@@Z 1200bcc8 f   RegularExpression.obj
 0001:0000ad80       ??4Context@RegularExpression@xercesc_3_1@@QAEAAV012@ABV012@@Z 1200bd80 f   RegularExpression.obj
 0001:0000aec5       ??1Context@RegularExpression@xercesc_3_1@@QAE@XZ 1200bec5 f   RegularExpression.obj
 0001:0000aee8       ?reset@Context@RegularExpression@xercesc_3_1@@QAEXQBGKKKHI@Z 1200bee8 f   RegularExpression.obj
 0001:0000af5d       ?nextCh@Context@RegularExpression@xercesc_3_1@@QAE_NAAHAAK@Z 1200bf5d f   RegularExpression.obj
 0001:0000afbd       ??_ERegularExpression@xercesc_3_1@@UAEPAXI@Z 1200bfbd f i RegularExpression.obj
 0001:0000afbd       ??_GRegularExpression@xercesc_3_1@@UAEPAXI@Z 1200bfbd f i RegularExpression.obj
 0001:0000afd9       ??0RegularExpression@xercesc_3_1@@QAE@QBG0QAVMemoryManager@1@@Z 1200bfd9 f   RegularExpression.obj
 0001:0000b086       ??1RegularExpression@xercesc_3_1@@UAE@XZ 1200c086 f   RegularExpression.obj
 0001:0000b0bf       ?getRegexParser@RegularExpression@xercesc_3_1@@MAEPAVRegxParser@2@HQAVMemoryManager@2@@Z 1200c0bf f   RegularExpression.obj
 0001:0000b0f9       ?setPattern@RegularExpression@xercesc_3_1@@IAEXQBG0@Z 1200c0f9 f   RegularExpression.obj
 0001:0000b1b7       ?matches@RegularExpression@xercesc_3_1@@QBE_NQBGQAVMemoryManager@2@@Z 1200c1b7 f   RegularExpression.obj
 0001:0000b1d9       ?matches@RegularExpression@xercesc_3_1@@QBE_NQBGKKQAVMatch@2@QAVMemoryManager@2@@Z 1200c1d9 f   RegularExpression.obj
 0001:0000b4b5       ?getOptionValue@RegularExpression@xercesc_3_1@@SAHG@Z 1200c4b5 f   RegularExpression.obj
 0001:0000b4fe       ?match@RegularExpression@xercesc_3_1@@IBEHQAVContext@12@QBVOp@2@K@Z 1200c4fe f   RegularExpression.obj
 0001:0000b892       ?matchChar@RegularExpression@xercesc_3_1@@IBE_NQAVContext@12@HAAK_N@Z 1200c892 f   RegularExpression.obj
 0001:0000b8d9       ?matchDot@RegularExpression@xercesc_3_1@@IBE_NQAVContext@12@AAK@Z 1200c8d9 f   RegularExpression.obj
 0001:0000b916       ?matchRange@RegularExpression@xercesc_3_1@@IBE_NQAVContext@12@QBVOp@2@AAK_N@Z 1200c916 f   RegularExpression.obj
 0001:0000b96f       ?matchAnchor@RegularExpression@xercesc_3_1@@IBE_NQAVContext@12@HK@Z 1200c96f f   RegularExpression.obj
 0001:0000b9fe       ?matchBackReference@RegularExpression@xercesc_3_1@@IBE_NQAVContext@12@HAAK_N@Z 1200c9fe f   RegularExpression.obj
 0001:0000bab7       ?matchString@RegularExpression@xercesc_3_1@@IBE_NQAVContext@12@QBGAAK_N@Z 1200cab7 f   RegularExpression.obj
 0001:0000bb07       ?matchCapture@RegularExpression@xercesc_3_1@@IBEHQAVContext@12@QBVOp@2@K@Z 1200cb07 f   RegularExpression.obj
 0001:0000bb9c       ?matchUnion@RegularExpression@xercesc_3_1@@IBEHQAVContext@12@QBVOp@2@K@Z 1200cb9c f   RegularExpression.obj
 0001:0000bc81       ?parseOptions@RegularExpression@xercesc_3_1@@IAEHQBG@Z 1200cc81 f   RegularExpression.obj
 0001:0000bcf5       ?compile@RegularExpression@xercesc_3_1@@IAEXQBVToken@2@@Z 1200ccf5 f   RegularExpression.obj
 0001:0000bd12       ?compile@RegularExpression@xercesc_3_1@@IAEPAVOp@2@QBVToken@2@QAV32@_N@Z 1200cd12 f   RegularExpression.obj
 0001:0000be36       ?prepare@RegularExpression@xercesc_3_1@@IAEXXZ 1200ce36 f   RegularExpression.obj
 0001:0000c060       ?doTokenOverlap@RegularExpression@xercesc_3_1@@IAE_NPBVOp@2@PAVToken@2@@Z 1200d060 f   RegularExpression.obj
 0001:0000c166       ??1?$Janitor@V?$BaseRefVectorOf@G@xercesc_3_1@@@xercesc_3_1@@QAE@XZ 1200d166 f i SGXMLScanner.obj
 0001:0000c166       ??1?$Janitor@VContentSpecNode@xercesc_3_1@@@xercesc_3_1@@QAE@XZ 1200d166 f i ComplexTypeInfo.obj
 0001:0000c166       ??1?$Janitor@VRegxParser@xercesc_3_1@@@xercesc_3_1@@QAE@XZ 1200d166 f i RegularExpression.obj
 0001:0000c166       ??1?$Janitor@VXMLGrammarDescription@xercesc_3_1@@@xercesc_3_1@@QAE@XZ 1200d166 f i GrammarResolver.obj
 0001:0000c166       ??1?$Janitor@VXMLDateTime@xercesc_3_1@@@xercesc_3_1@@QAE@XZ 1200d166 f i DateDatatypeValidator.obj
 0001:0000c16e       ??1?$Janitor@V?$ValueStackOf@URE_RuntimeContext@xercesc_3_1@@@xercesc_3_1@@@xercesc_3_1@@QAE@XZ 1200d16e f i RegularExpression.obj
 0001:0000c176       ?reset@?$Janitor@V?$ValueStackOf@URE_RuntimeContext@xercesc_3_1@@@xercesc_3_1@@@xercesc_3_1@@QAEXPAV?$ValueStackOf@URE_RuntimeContext@xercesc_3_1@@@2@@Z 1200d176 f i RegularExpression.obj
 0001:0000c18d       ?pop@?$ValueStackOf@URE_RuntimeContext@xercesc_3_1@@@xercesc_3_1@@QAE?AURE_RuntimeContext@2@XZ 1200d18d f i RegularExpression.obj
 0001:0000c1e9       ??_G?$ValueStackOf@URE_RuntimeContext@xercesc_3_1@@@xercesc_3_1@@QAEPAXI@Z 1200d1e9 f i RegularExpression.obj
 0001:0000c209       ??0?$ValueVectorOf@URE_RuntimeContext@xercesc_3_1@@@xercesc_3_1@@QAE@KQAVMemoryManager@1@_N@Z 1200d209 f i RegularExpression.obj
 0001:0000c23a       ?addElement@?$ValueVectorOf@URE_RuntimeContext@xercesc_3_1@@@xercesc_3_1@@QAEXABURE_RuntimeContext@2@@Z 1200d23a f i RegularExpression.obj
 0001:0000c25c       ?removeElementAt@?$ValueVectorOf@URE_RuntimeContext@xercesc_3_1@@@xercesc_3_1@@QAEXK@Z 1200d25c f i RegularExpression.obj
 0001:0000c2b7       ?elementAt@?$ValueVectorOf@URE_RuntimeContext@xercesc_3_1@@@xercesc_3_1@@QAEAAURE_RuntimeContext@2@K@Z 1200d2b7 f i RegularExpression.obj
 0001:0000c2f2       ?ensureExtraCapacity@?$ValueVectorOf@URE_RuntimeContext@xercesc_3_1@@@xercesc_3_1@@QAEXK@Z 1200d2f2 f i RegularExpression.obj
 0001:0000c375       ??0RegxParser@xercesc_3_1@@QAE@QAVMemoryManager@1@@Z 1200d375 f   RegxParser.obj
 0001:0000c3a5       ??_GRegxParser@xercesc_3_1@@UAEPAXI@Z 1200d3a5 f i RegxParser.obj
 0001:0000c3a5       ??_ERegxParser@xercesc_3_1@@UAEPAXI@Z 1200d3a5 f i RegxParser.obj
 0001:0000c3c1       ??1RegxParser@xercesc_3_1@@UAE@XZ 1200d3c1 f   RegxParser.obj
 0001:0000c3e4       ?parse@RegxParser@xercesc_3_1@@QAEPAVToken@2@QBGH@Z 1200d3e4 f   RegxParser.obj
 0001:0000c527       ?processNext@RegxParser@xercesc_3_1@@IAEXXZ 1200d527 f   RegxParser.obj
 0001:0000c6f0       ?parseRegx@RegxParser@xercesc_3_1@@IAEPAVToken@2@_N@Z 1200d6f0 f   RegxParser.obj
 0001:0000c759       ?parseTerm@RegxParser@xercesc_3_1@@AAEPAVToken@2@_N@Z 1200d759 f   RegxParser.obj
 0001:0000c7e4       ?processCaret@RegxParser@xercesc_3_1@@MAEPAVToken@2@XZ 1200d7e4 f   RegxParser.obj
 0001:0000c7f7       ?processDollar@RegxParser@xercesc_3_1@@MAEPAVToken@2@XZ 1200d7f7 f   RegxParser.obj
 0001:0000c80a       ?processStar@RegxParser@xercesc_3_1@@MAEPAVToken@2@QAV32@@Z 1200d80a f   RegxParser.obj
 0001:0000c839       ?processPlus@RegxParser@xercesc_3_1@@MAEPAVToken@2@QAV32@@Z 1200d839 f   RegxParser.obj
 0001:0000c875       ?processQuestion@RegxParser@xercesc_3_1@@MAEPAVToken@2@QAV32@@Z 1200d875 f   RegxParser.obj
 0001:0000c8ff       ?processParen@RegxParser@xercesc_3_1@@MAEPAVToken@2@XZ 1200d8ff f   RegxParser.obj
 0001:0000c967       ?processBackReference@RegxParser@xercesc_3_1@@MAEPAVToken@2@XZ 1200d967 f   RegxParser.obj
 0001:0000ca44       ?parseFactor@RegxParser@xercesc_3_1@@AAEPAVToken@2@XZ 1200da44 f   RegxParser.obj
 0001:0000ccd3       ?parseAtom@RegxParser@xercesc_3_1@@AAEPAVToken@2@XZ 1200dcd3 f   RegxParser.obj
 0001:0000cec6       ?processBacksolidus_pP@RegxParser@xercesc_3_1@@IAEPAVRangeToken@2@H@Z 1200dec6 f   RegxParser.obj
 0001:0000cfbe       ?parseCharacterClass@RegxParser@xercesc_3_1@@IAEPAVRangeToken@2@_N@Z 1200dfbe f   RegxParser.obj
 0001:0000d354       ?getTokenForShorthand@RegxParser@xercesc_3_1@@IAEPAVRangeToken@2@H@Z 1200e354 f   RegxParser.obj
 0001:0000d3d0       ?decodeEscaped@RegxParser@xercesc_3_1@@MAEHXZ 1200e3d0 f   RegxParser.obj
 0001:0000d4a1       ?checkQuestion@RegxParser@xercesc_3_1@@MAE_NK@Z 1200e4a1 f   RegxParser.obj
 0001:0000d4be       ??1?$BaseRefVectorOf@VReferencePosition@RegxParser@xercesc_3_1@@@xercesc_3_1@@UAE@XZ 1200e4be f i RegxParser.obj
 0001:0000d4c5       ?setElementAt@?$BaseRefVectorOf@VReferencePosition@RegxParser@xercesc_3_1@@@xercesc_3_1@@UAEXQAVReferencePosition@RegxParser@2@K@Z 1200e4c5 f i RegxParser.obj
 0001:0000d51c       ?removeAllElements@?$BaseRefVectorOf@VReferencePosition@RegxParser@xercesc_3_1@@@xercesc_3_1@@UAEXXZ 1200e51c f i RegxParser.obj
 0001:0000d54c       ?removeElementAt@?$BaseRefVectorOf@VReferencePosition@RegxParser@xercesc_3_1@@@xercesc_3_1@@UAEXK@Z 1200e54c f i RegxParser.obj
 0001:0000d5d6       ?removeLastElement@?$BaseRefVectorOf@VReferencePosition@RegxParser@xercesc_3_1@@@xercesc_3_1@@UAEXXZ 1200e5d6 f i RegxParser.obj
 0001:0000d5f3       ?cleanup@?$BaseRefVectorOf@VReferencePosition@RegxParser@xercesc_3_1@@@xercesc_3_1@@UAEXXZ 1200e5f3 f i RegxParser.obj
 0001:0000d623       ??1?$RefVectorOf@VReferencePosition@RegxParser@xercesc_3_1@@@xercesc_3_1@@UAE@XZ 1200e623 f i RegxParser.obj
 0001:0000d67b       ??_E?$BaseRefVectorOf@VReferencePosition@RegxParser@xercesc_3_1@@@xercesc_3_1@@UAEPAXI@Z 1200e67b f i RegxParser.obj
 0001:0000d67b       ??_G?$BaseRefVectorOf@VReferencePosition@RegxParser@xercesc_3_1@@@xercesc_3_1@@UAEPAXI@Z 1200e67b f i RegxParser.obj
 0001:0000d698       ??_E?$RefVectorOf@VReferencePosition@RegxParser@xercesc_3_1@@@xercesc_3_1@@UAEPAXI@Z 1200e698 f i RegxParser.obj
 0001:0000d698       ??_G?$RefVectorOf@VReferencePosition@RegxParser@xercesc_3_1@@@xercesc_3_1@@UAEPAXI@Z 1200e698 f i RegxParser.obj
 0001:0000d6b5       ??0?$BaseRefVectorOf@VReferencePosition@RegxParser@xercesc_3_1@@@xercesc_3_1@@QAE@K_NQAVMemoryManager@1@@Z 1200e6b5 f i RegxParser.obj
 0001:0000d6ef       ?decomposeToSurrogates@RegxUtil@xercesc_3_1@@SAPAGHQAVMemoryManager@2@@Z 1200e6ef f   RegxUtil.obj
 0001:0000d71e       ?stripExtendedComment@RegxUtil@xercesc_3_1@@SAPAGQBGQAVMemoryManager@2@@Z 1200e71e f   RegxUtil.obj
 0001:0000d7ef       ??0StringToken@xercesc_3_1@@QAE@W4tokType@Token@1@QBGHQAVMemoryManager@1@@Z 1200e7ef f   StringToken.obj
 0001:0000d83a       ??_GStringToken@xercesc_3_1@@UAEPAXI@Z 1200e83a f i StringToken.obj
 0001:0000d83a       ??_EStringToken@xercesc_3_1@@UAEPAXI@Z 1200e83a f i StringToken.obj
 0001:0000d857       ??1StringToken@xercesc_3_1@@UAE@XZ 1200e857 f   StringToken.obj
 0001:0000d88f       ??_GToken@xercesc_3_1@@UAEPAXI@Z 1200e88f f i Token.obj
 0001:0000d88f       ??_EToken@xercesc_3_1@@UAEPAXI@Z 1200e88f f i Token.obj
 0001:0000d8ac       ??1Token@xercesc_3_1@@UAE@XZ 1200e8ac f   Token.obj
 0001:0000d8b3       ?getMinLength@Token@xercesc_3_1@@QBEKXZ 1200e8b3 f   Token.obj
 0001:0000d9d3       ?analyzeFirstCharacter@Token@xercesc_3_1@@QAE?AW4firstCharacterOptions@12@QAVRangeToken@2@HQAVTokenFactory@2@@Z 1200e9d3 f   Token.obj
 0001:0000dba3       ?findFixedString@Token@xercesc_3_1@@QAEPAV12@HAAH@Z 1200eba3 f   Token.obj
 0001:0000dc68       ?isShorterThan@Token@xercesc_3_1@@AAE_NQAV12@@Z 1200ec68 f   Token.obj
 0001:0000dca0       ??0TokenFactory@xercesc_3_1@@QAE@QAVMemoryManager@1@@Z 1200eca0 f   TokenFactory.obj
 0001:0000dd05       ??1OpFactory@xercesc_3_1@@QAE@XZ 1200ed05 f   OpFactory.obj
 0001:0000dd05       ??1TokenFactory@xercesc_3_1@@QAE@XZ 1200ed05 f   TokenFactory.obj
 0001:0000dd15       ?createToken@TokenFactory@xercesc_3_1@@QAEPAVToken@2@W4tokType@32@@Z 1200ed15 f   TokenFactory.obj
 0001:0000dd5a       ?createParenthesis@TokenFactory@xercesc_3_1@@QAEPAVParenToken@2@QAVToken@2@H@Z 1200ed5a f   TokenFactory.obj
 0001:0000dd91       ?createClosure@TokenFactory@xercesc_3_1@@QAEPAVClosureToken@2@QAVToken@2@_N@Z 1200ed91 f   TokenFactory.obj
 0001:0000ddda       ?createConcat@TokenFactory@xercesc_3_1@@QAEPAVConcatToken@2@QAVToken@2@0@Z 1200edda f   TokenFactory.obj
 0001:0000de0e       ?createUnion@TokenFactory@xercesc_3_1@@QAEPAVUnionToken@2@_N@Z 1200ee0e f   TokenFactory.obj
 0001:0000de60       ?createRange@TokenFactory@xercesc_3_1@@QAEPAVRangeToken@2@_N@Z 1200ee60 f   TokenFactory.obj
 0001:0000de9e       ?createChar@TokenFactory@xercesc_3_1@@QAEPAVCharToken@2@I_N@Z 1200ee9e f   TokenFactory.obj
 0001:0000deec       ?createBackReference@TokenFactory@xercesc_3_1@@QAEPAVStringToken@2@H@Z 1200eeec f   TokenFactory.obj
 0001:0000df3d       ?createString@TokenFactory@xercesc_3_1@@QAEPAVStringToken@2@QBG@Z 1200ef3d f   TokenFactory.obj
 0001:0000df8e       ?staticGetRange@TokenFactory@xercesc_3_1@@SAPAVRangeToken@2@QBG_N@Z 1200ef8e f   TokenFactory.obj
 0001:0000dfa2       ?getLineBegin@TokenFactory@xercesc_3_1@@QAEPAVToken@2@XZ 1200efa2 f   TokenFactory.obj
 0001:0000dfbf       ?getLineEnd@TokenFactory@xercesc_3_1@@QAEPAVToken@2@XZ 1200efbf f   TokenFactory.obj
 0001:0000dfdc       ?getDot@TokenFactory@xercesc_3_1@@QAEPAVToken@2@XZ 1200efdc f   TokenFactory.obj
 0001:0000dff7       ??1?$BaseRefVectorOf@VToken@xercesc_3_1@@@xercesc_3_1@@UAE@XZ 1200eff7 f i TokenFactory.obj
 0001:0000dffe       ?setElementAt@?$BaseRefVectorOf@VXercesLocationPath@xercesc_3_1@@@xercesc_3_1@@UAEXQAVXercesLocationPath@2@K@Z 1200effe f i XTemplateSerializer.obj
 0001:0000dffe       ?setElementAt@?$BaseRefVectorOf@VIdentityConstraint@xercesc_3_1@@@xercesc_3_1@@UAEXQAVIdentityConstraint@2@K@Z 1200effe f i XTemplateSerializer.obj
 0001:0000dffe       ?setElementAt@?$BaseRefVectorOf@VSchemaElementDecl@xercesc_3_1@@@xercesc_3_1@@UAEXQAVSchemaElementDecl@2@K@Z 1200effe f i XTemplateSerializer.obj
 0001:0000dffe       ?setElementAt@?$BaseRefVectorOf@VToken@xercesc_3_1@@@xercesc_3_1@@UAEXQAVToken@2@K@Z 1200effe f i TokenFactory.obj
 0001:0000dffe       ?setElementAt@?$BaseRefVectorOf@VXMLNumber@xercesc_3_1@@@xercesc_3_1@@UAEXQAVXMLNumber@2@K@Z 1200effe f i XTemplateSerializer.obj
 0001:0000dffe       ?setElementAt@?$BaseRefVectorOf@VSchemaAttDef@xercesc_3_1@@@xercesc_3_1@@UAEXQAVSchemaAttDef@2@K@Z 1200effe f i XTemplateSerializer.obj
 0001:0000dffe       ?setElementAt@?$BaseRefVectorOf@VOp@xercesc_3_1@@@xercesc_3_1@@UAEXQAVOp@2@K@Z 1200effe f i Op.obj
 0001:0000dffe       ?setElementAt@?$BaseRefVectorOf@VXercesStep@xercesc_3_1@@@xercesc_3_1@@UAEXQAVXercesStep@2@K@Z 1200effe f i XTemplateSerializer.obj
 0001:0000dffe       ?setElementAt@?$BaseRefVectorOf@VDatatypeValidator@xercesc_3_1@@@xercesc_3_1@@UAEXQAVDatatypeValidator@2@K@Z 1200effe f i XTemplateSerializer.obj
 0001:0000dffe       ?setElementAt@?$BaseRefVectorOf@VIC_Field@xercesc_3_1@@@xercesc_3_1@@UAEXQAVIC_Field@2@K@Z 1200effe f i XTemplateSerializer.obj
 0001:0000e05a       ?removeElementAt@?$BaseRefVectorOf@VIdentityConstraint@xercesc_3_1@@@xercesc_3_1@@UAEXK@Z 1200f05a f i XTemplateSerializer.obj
 0001:0000e05a       ?removeElementAt@?$BaseRefVectorOf@VXercesStep@xercesc_3_1@@@xercesc_3_1@@UAEXK@Z 1200f05a f i XTemplateSerializer.obj
 0001:0000e05a       ?removeElementAt@?$BaseRefVectorOf@VIC_Field@xercesc_3_1@@@xercesc_3_1@@UAEXK@Z 1200f05a f i XTemplateSerializer.obj
 0001:0000e05a       ?removeElementAt@?$BaseRefVectorOf@VSchemaElementDecl@xercesc_3_1@@@xercesc_3_1@@UAEXK@Z 1200f05a f i XTemplateSerializer.obj
 0001:0000e05a       ?removeElementAt@?$BaseRefVectorOf@VDatatypeValidator@xercesc_3_1@@@xercesc_3_1@@UAEXK@Z 1200f05a f i XTemplateSerializer.obj
 0001:0000e05a       ?removeElementAt@?$BaseRefVectorOf@VXercesLocationPath@xercesc_3_1@@@xercesc_3_1@@UAEXK@Z 1200f05a f i XTemplateSerializer.obj
 0001:0000e05a       ?removeElementAt@?$BaseRefVectorOf@VXMLNumber@xercesc_3_1@@@xercesc_3_1@@UAEXK@Z 1200f05a f i XTemplateSerializer.obj
 0001:0000e05a       ?removeElementAt@?$BaseRefVectorOf@VToken@xercesc_3_1@@@xercesc_3_1@@UAEXK@Z 1200f05a f i TokenFactory.obj
 0001:0000e05a       ?removeElementAt@?$BaseRefVectorOf@VOp@xercesc_3_1@@@xercesc_3_1@@UAEXK@Z 1200f05a f i Op.obj
 0001:0000e05a       ?removeElementAt@?$BaseRefVectorOf@VSchemaAttDef@xercesc_3_1@@@xercesc_3_1@@UAEXK@Z 1200f05a f i XTemplateSerializer.obj
 0001:0000e0e9       ??1?$RefVectorOf@VToken@xercesc_3_1@@@xercesc_3_1@@UAE@XZ 1200f0e9 f i TokenFactory.obj
 0001:0000e146       ??_E?$BaseRefVectorOf@VToken@xercesc_3_1@@@xercesc_3_1@@UAEPAXI@Z 1200f146 f i TokenFactory.obj
 0001:0000e146       ??_G?$BaseRefVectorOf@VToken@xercesc_3_1@@@xercesc_3_1@@UAEPAXI@Z 1200f146 f i TokenFactory.obj
 0001:0000e163       ??_G?$RefVectorOf@VToken@xercesc_3_1@@@xercesc_3_1@@UAEPAXI@Z 1200f163 f i TokenFactory.obj
 0001:0000e163       ??_E?$RefVectorOf@VToken@xercesc_3_1@@@xercesc_3_1@@UAEPAXI@Z 1200f163 f i TokenFactory.obj
 0001:0000e180       ??0?$BaseRefVectorOf@VToken@xercesc_3_1@@@xercesc_3_1@@QAE@K_NQAVMemoryManager@1@@Z 1200f180 f i TokenFactory.obj
 0001:0000e1ba       ?size@UnionToken@xercesc_3_1@@UBEKXZ 1200f1ba f i UnionToken.obj
 0001:0000e1c6       ?getChild@UnionToken@xercesc_3_1@@UBEPAVToken@2@K@Z 1200f1c6 f i UnionToken.obj
 0001:0000e1d7       ?setString@StringToken@xercesc_3_1@@QAEXQBG@Z 1200f1d7 f i UnionToken.obj
 0001:0000e1fb       ??_EUnionToken@xercesc_3_1@@UAEPAXI@Z 1200f1fb f i UnionToken.obj
 0001:0000e1fb       ??_GUnionToken@xercesc_3_1@@UAEPAXI@Z 1200f1fb f i UnionToken.obj
 0001:0000e218       ??1UnionToken@xercesc_3_1@@UAE@XZ 1200f218 f   UnionToken.obj
 0001:0000e252       ?addChild@UnionToken@xercesc_3_1@@UAEXQAVToken@2@QAVTokenFactory@2@@Z 1200f252 f   UnionToken.obj
 0001:0000e453       ??0NullPointerException@xercesc_3_1@@QAE@QBD_KW4Codes@XMLExcepts@1@PAVMemoryManager@1@@Z 1200f453 f i Wrapper4DOMLSInput.obj
 0001:0000e492       ??0NullPointerException@xercesc_3_1@@QAE@ABV01@@Z 1200f492 f i Wrapper4DOMLSInput.obj
 0001:0000e4aa       ??1NullPointerException@xercesc_3_1@@UAE@XZ 1200f4aa f i Wrapper4DOMLSInput.obj
 0001:0000e4b5       ?duplicate@NullPointerException@xercesc_3_1@@UBEPAVXMLException@2@XZ 1200f4b5 f i Wrapper4DOMLSInput.obj
 0001:0000e4f1       ?getType@NullPointerException@xercesc_3_1@@UBEPBGXZ 1200f4f1 f i Wrapper4DOMLSInput.obj
 0001:0000e4f7       ??_GNullPointerException@xercesc_3_1@@UAEPAXI@Z 1200f4f7 f i Wrapper4DOMLSInput.obj
 0001:0000e4f7       ??_ENullPointerException@xercesc_3_1@@UAEPAXI@Z 1200f4f7 f i Wrapper4DOMLSInput.obj
 0001:0000e513       ??1XMLAttDef@xercesc_3_1@@UAE@XZ 1200f513 f   XMLAttDef.obj
 0001:0000e546       ??_GXMLAttDef@xercesc_3_1@@UAEPAXI@Z 1200f546 f i XMLAttDef.obj
 0001:0000e546       ??_EXMLAttDef@xercesc_3_1@@UAEPAXI@Z 1200f546 f i XMLAttDef.obj
 0001:0000e562       ??0XMLAttDef@xercesc_3_1@@IAE@W4AttTypes@01@W4DefAttTypes@01@QAVMemoryManager@1@@Z 1200f562 f   XMLAttDef.obj
 0001:0000e591       ?cleanUp@XMLAttDef@xercesc_3_1@@AAEXXZ 1200f591 f   XMLAttDef.obj
 0001:0000e5b6       ?getProtoType@XMLAttDef@xercesc_3_1@@UBEPAVXProtoType@2@XZ 1200f5b6 f   XMLAttDef.obj
 0001:0000e5bc       ?serialize@XMLAttDef@xercesc_3_1@@UAEXAAVXSerializeEngine@2@@Z 1200f5bc f   XMLAttDef.obj
 0001:0000e67b       ?ensureCapacity@XMLBuffer@xercesc_3_1@@AAEXK@Z 1200f67b f   XMLBuffer.obj
 0001:0000e715       ??1XMLDTDDescription@xercesc_3_1@@UAE@XZ 1200f715 f   XMLDTDDescription.obj
 0001:0000e715       ??1XMLSchemaDescription@xercesc_3_1@@UAE@XZ 1200f715 f   XMLSchemaDescription.obj
 0001:0000e715       ??1XMLAttDefList@xercesc_3_1@@UAE@XZ 1200f715 f   DTDAttDefList.obj
 0001:0000e715       ??1XMLNumber@xercesc_3_1@@UAE@XZ 1200f715 f   XMLNumber.obj
 0001:0000e715       ??1Grammar@xercesc_3_1@@UAE@XZ 1200f715 f   DTDGrammar.obj
 0001:0000e715       ??1XSerializable@xercesc_3_1@@UAE@XZ 1200f715 f   KVStringPair.obj
 0001:0000e71c       ??5xercesc_3_1@@YAAAVXSerializeEngine@0@AAV10@AAPAVQName@0@@Z 1200f71c f i XMLElementDecl.obj
 0001:0000e735       ??5xercesc_3_1@@YAAAVXSerializeEngine@0@AAV10@AAPAVSchemaElementDecl@0@@Z 1200f735 f i XMLElementDecl.obj
 0001:0000e74e       ??5xercesc_3_1@@YAAAVXSerializeEngine@0@AAV10@AAPAVDTDElementDecl@0@@Z 1200f74e f i XMLElementDecl.obj
 0001:0000e767       ??1XMLElementDecl@xercesc_3_1@@UAE@XZ 1200f767 f   XMLElementDecl.obj
 0001:0000e7a2       ??_EXMLElementDecl@xercesc_3_1@@UAEPAXI@Z 1200f7a2 f i XMLElementDecl.obj
 0001:0000e7a2       ??_GXMLElementDecl@xercesc_3_1@@UAEPAXI@Z 1200f7a2 f i XMLElementDecl.obj
 0001:0000e7be       ?setElementName@XMLElementDecl@xercesc_3_1@@QAEXQBG0H@Z 1200f7be f   XMLElementDecl.obj
 0001:0000e81f       ?setElementName@XMLElementDecl@xercesc_3_1@@QAEXQBGH@Z 1200f81f f   XMLElementDecl.obj
 0001:0000e87a       ??0XMLElementDecl@xercesc_3_1@@IAE@QAVMemoryManager@1@@Z 1200f87a f   XMLElementDecl.obj
 0001:0000e896       ?getProtoType@XMLElementDecl@xercesc_3_1@@UBEPAVXProtoType@2@XZ 1200f896 f   XMLElementDecl.obj
 0001:0000e89c       ?serialize@XMLElementDecl@xercesc_3_1@@UAEXAAVXSerializeEngine@2@@Z 1200f89c f   XMLElementDecl.obj
 0001:0000e912       ?storeElementDecl@XMLElementDecl@xercesc_3_1@@SAXAAVXSerializeEngine@2@QAV12@@Z 1200f912 f   XMLElementDecl.obj
 0001:0000e93e       ?loadElementDecl@XMLElementDecl@xercesc_3_1@@SAPAV12@AAVXSerializeEngine@2@@Z 1200f93e f   XMLElementDecl.obj
 0001:0000e97e       ??0XMLEntityDecl@xercesc_3_1@@QAE@QAVMemoryManager@1@@Z 1200f97e f   XMLEntityDecl.obj
 0001:0000e9ab       ??_EXMLEntityDecl@xercesc_3_1@@UAEPAXI@Z 1200f9ab f i XMLEntityDecl.obj
 0001:0000e9ab       ??_GXMLEntityDecl@xercesc_3_1@@UAEPAXI@Z 1200f9ab f i XMLEntityDecl.obj
 0001:0000e9c7       ??1XMLEntityDecl@xercesc_3_1@@UAE@XZ 1200f9c7 f   XMLEntityDecl.obj
 0001:0000e9fa       ?cleanUp@XMLEntityDecl@xercesc_3_1@@AAEXXZ 1200f9fa f   XMLEntityDecl.obj
 0001:0000ea41       ?getProtoType@XMLEntityDecl@xercesc_3_1@@UBEPAVXProtoType@2@XZ 1200fa41 f   XMLEntityDecl.obj
 0001:0000ea47       ?serialize@XMLEntityDecl@xercesc_3_1@@UAEXAAVXSerializeEngine@2@@Z 1200fa47 f   XMLEntityDecl.obj
 0001:0000eb13       ??0NoSuchElementException@xercesc_3_1@@QAE@QBD_KW4Codes@XMLExcepts@1@PAVMemoryManager@1@@Z 1200fb13 f i XMLGrammarPoolImpl.obj
 0001:0000eb52       ??0NoSuchElementException@xercesc_3_1@@QAE@ABV01@@Z 1200fb52 f i XMLGrammarPoolImpl.obj
 0001:0000eb6a       ??1NoSuchElementException@xercesc_3_1@@UAE@XZ 1200fb6a f i XMLGrammarPoolImpl.obj
 0001:0000eb75       ?duplicate@NoSuchElementException@xercesc_3_1@@UBEPAVXMLException@2@XZ 1200fb75 f i XMLGrammarPoolImpl.obj
 0001:0000ebb1       ?getType@NoSuchElementException@xercesc_3_1@@UBEPBGXZ 1200fbb1 f i XMLGrammarPoolImpl.obj
 0001:0000ebb7       ??_GNoSuchElementException@xercesc_3_1@@UAEPAXI@Z 1200fbb7 f i XMLGrammarPoolImpl.obj
 0001:0000ebb7       ??_ENoSuchElementException@xercesc_3_1@@UAEPAXI@Z 1200fbb7 f i XMLGrammarPoolImpl.obj
 0001:0000ebd3       ??0XSerializationException@xercesc_3_1@@QAE@QBD_KW4Codes@XMLExcepts@1@PAVMemoryManager@1@@Z 1200fbd3 f i XMLGrammarPoolImpl.obj
 0001:0000ec12       ??0XSerializationException@xercesc_3_1@@QAE@ABV01@@Z 1200fc12 f i XMLGrammarPoolImpl.obj
 0001:0000ec2a       ??0XSerializationException@xercesc_3_1@@QAE@QBD_KW4Codes@XMLExcepts@1@QBG333PAVMemoryManager@1@@Z 1200fc2a f i XMLGrammarPoolImpl.obj
 0001:0000ec75       ??1XSerializationException@xercesc_3_1@@UAE@XZ 1200fc75 f i XMLGrammarPoolImpl.obj
 0001:0000ec80       ?duplicate@XSerializationException@xercesc_3_1@@UBEPAVXMLException@2@XZ 1200fc80 f i XMLGrammarPoolImpl.obj
 0001:0000ecbc       ?getType@XSerializationException@xercesc_3_1@@UBEPBGXZ 1200fcbc f i XMLGrammarPoolImpl.obj
 0001:0000ecc2       ??_EXSerializationException@xercesc_3_1@@UAEPAXI@Z 1200fcc2 f i XMLGrammarPoolImpl.obj
 0001:0000ecc2       ??_GXSerializationException@xercesc_3_1@@UAEPAXI@Z 1200fcc2 f i XMLGrammarPoolImpl.obj
 0001:0000ecde       ??0XMLNotationDecl@xercesc_3_1@@QAE@QAVMemoryManager@1@@Z 1200fcde f   XMLNotationDecl.obj
 0001:0000ed02       ??_EXMLNotationDecl@xercesc_3_1@@UAEPAXI@Z 1200fd02 f i XMLNotationDecl.obj
 0001:0000ed02       ??_GXMLNotationDecl@xercesc_3_1@@UAEPAXI@Z 1200fd02 f i XMLNotationDecl.obj
 0001:0000ed1f       ??1XMLNotationDecl@xercesc_3_1@@UAE@XZ 1200fd1f f   XMLNotationDecl.obj
 0001:0000ed53       ?cleanUp@XMLNotationDecl@xercesc_3_1@@AAEXXZ 1200fd53 f   XMLNotationDecl.obj
 0001:0000ed84       ?createObject@XMLNotationDecl@xercesc_3_1@@SAPAVXSerializable@2@PAVMemoryManager@2@@Z 1200fd84 f   XMLNotationDecl.obj
 0001:0000eda1       ?getProtoType@XMLNotationDecl@xercesc_3_1@@UBEPAVXProtoType@2@XZ 1200fda1 f   XMLNotationDecl.obj
 0001:0000eda7       ?serialize@XMLNotationDecl@xercesc_3_1@@UAEXAAVXSerializeEngine@2@@Z 1200fda7 f   XMLNotationDecl.obj
 0001:0000ee35       ??_EXMLRefInfo@xercesc_3_1@@UAEPAXI@Z 1200fe35 f i XMLRefInfo.obj
 0001:0000ee35       ??_GXMLRefInfo@xercesc_3_1@@UAEPAXI@Z 1200fe35 f i XMLRefInfo.obj
 0001:0000ee52       ??1XMLRefInfo@xercesc_3_1@@UAE@XZ 1200fe52 f i XMLRefInfo.obj
 0001:0000ee8a       ?createObject@XMLRefInfo@xercesc_3_1@@SAPAVXSerializable@2@PAVMemoryManager@2@@Z 1200fe8a f   XMLRefInfo.obj
 0001:0000eea7       ?getProtoType@XMLRefInfo@xercesc_3_1@@UBEPAVXProtoType@2@XZ 1200fea7 f   XMLRefInfo.obj
 0001:0000eead       ?serialize@XMLRefInfo@xercesc_3_1@@UAEXAAVXSerializeEngine@2@@Z 1200fead f   XMLRefInfo.obj
 0001:0000ef08       ??0XMLRefInfo@xercesc_3_1@@QAE@QAVMemoryManager@1@@Z 1200ff08 f   XMLRefInfo.obj
 0001:0000ef23       ?isFatal@XMLValid@xercesc_3_1@@SA_NW4Codes@12@@Z 1200ff23 f i XMLValidator.obj
 0001:0000ef38       ?isError@XMLValid@xercesc_3_1@@SA_NW4Codes@12@@Z 1200ff38 f i XMLValidator.obj
 0001:0000ef4b       ?errorType@XMLValid@xercesc_3_1@@SA?AW4ErrTypes@XMLErrorReporter@2@W4Codes@12@@Z 1200ff4b f i XMLValidator.obj
 0001:0000ef78       ?emitError@XMLValidator@xercesc_3_1@@QAEXW4Codes@XMLValid@2@QBG111@Z 1200ff78 f   XMLValidator.obj
 0001:0000f097       ??5xercesc_3_1@@YAAAVXSerializeEngine@0@AAV10@AAPAVXSAnnotation@0@@Z 12010097 f i XSAnnotation.obj
 0001:0000f0b0       ??_GXSAnnotation@xercesc_3_1@@UAEPAXI@Z 120100b0 f i XSAnnotation.obj
 0001:0000f0b0       ??_EXSAnnotation@xercesc_3_1@@UAEPAXI@Z 120100b0 f i XSAnnotation.obj
 0001:0000f0cd       ??0XSAnnotation@xercesc_3_1@@QAE@QAVMemoryManager@1@@Z 120100cd f   XSAnnotation.obj
 0001:0000f124       ??1XSAnnotation@xercesc_3_1@@UAE@XZ 12010124 f   XSAnnotation.obj
 0001:0000f185       ?createObject@XSAnnotation@xercesc_3_1@@SAPAVXSerializable@2@PAVMemoryManager@2@@Z 12010185 f   XSAnnotation.obj
 0001:0000f1c0       ?getProtoType@XSAnnotation@xercesc_3_1@@UBEPAVXProtoType@2@XZ 120101c0 f   XSAnnotation.obj
 0001:0000f1c6       ?serialize@XSAnnotation@xercesc_3_1@@UAEXAAVXSerializeEngine@2@@Z 120101c6 f   XSAnnotation.obj
 0001:0000f24a       ??_EXSAnnotation@xercesc_3_1@@W3AEPAXI@Z 1201024a f i XSAnnotation.obj
 0001:0000f252       ??1?$XMLEnumerator@VSchemaElementDecl@xercesc_3_1@@@xercesc_3_1@@UAE@XZ 12010252 f i XSModel.obj
 0001:0000f259       ??1?$XMLEnumerator@VDatatypeValidator@xercesc_3_1@@@xercesc_3_1@@UAE@XZ 12010259 f i XSModel.obj
 0001:0000f260       ??1?$XMLEnumerator@VXMLAttDef@xercesc_3_1@@@xercesc_3_1@@UAE@XZ 12010260 f i XSModel.obj
 0001:0000f267       ??1?$XMLEnumerator@VComplexTypeInfo@xercesc_3_1@@@xercesc_3_1@@UAE@XZ 12010267 f i XSModel.obj
 0001:0000f26e       ??1?$XMLEnumerator@VXercesAttGroupInfo@xercesc_3_1@@@xercesc_3_1@@UAE@XZ 1201026e f i XSModel.obj
 0001:0000f275       ??1?$XMLEnumerator@VXercesGroupInfo@xercesc_3_1@@@xercesc_3_1@@UAE@XZ 12010275 f i XSModel.obj
 0001:0000f27c       ??_G?$XMLEnumerator@VSchemaElementDecl@xercesc_3_1@@@xercesc_3_1@@UAEPAXI@Z 1201027c f i XSModel.obj
 0001:0000f27c       ??_E?$XMLEnumerator@VSchemaElementDecl@xercesc_3_1@@@xercesc_3_1@@UAEPAXI@Z 1201027c f i XSModel.obj
 0001:0000f299       ??_E?$XMLEnumerator@VXMLNotationDecl@xercesc_3_1@@@xercesc_3_1@@UAEPAXI@Z 12010299 f i XSModel.obj
 0001:0000f299       ??_G?$XMLEnumerator@VXMLNotationDecl@xercesc_3_1@@@xercesc_3_1@@UAEPAXI@Z 12010299 f i XSModel.obj
 0001:0000f2b6       ??_G?$XMLEnumerator@VDatatypeValidator@xercesc_3_1@@@xercesc_3_1@@UAEPAXI@Z 120102b6 f i XSModel.obj
 0001:0000f2b6       ??_E?$XMLEnumerator@VDatatypeValidator@xercesc_3_1@@@xercesc_3_1@@UAEPAXI@Z 120102b6 f i XSModel.obj
 0001:0000f2d3       ??_E?$XMLEnumerator@VXMLAttDef@xercesc_3_1@@@xercesc_3_1@@UAEPAXI@Z 120102d3 f i XSModel.obj
 0001:0000f2d3       ??_G?$XMLEnumerator@VXMLAttDef@xercesc_3_1@@@xercesc_3_1@@UAEPAXI@Z 120102d3 f i XSModel.obj
 0001:0000f2f0       ??_G?$XMLEnumerator@VComplexTypeInfo@xercesc_3_1@@@xercesc_3_1@@UAEPAXI@Z 120102f0 f i XSModel.obj
 0001:0000f2f0       ??_E?$XMLEnumerator@VComplexTypeInfo@xercesc_3_1@@@xercesc_3_1@@UAEPAXI@Z 120102f0 f i XSModel.obj
 0001:0000f30d       ??_E?$XMLEnumerator@VXercesAttGroupInfo@xercesc_3_1@@@xercesc_3_1@@UAEPAXI@Z 1201030d f i XSModel.obj
 0001:0000f30d       ??_G?$XMLEnumerator@VXercesAttGroupInfo@xercesc_3_1@@@xercesc_3_1@@UAEPAXI@Z 1201030d f i XSModel.obj
 0001:0000f32a       ??_E?$XMLEnumerator@VXercesGroupInfo@xercesc_3_1@@@xercesc_3_1@@UAEPAXI@Z 1201032a f i XSModel.obj
 0001:0000f32a       ??_G?$XMLEnumerator@VXercesGroupInfo@xercesc_3_1@@@xercesc_3_1@@UAEPAXI@Z 1201032a f i XSModel.obj
 0001:0000f347       ??0?$RefHash3KeysIdPoolEnumerator@VSchemaElementDecl@xercesc_3_1@@UStringHasher@2@@xercesc_3_1@@QAE@QAV?$RefHash3KeysIdPool@VSchemaElementDecl@xercesc_3_1@@UStringHasher@2@@1@_NQAVMemoryManager@1@@Z 12010347 f i XSModel.obj
 0001:0000f3bd       ??1?$RefHash3KeysIdPoolEnumerator@VSchemaElementDecl@xercesc_3_1@@UStringHasher@2@@xercesc_3_1@@UAE@XZ 120103bd f i XSModel.obj
 0001:0000f400       ?hasMoreElements@?$RefHash3KeysIdPoolEnumerator@VSchemaElementDecl@xercesc_3_1@@UStringHasher@2@@xercesc_3_1@@UBE_NXZ 12010400 f i XSModel.obj
 0001:0000f415       ?nextElement@?$RefHash3KeysIdPoolEnumerator@VSchemaElementDecl@xercesc_3_1@@UStringHasher@2@@xercesc_3_1@@UAEAAVSchemaElementDecl@2@XZ 12010415 f i XSModel.obj
 0001:0000f45f       ?Reset@?$RefHash3KeysIdPoolEnumerator@VSchemaElementDecl@xercesc_3_1@@UStringHasher@2@@xercesc_3_1@@UAEXXZ 1201045f f i XSModel.obj
 0001:0000f46e       ??1?$NameIdPoolEnumerator@VXMLNotationDecl@xercesc_3_1@@@xercesc_3_1@@UAE@XZ 1201046e f i XSModel.obj
 0001:0000f475       ?Reset@?$NameIdPoolEnumerator@VDTDEntityDecl@xercesc_3_1@@@xercesc_3_1@@UAEXXZ 12010475 f i XTemplateSerializer.obj
 0001:0000f475       ?Reset@?$NameIdPoolEnumerator@VDTDElementDecl@xercesc_3_1@@@xercesc_3_1@@UAEXXZ 12010475 f i XTemplateSerializer.obj
 0001:0000f475       ?Reset@?$NameIdPoolEnumerator@VXMLNotationDecl@xercesc_3_1@@@xercesc_3_1@@UAEXXZ 12010475 f i XSModel.obj
 0001:0000f484       ??0?$RefHashTableOfEnumerator@VDatatypeValidator@xercesc_3_1@@UStringHasher@2@@xercesc_3_1@@QAE@QAV?$RefHashTableOf@VDatatypeValidator@xercesc_3_1@@UStringHasher@2@@1@_NQAVMemoryManager@1@@Z 12010484 f i XSModel.obj
 0001:0000f4f3       ??1?$RefHashTableOfEnumerator@VDatatypeValidator@xercesc_3_1@@UStringHasher@2@@xercesc_3_1@@UAE@XZ 120104f3 f i XSModel.obj
 0001:0000f536       ?hasMoreElements@?$RefHashTableOfEnumerator@VXMLAttDef@xercesc_3_1@@UStringHasher@2@@xercesc_3_1@@UBE_NXZ 12010536 f i XSModel.obj
 0001:0000f536       ?hasMoreElements@?$RefHash2KeysTableOfEnumerator@V?$ValueVectorOf@PAVSchemaElementDecl@xercesc_3_1@@@xercesc_3_1@@UStringHasher@2@@xercesc_3_1@@UBE_NXZ 12010536 f i XTemplateSerializer.obj
 0001:0000f536       ?hasMoreElements@?$RefHashTableOfEnumerator@VDatatypeValidator@xercesc_3_1@@UStringHasher@2@@xercesc_3_1@@UBE_NXZ 12010536 f i XSModel.obj
 0001:0000f536       ?hasMoreElements@?$RefHashTableOfEnumerator@VDTDAttDef@xercesc_3_1@@UStringHasher@2@@xercesc_3_1@@UBE_NXZ 12010536 f i XTemplateSerializer.obj
 0001:0000f536       ?hasMoreElements@?$RefHashTableOfEnumerator@VKVStringPair@xercesc_3_1@@UStringHasher@2@@xercesc_3_1@@UBE_NXZ 12010536 f i XSObjectFactory.obj
 0001:0000f536       ?hasMoreElements@?$RefHashTableOfEnumerator@VXSAnnotation@xercesc_3_1@@UPtrHasher@2@@xercesc_3_1@@UBE_NXZ 12010536 f i XTemplateSerializer.obj
 0001:0000f536       ?hasMoreElements@?$RefHash2KeysTableOfEnumerator@VSchemaAttDef@xercesc_3_1@@UStringHasher@2@@xercesc_3_1@@UBE_NXZ 12010536 f i XTemplateSerializer.obj
 0001:0000f536       ?hasMoreElements@?$RefHashTableOfEnumerator@VXercesAttGroupInfo@xercesc_3_1@@UStringHasher@2@@xercesc_3_1@@UBE_NXZ 12010536 f i XSModel.obj
 0001:0000f536       ?hasMoreElements@?$RefHashTableOfEnumerator@VXercesGroupInfo@xercesc_3_1@@UStringHasher@2@@xercesc_3_1@@UBE_NXZ 12010536 f i XSModel.obj
 0001:0000f536       ?hasMoreElements@?$RefHashTableOfEnumerator@VComplexTypeInfo@xercesc_3_1@@UStringHasher@2@@xercesc_3_1@@UBE_NXZ 12010536 f i XSModel.obj
 0001:0000f54d       ??0?$RefHashTableOfEnumerator@VXMLAttDef@xercesc_3_1@@UStringHasher@2@@xercesc_3_1@@QAE@QAV?$RefHashTableOf@VXMLAttDef@xercesc_3_1@@UStringHasher@2@@1@_NQAVMemoryManager@1@@Z 1201054d f i XSModel.obj
 0001:0000f5bc       ??1?$RefHashTableOfEnumerator@VXMLAttDef@xercesc_3_1@@UStringHasher@2@@xercesc_3_1@@UAE@XZ 120105bc f i XSModel.obj
 0001:0000f5ff       ?nextElement@?$RefHashTableOfEnumerator@VDatatypeValidator@xercesc_3_1@@UStringHasher@2@@xercesc_3_1@@UAEAAVDatatypeValidator@2@XZ 120105ff f i XSModel.obj
 0001:0000f5ff       ?nextElement@?$RefHashTableOfEnumerator@VXSAnnotation@xercesc_3_1@@UPtrHasher@2@@xercesc_3_1@@UAEAAVXSAnnotation@2@XZ 120105ff f i XTemplateSerializer.obj
 0001:0000f5ff       ?nextElement@?$RefHashTableOfEnumerator@VKVStringPair@xercesc_3_1@@UStringHasher@2@@xercesc_3_1@@UAEAAVKVStringPair@2@XZ 120105ff f i XSObjectFactory.obj
 0001:0000f5ff       ?nextElement@?$RefHashTableOfEnumerator@VXercesGroupInfo@xercesc_3_1@@UStringHasher@2@@xercesc_3_1@@UAEAAVXercesGroupInfo@2@XZ 120105ff f i XSModel.obj
 0001:0000f5ff       ?nextElement@?$RefHashTableOfEnumerator@VXercesAttGroupInfo@xercesc_3_1@@UStringHasher@2@@xercesc_3_1@@UAEAAVXercesAttGroupInfo@2@XZ 120105ff f i XSModel.obj
 0001:0000f5ff       ?nextElement@?$RefHashTableOfEnumerator@VDTDAttDef@xercesc_3_1@@UStringHasher@2@@xercesc_3_1@@UAEAAVDTDAttDef@2@XZ 120105ff f i XTemplateSerializer.obj
 0001:0000f5ff       ?nextElement@?$RefHashTableOfEnumerator@VXMLAttDef@xercesc_3_1@@UStringHasher@2@@xercesc_3_1@@UAEAAVXMLAttDef@2@XZ 120105ff f i XSModel.obj
 0001:0000f5ff       ?nextElement@?$RefHashTableOfEnumerator@VComplexTypeInfo@xercesc_3_1@@UStringHasher@2@@xercesc_3_1@@UAEAAVComplexTypeInfo@2@XZ 120105ff f i XSModel.obj
 0001:0000f64a       ??0?$RefHashTableOfEnumerator@VComplexTypeInfo@xercesc_3_1@@UStringHasher@2@@xercesc_3_1@@QAE@QAV?$RefHashTableOf@VComplexTypeInfo@xercesc_3_1@@UStringHasher@2@@1@_NQAVMemoryManager@1@@Z 1201064a f i XSModel.obj
 0001:0000f6b9       ??1?$RefHashTableOfEnumerator@VComplexTypeInfo@xercesc_3_1@@UStringHasher@2@@xercesc_3_1@@UAE@XZ 120106b9 f i XSModel.obj
 0001:0000f6fc       ??0?$RefHashTableOfEnumerator@VXercesAttGroupInfo@xercesc_3_1@@UStringHasher@2@@xercesc_3_1@@QAE@QAV?$RefHashTableOf@VXercesAttGroupInfo@xercesc_3_1@@UStringHasher@2@@1@_NQAVMemoryManager@1@@Z 120106fc f i XSModel.obj
 0001:0000f76b       ??1?$RefHashTableOfEnumerator@VXercesAttGroupInfo@xercesc_3_1@@UStringHasher@2@@xercesc_3_1@@UAE@XZ 1201076b f i XSModel.obj
 0001:0000f7ae       ??0?$RefHashTableOfEnumerator@VXercesGroupInfo@xercesc_3_1@@UStringHasher@2@@xercesc_3_1@@QAE@QAV?$RefHashTableOf@VXercesGroupInfo@xercesc_3_1@@UStringHasher@2@@1@_NQAVMemoryManager@1@@Z 120107ae f i XSModel.obj
 0001:0000f81d       ??1?$RefHashTableOfEnumerator@VXercesGroupInfo@xercesc_3_1@@UStringHasher@2@@xercesc_3_1@@UAE@XZ 1201081d f i XSModel.obj
 0001:0000f860       ??_E?$RefHash3KeysIdPoolEnumerator@VSchemaElementDecl@xercesc_3_1@@UStringHasher@2@@xercesc_3_1@@UAEPAXI@Z 12010860 f i XSModel.obj
 0001:0000f860       ??_G?$RefHash3KeysIdPoolEnumerator@VSchemaElementDecl@xercesc_3_1@@UStringHasher@2@@xercesc_3_1@@UAEPAXI@Z 12010860 f i XSModel.obj
 0001:0000f87c       ??_G?$RefHash3KeysIdPool@VSchemaElementDecl@xercesc_3_1@@UStringHasher@2@@xercesc_3_1@@QAEPAXI@Z 1201087c f i XSModel.obj
 0001:0000f89c       ??_E?$NameIdPoolEnumerator@VXMLNotationDecl@xercesc_3_1@@@xercesc_3_1@@UAEPAXI@Z 1201089c f i XSModel.obj
 0001:0000f89c       ??_G?$NameIdPoolEnumerator@VXMLNotationDecl@xercesc_3_1@@@xercesc_3_1@@UAEPAXI@Z 1201089c f i XSModel.obj
 0001:0000f8b8       ??_E?$RefHashTableOfEnumerator@VDatatypeValidator@xercesc_3_1@@UStringHasher@2@@xercesc_3_1@@UAEPAXI@Z 120108b8 f i XSModel.obj
 0001:0000f8b8       ??_G?$RefHashTableOfEnumerator@VDatatypeValidator@xercesc_3_1@@UStringHasher@2@@xercesc_3_1@@UAEPAXI@Z 120108b8 f i XSModel.obj
 0001:0000f8d4       ??_G?$RefHashTableOfEnumerator@VXMLAttDef@xercesc_3_1@@UStringHasher@2@@xercesc_3_1@@UAEPAXI@Z 120108d4 f i XSModel.obj
 0001:0000f8d4       ??_E?$RefHashTableOfEnumerator@VXMLAttDef@xercesc_3_1@@UStringHasher@2@@xercesc_3_1@@UAEPAXI@Z 120108d4 f i XSModel.obj
 0001:0000f8f0       ??_E?$RefHashTableOfEnumerator@VComplexTypeInfo@xercesc_3_1@@UStringHasher@2@@xercesc_3_1@@UAEPAXI@Z 120108f0 f i XSModel.obj
 0001:0000f8f0       ??_G?$RefHashTableOfEnumerator@VComplexTypeInfo@xercesc_3_1@@UStringHasher@2@@xercesc_3_1@@UAEPAXI@Z 120108f0 f i XSModel.obj
 0001:0000f90c       ??_G?$RefHashTableOfEnumerator@VXercesAttGroupInfo@xercesc_3_1@@UStringHasher@2@@xercesc_3_1@@UAEPAXI@Z 1201090c f i XSModel.obj
 0001:0000f90c       ??_E?$RefHashTableOfEnumerator@VXercesAttGroupInfo@xercesc_3_1@@UStringHasher@2@@xercesc_3_1@@UAEPAXI@Z 1201090c f i XSModel.obj
 0001:0000f928       ??_G?$RefHashTableOfEnumerator@VXercesGroupInfo@xercesc_3_1@@UStringHasher@2@@xercesc_3_1@@UAEPAXI@Z 12010928 f i XSModel.obj
 0001:0000f928       ??_E?$RefHashTableOfEnumerator@VXercesGroupInfo@xercesc_3_1@@UStringHasher@2@@xercesc_3_1@@UAEPAXI@Z 12010928 f i XSModel.obj
 0001:0000f944       ?resetKey@?$RefHash3KeysIdPoolEnumerator@VSchemaElementDecl@xercesc_3_1@@UStringHasher@2@@xercesc_3_1@@QAEXXZ 12010944 f i XSModel.obj
 0001:0000f951       ??1?$RefHash3KeysIdPool@VSchemaElementDecl@xercesc_3_1@@UStringHasher@2@@xercesc_3_1@@QAE@XZ 12010951 f i XSModel.obj
 0001:0000f977       ?removeAll@?$RefHashTableOf@VXercesGroupInfo@xercesc_3_1@@UStringHasher@2@@xercesc_3_1@@QAEXXZ 12010977 f i XSModel.obj
 0001:0000f977       ?removeAll@?$RefHashTableOf@VXMLAttDef@xercesc_3_1@@UStringHasher@2@@xercesc_3_1@@QAEXXZ 12010977 f i XSModel.obj
 0001:0000f977       ?removeAll@?$RefHashTableOf@VDatatypeValidator@xercesc_3_1@@UStringHasher@2@@xercesc_3_1@@QAEXXZ 12010977 f i XSModel.obj
 0001:0000f977       ?removeAll@?$RefHashTableOf@VDTDAttDef@xercesc_3_1@@UStringHasher@2@@xercesc_3_1@@QAEXXZ 12010977 f i XTemplateSerializer.obj
 0001:0000f977       ?removeAll@?$RefHashTableOf@VDTDEntityDecl@xercesc_3_1@@UStringHasher@2@@xercesc_3_1@@QAEXXZ 12010977 f i XTemplateSerializer.obj
 0001:0000f977       ?removeAll@?$RefHashTableOf@VXMLNotationDecl@xercesc_3_1@@UStringHasher@2@@xercesc_3_1@@QAEXXZ 12010977 f i XTemplateSerializer.obj
 0001:0000f977       ?removeAll@?$RefHashTableOf@VDTDElementDecl@xercesc_3_1@@UStringHasher@2@@xercesc_3_1@@QAEXXZ 12010977 f i DGXMLScanner.obj
 0001:0000f977       ?removeAll@?$RefHashTableOf@VXSAnnotation@xercesc_3_1@@UPtrHasher@2@@xercesc_3_1@@QAEXXZ 12010977 f i XTemplateSerializer.obj
 0001:0000f977       ?removeAll@?$RefHashTableOf@VXercesAttGroupInfo@xercesc_3_1@@UStringHasher@2@@xercesc_3_1@@QAEXXZ 12010977 f i XSModel.obj
 0001:0000f977       ?removeAll@?$RefHashTableOf@VKVStringPair@xercesc_3_1@@UStringHasher@2@@xercesc_3_1@@QAEXXZ 12010977 f i XSObjectFactory.obj
 0001:0000f977       ?removeAll@?$RefHashTableOf@VComplexTypeInfo@xercesc_3_1@@UStringHasher@2@@xercesc_3_1@@QAEXXZ 12010977 f i XSModel.obj
 0001:0000f9cd       ?findNext@?$RefHash3KeysIdPoolEnumerator@VSchemaElementDecl@xercesc_3_1@@UStringHasher@2@@xercesc_3_1@@AAEXXZ 120109cd f i XSModel.obj
 0001:0000fa1c       ?removeAll@?$RefHash3KeysIdPool@VSchemaElementDecl@xercesc_3_1@@UStringHasher@2@@xercesc_3_1@@QAEXXZ 12010a1c f i XSModel.obj
 0001:0000fa72       ??_GXSObject@xercesc_3_1@@UAEPAXI@Z 12010a72 f i XSObject.obj
 0001:0000fa72       ??_EXSObject@xercesc_3_1@@UAEPAXI@Z 12010a72 f i XSObject.obj
 0001:0000fa8f       ??1XSObject@xercesc_3_1@@UAE@XZ 12010a8f f   XSObject.obj
 0001:0000fa96       ?elementAt@?$ValueVectorOf@PAVQName@xercesc_3_1@@@xercesc_3_1@@QAEAAPAVQName@2@K@Z 12010a96 f i AllContentModel.obj
 0001:0000fa96       ?elementAt@?$ValueVectorOf@I@xercesc_3_1@@QAEAAIK@Z 12010a96 f i XSWildcard.obj
 0001:0000fa96       ?elementAt@?$ValueVectorOf@PAX@xercesc_3_1@@QAEAAPAXK@Z 12010a96 f i XSerializeEngine.obj
 0001:0000fa96       ?elementAt@?$ValueVectorOf@W4NodeTypes@ContentSpecNode@xercesc_3_1@@@xercesc_3_1@@QAEAAW4NodeTypes@ContentSpecNode@2@K@Z 12010a96 f i MixedContentModel.obj
 0001:0000fa96       ?elementAt@?$ValueVectorOf@PAVContentSpecNode@xercesc_3_1@@@xercesc_3_1@@QAEAAPAVContentSpecNode@2@K@Z 12010a96 f i ContentSpecNode.obj
 0001:0000fa96       ?elementAt@?$ValueVectorOf@PAVSchemaElementDecl@xercesc_3_1@@@xercesc_3_1@@QAEAAPAVSchemaElementDecl@2@K@Z 12010a96 f i XTemplateSerializer.obj
 0001:0000fad1       ??0IllegalArgumentException@xercesc_3_1@@QAE@QBD_KW4Codes@XMLExcepts@1@QBG333PAVMemoryManager@1@@Z 12010ad1 f i DGXMLScanner.obj
 0001:0000fb1c       ??_EDTDEntityDecl@xercesc_3_1@@UAEPAXI@Z 12010b1c f i DGXMLScanner.obj
 0001:0000fb1c       ??_GDTDEntityDecl@xercesc_3_1@@UAEPAXI@Z 12010b1c f i DGXMLScanner.obj
 0001:0000fb38       ??1DTDEntityDecl@xercesc_3_1@@UAE@XZ 12010b38 f i DGXMLScanner.obj
 0001:0000fb43       ?getDeclaredInIntSubset@DTDEntityDecl@xercesc_3_1@@UBE_NXZ 12010b43 f i DGXMLScanner.obj
 0001:0000fb47       ?getIsParameter@DTDEntityDecl@xercesc_3_1@@UBE_NXZ 12010b47 f i DGXMLScanner.obj
 0001:0000fb4b       ?getIsSpecialChar@DTDEntityDecl@xercesc_3_1@@UBE_NXZ 12010b4b f i DGXMLScanner.obj
 0001:0000fb4f       ??0?$NameIdPool@VXMLNotationDecl@xercesc_3_1@@@xercesc_3_1@@QAE@KKQAVMemoryManager@1@@Z 12010b4f f i XTemplateSerializer.obj
 0001:0000fb4f       ??0?$NameIdPool@VDTDEntityDecl@xercesc_3_1@@@xercesc_3_1@@QAE@KKQAVMemoryManager@1@@Z 12010b4f f i XTemplateSerializer.obj
 0001:0000fb4f       ??0?$NameIdPool@VDTDElementDecl@xercesc_3_1@@@xercesc_3_1@@QAE@KKQAVMemoryManager@1@@Z 12010b4f f i DGXMLScanner.obj
 0001:0000fbd8       ?put@?$NameIdPool@VDTDElementDecl@xercesc_3_1@@@xercesc_3_1@@QAEKQAVDTDElementDecl@2@@Z 12010bd8 f i DGXMLScanner.obj
 0001:0000fcad       ?findBucketElem@?$RefHashTableOf@VRangeTokenElemMap@xercesc_3_1@@UStringHasher@2@@xercesc_3_1@@ABEPBU?$RefHashTableBucketElem@VRangeTokenElemMap@xercesc_3_1@@@2@QBXAAK@Z 12010cad f i RangeTokenMap.obj
 0001:0000fcad       ?findBucketElem@?$RefHashTableOf@UPoolElem@XMLStringPool@xercesc_3_1@@UStringHasher@3@@xercesc_3_1@@AAEPAU?$RefHashTableBucketElem@UPoolElem@XMLStringPool@xercesc_3_1@@@2@QBXAAK@Z 12010cad f i StringPool.obj
 0001:0000fcad       ?findBucketElem@?$RefHashTableOf@VDTDAttDef@xercesc_3_1@@UStringHasher@2@@xercesc_3_1@@AAEPAU?$RefHashTableBucketElem@VDTDAttDef@xercesc_3_1@@@2@QBXAAK@Z 12010cad f i XTemplateSerializer.obj
 0001:0000fcad       ?findBucketElem@?$RefHashTableOf@VKVStringPair@xercesc_3_1@@UStringHasher@2@@xercesc_3_1@@AAEPAU?$RefHashTableBucketElem@VKVStringPair@xercesc_3_1@@@2@QBXAAK@Z 12010cad f i XTemplateSerializer.obj
 0001:0000fcad       ?findBucketElem@?$RefHashTableOf@VXercesAttGroupInfo@xercesc_3_1@@UStringHasher@2@@xercesc_3_1@@AAEPAU?$RefHashTableBucketElem@VXercesAttGroupInfo@xercesc_3_1@@@2@QBXAAK@Z 12010cad f i XTemplateSerializer.obj
 0001:0000fcad       ?findBucketElem@?$RefHashTableOf@VXMLAttDef@xercesc_3_1@@UStringHasher@2@@xercesc_3_1@@AAEPAU?$RefHashTableBucketElem@VXMLAttDef@xercesc_3_1@@@2@QBXAAK@Z 12010cad f i IGXMLScanner2.obj
 0001:0000fcad       ?findBucketElem@?$RefHashTableOf@VDTDEntityDecl@xercesc_3_1@@UStringHasher@2@@xercesc_3_1@@ABEPBU?$RefHashTableBucketElem@VDTDEntityDecl@xercesc_3_1@@@2@QBXAAK@Z 12010cad f i ValidationContextImpl.obj
 0001:0000fcad       ?findBucketElem@?$RefHashTableOf@VXMLNotationDecl@xercesc_3_1@@UStringHasher@2@@xercesc_3_1@@AAEPAU?$RefHashTableBucketElem@VXMLNotationDecl@xercesc_3_1@@@2@QBXAAK@Z 12010cad f i XTemplateSerializer.obj
 0001:0000fcad       ?findBucketElem@?$RefHashTableOf@VDTDElementDecl@xercesc_3_1@@UStringHasher@2@@xercesc_3_1@@ABEPBU?$RefHashTableBucketElem@VDTDElementDecl@xercesc_3_1@@@2@QBXAAK@Z 12010cad f i DGXMLScanner.obj
 0001:0000fcad       ?findBucketElem@?$RefHashTableOf@VXercesGroupInfo@xercesc_3_1@@UStringHasher@2@@xercesc_3_1@@AAEPAU?$RefHashTableBucketElem@VXercesGroupInfo@xercesc_3_1@@@2@QBXAAK@Z 12010cad f i XTemplateSerializer.obj
 0001:0000fcad       ?findBucketElem@?$RefHashTableOf@VDTDElementDecl@xercesc_3_1@@UStringHasher@2@@xercesc_3_1@@AAEPAU?$RefHashTableBucketElem@VDTDElementDecl@xercesc_3_1@@@2@QBXAAK@Z 12010cad f i DGXMLScanner.obj
 0001:0000fcad       ?findBucketElem@?$RefHashTableOf@VComplexTypeInfo@xercesc_3_1@@UStringHasher@2@@xercesc_3_1@@AAEPAU?$RefHashTableBucketElem@VComplexTypeInfo@xercesc_3_1@@@2@QBXAAK@Z 12010cad f i XTemplateSerializer.obj
 0001:0000fcad       ?findBucketElem@?$RefHashTableOf@VRangeFactory@xercesc_3_1@@UStringHasher@2@@xercesc_3_1@@AAEPAU?$RefHashTableBucketElem@VRangeFactory@xercesc_3_1@@@2@QBXAAK@Z 12010cad f i RangeTokenMap.obj
 0001:0000fcad       ?findBucketElem@?$RefHashTableOf@UPoolElem@XMLStringPool@xercesc_3_1@@UStringHasher@3@@xercesc_3_1@@ABEPBU?$RefHashTableBucketElem@UPoolElem@XMLStringPool@xercesc_3_1@@@2@QBXAAK@Z 12010cad f i StringPool.obj
 0001:0000fcad       ?findBucketElem@?$RefHashTableOf@VXMLNotationDecl@xercesc_3_1@@UStringHasher@2@@xercesc_3_1@@ABEPBU?$RefHashTableBucketElem@VXMLNotationDecl@xercesc_3_1@@@2@QBXAAK@Z 12010cad f i XTemplateSerializer.obj
 0001:0000fcad       ?findBucketElem@?$RefHashTableOf@VDTDEntityDecl@xercesc_3_1@@UStringHasher@2@@xercesc_3_1@@AAEPAU?$RefHashTableBucketElem@VDTDEntityDecl@xercesc_3_1@@@2@QBXAAK@Z 12010cad f i DGXMLScanner.obj
 0001:0000fcad       ?findBucketElem@?$RefHashTableOf@VRangeTokenElemMap@xercesc_3_1@@UStringHasher@2@@xercesc_3_1@@AAEPAU?$RefHashTableBucketElem@VRangeTokenElemMap@xercesc_3_1@@@2@QBXAAK@Z 12010cad f i RangeTokenMap.obj
 0001:0000fcad       ?findBucketElem@?$RefHashTableOf@VGrammar@xercesc_3_1@@UStringHasher@2@@xercesc_3_1@@AAEPAU?$RefHashTableBucketElem@VGrammar@xercesc_3_1@@@2@QBXAAK@Z 12010cad f i XMLGrammarPoolImpl.obj
 0001:0000fcad       ?findBucketElem@?$RefHashTableOf@VDatatypeValidator@xercesc_3_1@@UStringHasher@2@@xercesc_3_1@@AAEPAU?$RefHashTableBucketElem@VDatatypeValidator@xercesc_3_1@@@2@QBXAAK@Z 12010cad f i XSModel.obj
 0001:0000fcec       ?getContentModel@ComplexTypeInfo@xercesc_3_1@@QAEPAVXMLContentModel@2@_N@Z 12010cec f i IGXMLScanner.obj
 0001:0000fd0e       ?removeAll@?$NameIdPool@VDTDElementDecl@xercesc_3_1@@@xercesc_3_1@@QAEXXZ 12010d0e f i IGXMLScanner.obj
 0001:0000fd0e       ?removeAll@?$NameIdPool@VDTDEntityDecl@xercesc_3_1@@@xercesc_3_1@@QAEXXZ 12010d0e f i DTDGrammar.obj
 0001:0000fd0e       ?removeAll@?$NameIdPool@VXMLNotationDecl@xercesc_3_1@@@xercesc_3_1@@QAEXXZ 12010d0e f i DTDGrammar.obj
 0001:0000fd23       ??0?$RefHash3KeysIdPool@VSchemaElementDecl@xercesc_3_1@@UStringHasher@2@@xercesc_3_1@@QAE@K_NKQAVMemoryManager@1@@Z 12010d23 f i IGXMLScanner.obj
 0001:0000fd71       ?getByKey@?$RefHash3KeysIdPool@VSchemaElementDecl@xercesc_3_1@@UStringHasher@2@@xercesc_3_1@@QAEPAVSchemaElementDecl@2@QBXHH@Z 12010d71 f i IGXMLScanner.obj
 0001:0000fd93       ?put@?$RefHash3KeysIdPool@VSchemaElementDecl@xercesc_3_1@@UStringHasher@2@@xercesc_3_1@@QAEKPAXHHQAVSchemaElementDecl@2@@Z 12010d93 f i IGXMLScanner.obj
 0001:0000fe93       ?findBucketElem@?$RefHash3KeysIdPool@VSchemaElementDecl@xercesc_3_1@@UStringHasher@2@@xercesc_3_1@@AAEPAU?$RefHash3KeysTableBucketElem@VSchemaElementDecl@xercesc_3_1@@@2@QBXHHAAK@Z 12010e93 f i IGXMLScanner.obj
 0001:0000fee3       ?initialize@?$RefHash3KeysIdPool@VSchemaElementDecl@xercesc_3_1@@UStringHasher@2@@xercesc_3_1@@AAEXK@Z 12010ee3 f i IGXMLScanner.obj
 0001:0000ff3b       ??1?$ValueVectorOf@PAVSchemaElementDecl@xercesc_3_1@@@xercesc_3_1@@QAE@XZ 12010f3b f i XTemplateSerializer.obj
 0001:0000ff3b       ??1?$ValueVectorOf@W4NodeTypes@ContentSpecNode@xercesc_3_1@@@xercesc_3_1@@QAE@XZ 12010f3b f i MixedContentModel.obj
 0001:0000ff3b       ??1?$ValueVectorOf@VformatNodeHolder@xercesc_3_1@@@xercesc_3_1@@QAE@XZ 12010f3b f i ContentSpecNode.obj
 0001:0000ff3b       ??1?$ValueVectorOf@PAVContentSpecNode@xercesc_3_1@@@xercesc_3_1@@QAE@XZ 12010f3b f i ContentSpecNode.obj
 0001:0000ff3b       ??1?$ValueVectorOf@PAVQName@xercesc_3_1@@@xercesc_3_1@@QAE@XZ 12010f3b f i AllContentModel.obj
 0001:0000ff3b       ??1?$ValueVectorOf@URE_RuntimeContext@xercesc_3_1@@@xercesc_3_1@@QAE@XZ 12010f3b f i RegularExpression.obj
 0001:0000ff3b       ??1?$ValueVectorOf@PAX@xercesc_3_1@@QAE@XZ 12010f3b f i XSerializeEngine.obj
 0001:0000ff3b       ??1?$ValueVectorOf@I@xercesc_3_1@@QAE@XZ 12010f3b f i XTemplateSerializer.obj
 0001:0000ff3b       ??1?$ValueVectorOf@_N@xercesc_3_1@@QAE@XZ 12010f3b f i IGXMLScanner.obj
 0001:0000ff47       ?addElement@?$ValueVectorOf@_N@xercesc_3_1@@QAEXAB_N@Z 12010f47 f i IGXMLScanner.obj
 0001:0000ff68       ?elementAt@?$ValueVectorOf@_N@xercesc_3_1@@QAEAA_NK@Z 12010f68 f i IGXMLScanner.obj
 0001:0000ffa2       ?ensureExtraCapacity@?$ValueVectorOf@_N@xercesc_3_1@@QAEXK@Z 12010fa2 f i IGXMLScanner.obj
 0001:00010009       ??0?$ValueVectorOf@_N@xercesc_3_1@@QAE@KQAVMemoryManager@1@_N@Z 12011009 f i IGXMLScanner2.obj
 0001:00010033       ?getLastExtEntityInfo@ReaderMgr@xercesc_3_1@@QBEXAAULastExtEntityInfo@12@@Z 12011033 f   ReaderMgr.obj
 0001:0001009d       ?getLastExtEntity@ReaderMgr@xercesc_3_1@@ABEPBVXMLReader@2@AAPBVXMLEntityDecl@2@@Z 1201109d f   ReaderMgr.obj
 0001:000100f4       ?elementAt@?$RefStackOf@VXMLEntityDecl@xercesc_3_1@@@xercesc_3_1@@QBEPBVXMLEntityDecl@2@K@Z 120110f4 f i ReaderMgr.obj
 0001:000100f4       ?elementAt@?$RefStackOf@VXMLReader@xercesc_3_1@@@xercesc_3_1@@QBEPBVXMLReader@2@K@Z 120110f4 f i ReaderMgr.obj
 0001:0001012b       ?elementAt@?$BaseRefVectorOf@VXMLReader@xercesc_3_1@@@xercesc_3_1@@QBEPBVXMLReader@2@K@Z 1201112b f i ReaderMgr.obj
 0001:0001012b       ?elementAt@?$BaseRefVectorOf@VXMLEntityDecl@xercesc_3_1@@@xercesc_3_1@@QBEPBVXMLEntityDecl@2@K@Z 1201112b f i ReaderMgr.obj
 0001:00010166       ??0InvalidDatatypeValueException@xercesc_3_1@@QAE@ABV01@@Z 12011166 f i ValidationContextImpl.obj
 0001:0001017e       ??0InvalidDatatypeValueException@xercesc_3_1@@QAE@QBD_KW4Codes@XMLExcepts@1@QBG333PAVMemoryManager@1@@Z 1201117e f i ValidationContextImpl.obj
 0001:000101c9       ??1InvalidDatatypeValueException@xercesc_3_1@@UAE@XZ 120111c9 f i ValidationContextImpl.obj
 0001:000101d4       ?duplicate@InvalidDatatypeValueException@xercesc_3_1@@UBEPAVXMLException@2@XZ 120111d4 f i ValidationContextImpl.obj
 0001:00010210       ?getType@InvalidDatatypeValueException@xercesc_3_1@@UBEPBGXZ 12011210 f i ValidationContextImpl.obj
 0001:00010216       ??_EInvalidDatatypeValueException@xercesc_3_1@@UAEPAXI@Z 12011216 f i ValidationContextImpl.obj
 0001:00010216       ??_GInvalidDatatypeValueException@xercesc_3_1@@UAEPAXI@Z 12011216 f i ValidationContextImpl.obj
 0001:00010232       ?equals@XMLString@xercesc_3_1@@SA_NPBD0@Z 12011232 f i XProtoType.obj
 0001:00010279       ?store@XProtoType@xercesc_3_1@@QBEXAAVXSerializeEngine@2@@Z 12011279 f   XProtoType.obj
 0001:0001029f       ?load@XProtoType@xercesc_3_1@@SAXAAVXSerializeEngine@2@QAEQAVMemoryManager@2@@Z 1201129f f   XProtoType.obj
 0001:00010415       ?ensureStoring@XSerializeEngine@xercesc_3_1@@ABEXXZ 12011415 f i XSerializeEngine.obj
 0001:00010428       ?ensureLoading@XSerializeEngine@xercesc_3_1@@ABEXXZ 12011428 f i XSerializeEngine.obj
 0001:0001043b       ?Assert@XSerializeEngine@xercesc_3_1@@ABEX_NW4Codes@XMLExcepts@2@@Z 1201143b f i XSerializeEngine.obj
 0001:00010478       ?write@XSerializeEngine@xercesc_3_1@@QAEXQAVXSerializable@2@@Z 12011478 f   XSerializeEngine.obj
 0001:000104c3       ?write@XSerializeEngine@xercesc_3_1@@QAEXQAVXProtoType@2@@Z 120114c3 f   XSerializeEngine.obj
 0001:0001050a       ?write@XSerializeEngine@xercesc_3_1@@QAEXQBEK@Z 1201150a f   XSerializeEngine.obj
 0001:00010598       ?writeString@XSerializeEngine@xercesc_3_1@@QAEXQBGK_N@Z 12011598 f   XSerializeEngine.obj
 0001:000105e1       ?read@XSerializeEngine@xercesc_3_1@@QAEPAVXSerializable@2@QAVXProtoType@2@@Z 120115e1 f   XSerializeEngine.obj
 0001:0001064d       ?read@XSerializeEngine@xercesc_3_1@@QAE_NQAVXProtoType@2@PAI@Z 1201164d f   XSerializeEngine.obj
 0001:00010769       ?read@XSerializeEngine@xercesc_3_1@@QAEXQAEK@Z 12011769 f   XSerializeEngine.obj
 0001:000107fe       ?readString@XSerializeEngine@xercesc_3_1@@QAEXAAPAGAAK1_N@Z 120117fe f   XSerializeEngine.obj
 0001:00010871       ??6XSerializeEngine@xercesc_3_1@@QAEAAV01@_N@Z 12011871 f   XSerializeEngine.obj
 0001:0001088e       ??5XSerializeEngine@xercesc_3_1@@QAEAAV01@AA_N@Z 1201188e f   XSerializeEngine.obj
 0001:000108ad       ?writeSize@XSerializeEngine@xercesc_3_1@@QAEXK@Z 120118ad f   XSerializeEngine.obj
 0001:000108d2       ?writeUInt64@XSerializeEngine@xercesc_3_1@@QAEX_K@Z 120118d2 f   XSerializeEngine.obj
 0001:000108f7       ?readSize@XSerializeEngine@xercesc_3_1@@QAEXAAK@Z 120118f7 f   XSerializeEngine.obj
 0001:0001091b       ?readUInt64@XSerializeEngine@xercesc_3_1@@QAEXAA_K@Z 1201191b f   XSerializeEngine.obj
 0001:0001093f       ??6XSerializeEngine@xercesc_3_1@@QAEAAV01@F@Z 1201193f f   XSerializeEngine.obj
 0001:00010985       ??5XSerializeEngine@xercesc_3_1@@QAEAAV01@AAF@Z 12011985 f   XSerializeEngine.obj
 0001:000109cd       ??6XSerializeEngine@xercesc_3_1@@QAEAAV01@H@Z 120119cd f   XSerializeEngine.obj
 0001:000109cd       ??6XSerializeEngine@xercesc_3_1@@QAEAAV01@I@Z 120119cd f   XSerializeEngine.obj
 0001:000109cd       ??6XSerializeEngine@xercesc_3_1@@QAEAAV01@K@Z 120119cd f   XSerializeEngine.obj
 0001:00010a12       ??5XSerializeEngine@xercesc_3_1@@QAEAAV01@AAI@Z 12011a12 f   XSerializeEngine.obj
 0001:00010a12       ??5XSerializeEngine@xercesc_3_1@@QAEAAV01@AAH@Z 12011a12 f   XSerializeEngine.obj
 0001:00010a12       ??5XSerializeEngine@xercesc_3_1@@QAEAAV01@AAK@Z 12011a12 f   XSerializeEngine.obj
 0001:00010a59       ??6XSerializeEngine@xercesc_3_1@@QAEAAV01@N@Z 12011a59 f   XSerializeEngine.obj
 0001:00010a9e       ??5XSerializeEngine@xercesc_3_1@@QAEAAV01@AAN@Z 12011a9e f   XSerializeEngine.obj
 0001:00010ae5       ?lookupStorePool@XSerializeEngine@xercesc_3_1@@ABEIQAX@Z 12011ae5 f   XSerializeEngine.obj
 0001:00010af7       ?addStorePool@XSerializeEngine@xercesc_3_1@@AAEXQAX@Z 12011af7 f   XSerializeEngine.obj
 0001:00010b29       ?lookupLoadPool@XSerializeEngine@xercesc_3_1@@ABEPAVXSerializable@2@I@Z 12011b29 f   XSerializeEngine.obj
 0001:00010be0       ?addLoadPool@XSerializeEngine@xercesc_3_1@@AAEXQAX@Z 12011be0 f   XSerializeEngine.obj
 0001:00010caa       ?pumpCount@XSerializeEngine@xercesc_3_1@@AAEXXZ 12011caa f   XSerializeEngine.obj
 0001:00010d57       ?fillBuffer@XSerializeEngine@xercesc_3_1@@AAEXXZ 12011d57 f   XSerializeEngine.obj
 0001:00010e8f       ?flushBuffer@XSerializeEngine@xercesc_3_1@@AAEXXZ 12011e8f f   XSerializeEngine.obj
 0001:00010ec8       ?checkAndFlushBuffer@XSerializeEngine@xercesc_3_1@@AAEXK@Z 12011ec8 f i XSerializeEngine.obj
 0001:00010f56       ?checkAndFillBuffer@XSerializeEngine@xercesc_3_1@@AAEXK@Z 12011f56 f i XSerializeEngine.obj
 0001:00010fe4       ?ensureStoreBuffer@XSerializeEngine@xercesc_3_1@@ABEXXZ 12011fe4 f i XSerializeEngine.obj
 0001:000110a2       ?ensureLoadBuffer@XSerializeEngine@xercesc_3_1@@ABEXXZ 120120a2 f i XSerializeEngine.obj
 0001:00011160       ?ensurePointer@XSerializeEngine@xercesc_3_1@@ABEXQAX@Z 12012160 f i XSerializeEngine.obj
 0001:000111d9       ?needToStoreObject@XSerializeEngine@xercesc_3_1@@QAE_NQAX@Z 120121d9 f   XSerializeEngine.obj
 0001:00011219       ?needToLoadObject@XSerializeEngine@xercesc_3_1@@QAE_NPAPAX@Z 12012219 f   XSerializeEngine.obj
 0001:0001124d       ?registerObject@XSerializeEngine@xercesc_3_1@@QAEXQAX@Z 1201224d f   XSerializeEngine.obj
 0001:00011266       ?getMemoryManager@XSerializeEngine@xercesc_3_1@@QBEPAVMemoryManager@2@XZ 12012266 f   XSerializeEngine.obj
 0001:00011277       ?put@?$RefHashTableOf@VXSerializedObjectId@xercesc_3_1@@UPtrHasher@2@@xercesc_3_1@@QAEXPAXQAVXSerializedObjectId@2@@Z 12012277 f i XSerializeEngine.obj
 0001:000112f2       ?rehash@?$RefHashTableOf@VXSerializedObjectId@xercesc_3_1@@UPtrHasher@2@@xercesc_3_1@@AAEXXZ 120122f2 f i XSerializeEngine.obj
 0001:000112f2       ?rehash@?$RefHashTableOf@VXSAnnotation@xercesc_3_1@@UPtrHasher@2@@xercesc_3_1@@AAEXXZ 120122f2 f i XTemplateSerializer.obj
 0001:000113a6       ??1?$XMLEnumerator@VKVStringPair@xercesc_3_1@@@xercesc_3_1@@UAE@XZ 120123a6 f i XSObjectFactory.obj
 0001:000113ad       ??_G?$XMLEnumerator@VKVStringPair@xercesc_3_1@@@xercesc_3_1@@UAEPAXI@Z 120123ad f i XSObjectFactory.obj
 0001:000113ad       ??_E?$XMLEnumerator@VKVStringPair@xercesc_3_1@@@xercesc_3_1@@UAEPAXI@Z 120123ad f i XSObjectFactory.obj
 0001:000113ca       ??0?$RefHashTableOfEnumerator@VKVStringPair@xercesc_3_1@@UStringHasher@2@@xercesc_3_1@@QAE@QAV?$RefHashTableOf@VKVStringPair@xercesc_3_1@@UStringHasher@2@@1@_NQAVMemoryManager@1@@Z 120123ca f i XSObjectFactory.obj
 0001:00011439       ??1?$RefHashTableOfEnumerator@VKVStringPair@xercesc_3_1@@UStringHasher@2@@xercesc_3_1@@UAE@XZ 12012439 f i XSObjectFactory.obj
 0001:0001147c       ??_E?$RefHashTableOfEnumerator@VKVStringPair@xercesc_3_1@@UStringHasher@2@@xercesc_3_1@@UAEPAXI@Z 1201247c f i XSObjectFactory.obj
 0001:0001147c       ??_G?$RefHashTableOfEnumerator@VKVStringPair@xercesc_3_1@@UStringHasher@2@@xercesc_3_1@@UAEPAXI@Z 1201247c f i XSObjectFactory.obj
 0001:00011498       ??5xercesc_3_1@@YAAAVXSerializeEngine@0@AAV10@AAPAVKVStringPair@0@@Z 12012498 f i XTemplateSerializer.obj
 0001:000114b1       ??5xercesc_3_1@@YAAAVXSerializeEngine@0@AAV10@AAPAVContentSpecNode@0@@Z 120124b1 f i XTemplateSerializer.obj
 0001:000114ca       ??5xercesc_3_1@@YAAAVXSerializeEngine@0@AAV10@AAPAVDTDAttDef@0@@Z 120124ca f i XTemplateSerializer.obj
 0001:000114e3       ??0DTDEntityDecl@xercesc_3_1@@QAE@QAVMemoryManager@1@@Z 120124e3 f i XTemplateSerializer.obj
 0001:00011500       ??5xercesc_3_1@@YAAAVXSerializeEngine@0@AAV10@AAPAVSchemaAttDef@0@@Z 12012500 f i XTemplateSerializer.obj
 0001:00011519       ??5xercesc_3_1@@YAAAVXSerializeEngine@0@AAV10@AAPAVComplexTypeInfo@0@@Z 12012519 f i XTemplateSerializer.obj
 0001:00011532       ??5xercesc_3_1@@YAAAVXSerializeEngine@0@AAV10@AAPAVIC_Field@0@@Z 12012532 f i XTemplateSerializer.obj
 0001:0001154b       ??5xercesc_3_1@@YAAAVXSerializeEngine@0@AAV10@AAPAVXercesGroupInfo@0@@Z 1201254b f i XTemplateSerializer.obj
 0001:00011564       ??5xercesc_3_1@@YAAAVXSerializeEngine@0@AAV10@AAPAVXercesAttGroupInfo@0@@Z 12012564 f i XTemplateSerializer.obj
 0001:0001157d       ??5xercesc_3_1@@YAAAVXSerializeEngine@0@AAV10@AAPAVXercesStep@0@@Z 1201257d f i XTemplateSerializer.obj
 0001:00011596       ??5xercesc_3_1@@YAAAVXSerializeEngine@0@AAV10@AAPAVXercesLocationPath@0@@Z 12012596 f i XTemplateSerializer.obj
 0001:000115af       ?storeObject@XTemplateSerializer@xercesc_3_1@@SAXQAV?$ValueVectorOf@PAVSchemaElementDecl@xercesc_3_1@@@2@AAVXSerializeEngine@2@@Z 120125af f   XTemplateSerializer.obj
 0001:000115ed       ?loadObject@XTemplateSerializer@xercesc_3_1@@SAXPAPAV?$ValueVectorOf@PAVSchemaElementDecl@xercesc_3_1@@@2@H_NAAVXSerializeEngine@2@@Z 120125ed f   XTemplateSerializer.obj
 0001:0001169c       ?storeObject@XTemplateSerializer@xercesc_3_1@@SAXQAV?$ValueVectorOf@I@2@AAVXSerializeEngine@2@@Z 1201269c f   XTemplateSerializer.obj
 0001:000116da       ?loadObject@XTemplateSerializer@xercesc_3_1@@SAXPAPAV?$ValueVectorOf@I@2@H_NAAVXSerializeEngine@2@@Z 120126da f   XTemplateSerializer.obj
 0001:00011788       ?storeObject@XTemplateSerializer@xercesc_3_1@@SAXQAV?$RefArrayVectorOf@G@2@AAVXSerializeEngine@2@@Z 12012788 f   XTemplateSerializer.obj
 0001:000117ce       ?loadObject@XTemplateSerializer@xercesc_3_1@@SAXPAPAV?$RefArrayVectorOf@G@2@H_NAAVXSerializeEngine@2@@Z 120127ce f   XTemplateSerializer.obj
 0001:00011884       ?storeObject@XTemplateSerializer@xercesc_3_1@@SAXQAV?$RefVectorOf@VSchemaElementDecl@xercesc_3_1@@@2@AAVXSerializeEngine@2@@Z 12012884 f   XTemplateSerializer.obj
 0001:00011884       ?storeObject@XTemplateSerializer@xercesc_3_1@@SAXQAV?$RefVectorOf@VXMLNumber@xercesc_3_1@@@2@AAVXSerializeEngine@2@@Z 12012884 f   XTemplateSerializer.obj
 0001:00011884       ?storeObject@XTemplateSerializer@xercesc_3_1@@SAXQAV?$RefVectorOf@VSchemaAttDef@xercesc_3_1@@@2@AAVXSerializeEngine@2@@Z 12012884 f   XTemplateSerializer.obj
 0001:00011884       ?storeObject@XTemplateSerializer@xercesc_3_1@@SAXQAV?$RefVectorOf@VIC_Field@xercesc_3_1@@@2@AAVXSerializeEngine@2@@Z 12012884 f   XTemplateSerializer.obj
 0001:00011884       ?storeObject@XTemplateSerializer@xercesc_3_1@@SAXQAV?$RefVectorOf@VXercesStep@xercesc_3_1@@@2@AAVXSerializeEngine@2@@Z 12012884 f   XTemplateSerializer.obj
 0001:00011884       ?storeObject@XTemplateSerializer@xercesc_3_1@@SAXQAV?$RefVectorOf@VXercesLocationPath@xercesc_3_1@@@2@AAVXSerializeEngine@2@@Z 12012884 f   XTemplateSerializer.obj
 0001:000118c0       ?loadObject@XTemplateSerializer@xercesc_3_1@@SAXPAPAV?$RefVectorOf@VSchemaAttDef@xercesc_3_1@@@2@H_NAAVXSerializeEngine@2@@Z 120128c0 f   XTemplateSerializer.obj
 0001:00011971       ?loadObject@XTemplateSerializer@xercesc_3_1@@SAXPAPAV?$RefVectorOf@VSchemaElementDecl@xercesc_3_1@@@2@H_NAAVXSerializeEngine@2@@Z 12012971 f   XTemplateSerializer.obj
 0001:00011a22       ?loadObject@XTemplateSerializer@xercesc_3_1@@SAXPAPAV?$RefVectorOf@VIC_Field@xercesc_3_1@@@2@H_NAAVXSerializeEngine@2@@Z 12012a22 f   XTemplateSerializer.obj
 0001:00011ad3       ?storeObject@XTemplateSerializer@xercesc_3_1@@SAXQAV?$RefVectorOf@VDatatypeValidator@xercesc_3_1@@@2@AAVXSerializeEngine@2@@Z 12012ad3 f   XTemplateSerializer.obj
 0001:00011b1b       ?loadObject@XTemplateSerializer@xercesc_3_1@@SAXPAPAV?$RefVectorOf@VDatatypeValidator@xercesc_3_1@@@2@H_NAAVXSerializeEngine@2@@Z 12012b1b f   XTemplateSerializer.obj
 0001:00011bc0       ?storeObject@XTemplateSerializer@xercesc_3_1@@SAXQAV?$RefVectorOf@VIdentityConstraint@xercesc_3_1@@@2@AAVXSerializeEngine@2@@Z 12012bc0 f   XTemplateSerializer.obj
 0001:00011c09       ?loadObject@XTemplateSerializer@xercesc_3_1@@SAXPAPAV?$RefVectorOf@VIdentityConstraint@xercesc_3_1@@@2@H_NAAVXSerializeEngine@2@@Z 12012c09 f   XTemplateSerializer.obj
 0001:00011cae       ?loadObject@XTemplateSerializer@xercesc_3_1@@SAXPAPAV?$RefVectorOf@VXMLNumber@xercesc_3_1@@@2@H_NW4NumberType@XMLNumber@2@AAVXSerializeEngine@2@@Z 12012cae f   XTemplateSerializer.obj
 0001:00011d56       ?loadObject@XTemplateSerializer@xercesc_3_1@@SAXPAPAV?$RefVectorOf@VXercesLocationPath@xercesc_3_1@@@2@H_NAAVXSerializeEngine@2@@Z 12012d56 f   XTemplateSerializer.obj
 0001:00011e07       ?loadObject@XTemplateSerializer@xercesc_3_1@@SAXPAPAV?$RefVectorOf@VXercesStep@xercesc_3_1@@@2@H_NAAVXSerializeEngine@2@@Z 12012e07 f   XTemplateSerializer.obj
 0001:00011eb8       ?storeObject@XTemplateSerializer@xercesc_3_1@@SAXQAV?$RefHashTableOf@VKVStringPair@xercesc_3_1@@UStringHasher@2@@2@AAVXSerializeEngine@2@@Z 12012eb8 f   XTemplateSerializer.obj
 0001:00011f56       ?loadObject@XTemplateSerializer@xercesc_3_1@@SAXPAPAV?$RefHashTableOf@VKVStringPair@xercesc_3_1@@UStringHasher@2@@2@H_NAAVXSerializeEngine@2@@Z 12012f56 f   XTemplateSerializer.obj
 0001:00012019       ?storeObject@XTemplateSerializer@xercesc_3_1@@SAXQAV?$RefHashTableOf@VXMLAttDef@xercesc_3_1@@UStringHasher@2@@2@AAVXSerializeEngine@2@@Z 12013019 f   XTemplateSerializer.obj
 0001:000120b7       ?loadObject@XTemplateSerializer@xercesc_3_1@@SAXPAPAV?$RefHashTableOf@VXMLAttDef@xercesc_3_1@@UStringHasher@2@@2@H_NAAVXSerializeEngine@2@@Z 120130b7 f   XTemplateSerializer.obj
 0001:0001217d       ?storeObject@XTemplateSerializer@xercesc_3_1@@SAXQAV?$RefHashTableOf@VDTDAttDef@xercesc_3_1@@UStringHasher@2@@2@AAVXSerializeEngine@2@@Z 1201317d f   XTemplateSerializer.obj
 0001:0001221b       ?loadObject@XTemplateSerializer@xercesc_3_1@@SAXPAPAV?$RefHashTableOf@VDTDAttDef@xercesc_3_1@@UStringHasher@2@@2@H_NAAVXSerializeEngine@2@@Z 1201321b f   XTemplateSerializer.obj
 0001:000122e2       ?storeObject@XTemplateSerializer@xercesc_3_1@@SAXQAV?$RefHashTableOf@VComplexTypeInfo@xercesc_3_1@@UStringHasher@2@@2@AAVXSerializeEngine@2@@Z 120132e2 f   XTemplateSerializer.obj
 0001:00012380       ?loadObject@XTemplateSerializer@xercesc_3_1@@SAXPAPAV?$RefHashTableOf@VComplexTypeInfo@xercesc_3_1@@UStringHasher@2@@2@H_NAAVXSerializeEngine@2@@Z 12013380 f   XTemplateSerializer.obj
 0001:00012443       ?storeObject@XTemplateSerializer@xercesc_3_1@@SAXQAV?$RefHashTableOf@VXercesGroupInfo@xercesc_3_1@@UStringHasher@2@@2@AAVXSerializeEngine@2@@Z 12013443 f   XTemplateSerializer.obj
 0001:000124ff       ?loadObject@XTemplateSerializer@xercesc_3_1@@SAXPAPAV?$RefHashTableOf@VXercesGroupInfo@xercesc_3_1@@UStringHasher@2@@2@H_NAAVXSerializeEngine@2@@Z 120134ff f   XTemplateSerializer.obj
 0001:000125db       ?storeObject@XTemplateSerializer@xercesc_3_1@@SAXQAV?$RefHashTableOf@VXercesAttGroupInfo@xercesc_3_1@@UStringHasher@2@@2@AAVXSerializeEngine@2@@Z 120135db f   XTemplateSerializer.obj
 0001:00012679       ?loadObject@XTemplateSerializer@xercesc_3_1@@SAXPAPAV?$RefHashTableOf@VXercesAttGroupInfo@xercesc_3_1@@UStringHasher@2@@2@H_NAAVXSerializeEngine@2@@Z 12013679 f   XTemplateSerializer.obj
 0001:0001274c       ?storeObject@XTemplateSerializer@xercesc_3_1@@SAXQAV?$RefHashTableOf@VDatatypeValidator@xercesc_3_1@@UStringHasher@2@@2@AAVXSerializeEngine@2@@Z 1201374c f   XTemplateSerializer.obj
 0001:000127ec       ?loadObject@XTemplateSerializer@xercesc_3_1@@SAXPAPAV?$RefHashTableOf@VDatatypeValidator@xercesc_3_1@@UStringHasher@2@@2@H_NAAVXSerializeEngine@2@@Z 120137ec f   XTemplateSerializer.obj
 0001:0001296a       ?storeObject@XTemplateSerializer@xercesc_3_1@@SAXQAV?$RefHashTableOf@VXSAnnotation@xercesc_3_1@@UPtrHasher@2@@2@AAVXSerializeEngine@2@@Z 1201396a f   XTemplateSerializer.obj
 0001:00012aab       ?loadObject@XTemplateSerializer@xercesc_3_1@@SAXPAPAV?$RefHashTableOf@VXSAnnotation@xercesc_3_1@@UPtrHasher@2@@2@H_NAAVXSerializeEngine@2@@Z 12013aab f   XTemplateSerializer.obj
 0001:00012bd2       ?storeObject@XTemplateSerializer@xercesc_3_1@@SAXQAV?$RefHash2KeysTableOf@VSchemaAttDef@xercesc_3_1@@UStringHasher@2@@2@AAVXSerializeEngine@2@@Z 12013bd2 f   XTemplateSerializer.obj
 0001:00012c89       ?loadObject@XTemplateSerializer@xercesc_3_1@@SAXPAPAV?$RefHash2KeysTableOf@VSchemaAttDef@xercesc_3_1@@UStringHasher@2@@2@H_NAAVXSerializeEngine@2@@Z 12013c89 f   XTemplateSerializer.obj
 0001:00012d52       ?storeObject@XTemplateSerializer@xercesc_3_1@@SAXQAV?$RefHash2KeysTableOf@V?$ValueVectorOf@PAVSchemaElementDecl@xercesc_3_1@@@xercesc_3_1@@UStringHasher@2@@2@AAVXSerializeEngine@2@@Z 12013d52 f   XTemplateSerializer.obj
 0001:00012e19       ?loadObject@XTemplateSerializer@xercesc_3_1@@SAXPAPAV?$RefHash2KeysTableOf@V?$ValueVectorOf@PAVSchemaElementDecl@xercesc_3_1@@@xercesc_3_1@@UStringHasher@2@@2@H_NAAVXSerializeEngine@2@@Z 12013e19 f   XTemplateSerializer.obj
 0001:00012f66       ?storeObject@XTemplateSerializer@xercesc_3_1@@SAXQAV?$RefHash3KeysIdPool@VSchemaElementDecl@xercesc_3_1@@UStringHasher@2@@2@AAVXSerializeEngine@2@@Z 12013f66 f   XTemplateSerializer.obj
 0001:00013005       ?loadObject@XTemplateSerializer@xercesc_3_1@@SAXPAPAV?$RefHash3KeysIdPool@VSchemaElementDecl@xercesc_3_1@@UStringHasher@2@@2@H_NHAAVXSerializeEngine@2@@Z 12014005 f   XTemplateSerializer.obj
 0001:000130d5       ?storeObject@XTemplateSerializer@xercesc_3_1@@SAXQAV?$NameIdPool@VDTDElementDecl@xercesc_3_1@@@2@AAVXSerializeEngine@2@@Z 120140d5 f   XTemplateSerializer.obj
 0001:00013147       ?loadObject@XTemplateSerializer@xercesc_3_1@@SAXPAPAV?$NameIdPool@VDTDElementDecl@xercesc_3_1@@@2@HHAAVXSerializeEngine@2@@Z 12014147 f   XTemplateSerializer.obj
 0001:0001322a       ?storeObject@XTemplateSerializer@xercesc_3_1@@SAXQAV?$NameIdPool@VDTDEntityDecl@xercesc_3_1@@@2@AAVXSerializeEngine@2@@Z 1201422a f   XTemplateSerializer.obj
 0001:0001329c       ?loadObject@XTemplateSerializer@xercesc_3_1@@SAXPAPAV?$NameIdPool@VDTDEntityDecl@xercesc_3_1@@@2@HHAAVXSerializeEngine@2@@Z 1201429c f   XTemplateSerializer.obj
 0001:0001337e       ?storeObject@XTemplateSerializer@xercesc_3_1@@SAXQAV?$NameIdPool@VXMLNotationDecl@xercesc_3_1@@@2@AAVXSerializeEngine@2@@Z 1201437e f   XTemplateSerializer.obj
 0001:000133f0       ?loadObject@XTemplateSerializer@xercesc_3_1@@SAXPAPAV?$NameIdPool@VXMLNotationDecl@xercesc_3_1@@@2@HHAAVXSerializeEngine@2@@Z 120143f0 f   XTemplateSerializer.obj
 0001:000134d2       ??1?$XMLEnumerator@VSchemaAttDef@xercesc_3_1@@@xercesc_3_1@@UAE@XZ 120144d2 f i XTemplateSerializer.obj
 0001:000134d9       ??1?$XMLEnumerator@VDTDAttDef@xercesc_3_1@@@xercesc_3_1@@UAE@XZ 120144d9 f i XTemplateSerializer.obj
 0001:000134e0       ??1?$XMLEnumerator@VXSAnnotation@xercesc_3_1@@@xercesc_3_1@@UAE@XZ 120144e0 f i XTemplateSerializer.obj
 0001:000134e7       ??1?$XMLEnumerator@V?$ValueVectorOf@PAVSchemaElementDecl@xercesc_3_1@@@xercesc_3_1@@@xercesc_3_1@@UAE@XZ 120144e7 f i XTemplateSerializer.obj
 0001:000134ee       ??_G?$XMLEnumerator@VSchemaAttDef@xercesc_3_1@@@xercesc_3_1@@UAEPAXI@Z 120144ee f i XTemplateSerializer.obj
 0001:000134ee       ??_E?$XMLEnumerator@VSchemaAttDef@xercesc_3_1@@@xercesc_3_1@@UAEPAXI@Z 120144ee f i XTemplateSerializer.obj
 0001:0001350b       ??_E?$XMLEnumerator@VDTDAttDef@xercesc_3_1@@@xercesc_3_1@@UAEPAXI@Z 1201450b f i XTemplateSerializer.obj
 0001:0001350b       ??_G?$XMLEnumerator@VDTDAttDef@xercesc_3_1@@@xercesc_3_1@@UAEPAXI@Z 1201450b f i XTemplateSerializer.obj
 0001:00013528       ??_E?$XMLEnumerator@VXSAnnotation@xercesc_3_1@@@xercesc_3_1@@UAEPAXI@Z 12014528 f i XTemplateSerializer.obj
 0001:00013528       ??_G?$XMLEnumerator@VXSAnnotation@xercesc_3_1@@@xercesc_3_1@@UAEPAXI@Z 12014528 f i XTemplateSerializer.obj
 0001:00013545       ??_E?$XMLEnumerator@V?$ValueVectorOf@PAVSchemaElementDecl@xercesc_3_1@@@xercesc_3_1@@@xercesc_3_1@@UAEPAXI@Z 12014545 f i XTemplateSerializer.obj
 0001:00013545       ??_G?$XMLEnumerator@V?$ValueVectorOf@PAVSchemaElementDecl@xercesc_3_1@@@xercesc_3_1@@@xercesc_3_1@@UAEPAXI@Z 12014545 f i XTemplateSerializer.obj
 0001:00013562       ??_G?$XMLEnumerator@VDTDElementDecl@xercesc_3_1@@@xercesc_3_1@@UAEPAXI@Z 12014562 f i XTemplateSerializer.obj
 0001:00013562       ??_E?$XMLEnumerator@VDTDElementDecl@xercesc_3_1@@@xercesc_3_1@@UAEPAXI@Z 12014562 f i XTemplateSerializer.obj
 0001:0001357f       ??_E?$XMLEnumerator@VDTDEntityDecl@xercesc_3_1@@@xercesc_3_1@@UAEPAXI@Z 1201457f f i XTemplateSerializer.obj
 0001:0001357f       ??_G?$XMLEnumerator@VDTDEntityDecl@xercesc_3_1@@@xercesc_3_1@@UAEPAXI@Z 1201457f f i XTemplateSerializer.obj
 0001:0001359c       ??1?$BaseRefVectorOf@VDatatypeValidator@xercesc_3_1@@@xercesc_3_1@@UAE@XZ 1201459c f i XTemplateSerializer.obj
 0001:000135a3       ??0?$RefVectorOf@VDatatypeValidator@xercesc_3_1@@@xercesc_3_1@@QAE@K_NQAVMemoryManager@1@@Z 120145a3 f i XTemplateSerializer.obj
 0001:000135b5       ??1?$RefVectorOf@VDatatypeValidator@xercesc_3_1@@@xercesc_3_1@@UAE@XZ 120145b5 f i XTemplateSerializer.obj
 0001:00013612       ??1?$BaseRefVectorOf@VSchemaElementDecl@xercesc_3_1@@@xercesc_3_1@@UAE@XZ 12014612 f i XTemplateSerializer.obj
 0001:00013619       ?cleanup@?$BaseRefVectorOf@VSchemaAttDef@xercesc_3_1@@@xercesc_3_1@@UAEXXZ 12014619 f i XTemplateSerializer.obj
 0001:00013619       ?cleanup@?$BaseRefVectorOf@VXMLNumber@xercesc_3_1@@@xercesc_3_1@@UAEXXZ 12014619 f i XTemplateSerializer.obj
 0001:00013619       ?cleanup@?$BaseRefVectorOf@VToken@xercesc_3_1@@@xercesc_3_1@@UAEXXZ 12014619 f i TokenFactory.obj
 0001:00013619       ?cleanup@?$BaseRefVectorOf@VSchemaElementDecl@xercesc_3_1@@@xercesc_3_1@@UAEXXZ 12014619 f i XTemplateSerializer.obj
 0001:00013619       ?cleanup@?$BaseRefVectorOf@VIdentityConstraint@xercesc_3_1@@@xercesc_3_1@@UAEXXZ 12014619 f i XTemplateSerializer.obj
 0001:00013619       ?cleanup@?$BaseRefVectorOf@VXercesLocationPath@xercesc_3_1@@@xercesc_3_1@@UAEXXZ 12014619 f i XTemplateSerializer.obj
 0001:00013619       ?cleanup@?$BaseRefVectorOf@VOp@xercesc_3_1@@@xercesc_3_1@@UAEXXZ 12014619 f i Op.obj
 0001:00013619       ?cleanup@?$BaseRefVectorOf@VDatatypeValidator@xercesc_3_1@@@xercesc_3_1@@UAEXXZ 12014619 f i XTemplateSerializer.obj
 0001:00013619       ?cleanup@?$BaseRefVectorOf@VXercesStep@xercesc_3_1@@@xercesc_3_1@@UAEXXZ 12014619 f i XTemplateSerializer.obj
 0001:00013619       ?cleanup@?$BaseRefVectorOf@VIC_Field@xercesc_3_1@@@xercesc_3_1@@UAEXXZ 12014619 f i XTemplateSerializer.obj
 0001:0001364e       ??0?$RefVectorOf@VSchemaElementDecl@xercesc_3_1@@@xercesc_3_1@@QAE@K_NQAVMemoryManager@1@@Z 1201464e f i XTemplateSerializer.obj
 0001:00013660       ??1?$RefVectorOf@VSchemaElementDecl@xercesc_3_1@@@xercesc_3_1@@UAE@XZ 12014660 f i XTemplateSerializer.obj
 0001:000136bd       ?put@?$RefHash2KeysTableOf@VSchemaAttDef@xercesc_3_1@@UStringHasher@2@@xercesc_3_1@@QAEXPAXHQAVSchemaAttDef@2@@Z 120146bd f i XTemplateSerializer.obj
 0001:00013744       ??0?$RefHash2KeysTableOfEnumerator@VSchemaAttDef@xercesc_3_1@@UStringHasher@2@@xercesc_3_1@@QAE@QAV?$RefHash2KeysTableOf@VSchemaAttDef@xercesc_3_1@@UStringHasher@2@@1@_NQAVMemoryManager@1@@Z 12014744 f i XTemplateSerializer.obj
 0001:000137b5       ??1?$RefHash2KeysTableOfEnumerator@VSchemaAttDef@xercesc_3_1@@UStringHasher@2@@xercesc_3_1@@UAE@XZ 120147b5 f i XTemplateSerializer.obj
 0001:000137f8       ?nextElementKey@?$RefHash2KeysTableOfEnumerator@V?$ValueVectorOf@PAVSchemaElementDecl@xercesc_3_1@@@xercesc_3_1@@UStringHasher@2@@xercesc_3_1@@QAEXAAPAXAAH@Z 120147f8 f i XTemplateSerializer.obj
 0001:000137f8       ?nextElementKey@?$RefHash2KeysTableOfEnumerator@VSchemaAttDef@xercesc_3_1@@UStringHasher@2@@xercesc_3_1@@QAEXAAPAXAAH@Z 120147f8 f i XTemplateSerializer.obj
 0001:00013853       ??1?$BaseRefVectorOf@VIC_Field@xercesc_3_1@@@xercesc_3_1@@UAE@XZ 12014853 f i XTemplateSerializer.obj
 0001:0001385a       ??0?$RefVectorOf@VIC_Field@xercesc_3_1@@@xercesc_3_1@@QAE@K_NQAVMemoryManager@1@@Z 1201485a f i XTemplateSerializer.obj
 0001:0001386c       ??1?$RefVectorOf@VIC_Field@xercesc_3_1@@@xercesc_3_1@@UAE@XZ 1201486c f i XTemplateSerializer.obj
 0001:000138c9       ??1?$BaseRefVectorOf@VIdentityConstraint@xercesc_3_1@@@xercesc_3_1@@UAE@XZ 120148c9 f i XTemplateSerializer.obj
 0001:000138d0       ??0?$RefVectorOf@VIdentityConstraint@xercesc_3_1@@@xercesc_3_1@@QAE@K_NQAVMemoryManager@1@@Z 120148d0 f i XTemplateSerializer.obj
 0001:000138e2       ??1?$RefVectorOf@VIdentityConstraint@xercesc_3_1@@@xercesc_3_1@@UAE@XZ 120148e2 f i XTemplateSerializer.obj
 0001:0001393f       ??1?$BaseRefVectorOf@VSchemaAttDef@xercesc_3_1@@@xercesc_3_1@@UAE@XZ 1201493f f i XTemplateSerializer.obj
 0001:00013946       ??0?$RefVectorOf@VSchemaAttDef@xercesc_3_1@@@xercesc_3_1@@QAE@K_NQAVMemoryManager@1@@Z 12014946 f i XTemplateSerializer.obj
 0001:00013958       ??1?$RefVectorOf@VSchemaAttDef@xercesc_3_1@@@xercesc_3_1@@UAE@XZ 12014958 f i XTemplateSerializer.obj
 0001:000139b5       ??0?$RefHashTableOf@VComplexTypeInfo@xercesc_3_1@@UStringHasher@2@@xercesc_3_1@@QAE@K_NQAVMemoryManager@1@@Z 120149b5 f i XTemplateSerializer.obj
 0001:000139b5       ??0?$RefHashTableOf@UPoolElem@XMLStringPool@xercesc_3_1@@UStringHasher@3@@xercesc_3_1@@QAE@K_NQAVMemoryManager@1@@Z 120149b5 f i StringPool.obj
 0001:000139b5       ??0?$RefHashTableOf@VXSAnnotation@xercesc_3_1@@UPtrHasher@2@@xercesc_3_1@@QAE@K_NQAVMemoryManager@1@@Z 120149b5 f i XTemplateSerializer.obj
 0001:000139b5       ??0?$RefHashTableOf@VXercesAttGroupInfo@xercesc_3_1@@UStringHasher@2@@xercesc_3_1@@QAE@K_NQAVMemoryManager@1@@Z 120149b5 f i XTemplateSerializer.obj
 0001:000139b5       ??0?$RefHashTableOf@VDTDAttDef@xercesc_3_1@@UStringHasher@2@@xercesc_3_1@@QAE@K_NQAVMemoryManager@1@@Z 120149b5 f i XTemplateSerializer.obj
 0001:000139b5       ??0?$RefHashTableOf@VKVStringPair@xercesc_3_1@@UStringHasher@2@@xercesc_3_1@@QAE@K_NQAVMemoryManager@1@@Z 120149b5 f i XTemplateSerializer.obj
 0001:000139b5       ??0?$RefHashTableOf@VXMLInteger@xercesc_3_1@@UCMStateSetHasher@2@@xercesc_3_1@@QAE@K_NQAVMemoryManager@1@@Z 120149b5 f i DFAContentModel.obj
 0001:000139b5       ??0?$RefHashTableOf@VXMLAttDef@xercesc_3_1@@UStringHasher@2@@xercesc_3_1@@QAE@K_NQAVMemoryManager@1@@Z 120149b5 f i XTemplateSerializer.obj
 0001:000139b5       ??0?$RefHashTableOf@VDatatypeValidator@xercesc_3_1@@UStringHasher@2@@xercesc_3_1@@QAE@K_NQAVMemoryManager@1@@Z 120149b5 f i XTemplateSerializer.obj
 0001:000139b5       ??0?$RefHashTableOf@VXercesGroupInfo@xercesc_3_1@@UStringHasher@2@@xercesc_3_1@@QAE@K_NQAVMemoryManager@1@@Z 120149b5 f i XTemplateSerializer.obj
 0001:000139db       ?nextElementKey@?$RefHash3KeysIdPoolEnumerator@VSchemaElementDecl@xercesc_3_1@@UStringHasher@2@@xercesc_3_1@@QAEXAAPAXAAH1@Z 120149db f i XTemplateSerializer.obj
 0001:00013a3c       ?hasMoreKeys@?$RefHash3KeysIdPoolEnumerator@VSchemaElementDecl@xercesc_3_1@@UStringHasher@2@@xercesc_3_1@@QBE_NXZ 12014a3c f i XTemplateSerializer.obj
 0001:00013a53       ?put@?$RefHashTableOf@VXSAnnotation@xercesc_3_1@@UPtrHasher@2@@xercesc_3_1@@QAEXPAXQAVXSAnnotation@2@@Z 12014a53 f i XTemplateSerializer.obj
 0001:00013acf       ?put@?$NameIdPool@VXMLNotationDecl@xercesc_3_1@@@xercesc_3_1@@QAEKQAVXMLNotationDecl@2@@Z 12014acf f i XTemplateSerializer.obj
 0001:00013b90       ??1?$BaseRefVectorOf@VXercesStep@xercesc_3_1@@@xercesc_3_1@@UAE@XZ 12014b90 f i XTemplateSerializer.obj
 0001:00013b97       ??0?$RefVectorOf@VXercesStep@xercesc_3_1@@@xercesc_3_1@@QAE@K_NQAVMemoryManager@1@@Z 12014b97 f i XTemplateSerializer.obj
 0001:00013ba9       ??1?$RefVectorOf@VXercesStep@xercesc_3_1@@@xercesc_3_1@@UAE@XZ 12014ba9 f i XTemplateSerializer.obj
 0001:00013c06       ??1?$BaseRefVectorOf@VXMLNumber@xercesc_3_1@@@xercesc_3_1@@UAE@XZ 12014c06 f i XTemplateSerializer.obj
 0001:00013c0d       ?addElement@?$BaseRefVectorOf@VToken@xercesc_3_1@@@xercesc_3_1@@QAEXQAVToken@2@@Z 12014c0d f i TokenFactory.obj
 0001:00013c0d       ?addElement@?$BaseRefVectorOf@VXercesStep@xercesc_3_1@@@xercesc_3_1@@QAEXQAVXercesStep@2@@Z 12014c0d f i XTemplateSerializer.obj
 0001:00013c0d       ?addElement@?$BaseRefVectorOf@VSchemaElementDecl@xercesc_3_1@@@xercesc_3_1@@QAEXQAVSchemaElementDecl@2@@Z 12014c0d f i XTemplateSerializer.obj
 0001:00013c0d       ?addElement@?$BaseRefVectorOf@VXercesLocationPath@xercesc_3_1@@@xercesc_3_1@@QAEXQAVXercesLocationPath@2@@Z 12014c0d f i XTemplateSerializer.obj
 0001:00013c0d       ?addElement@?$BaseRefVectorOf@VIdentityConstraint@xercesc_3_1@@@xercesc_3_1@@QAEXQAVIdentityConstraint@2@@Z 12014c0d f i XTemplateSerializer.obj
 0001:00013c0d       ?addElement@?$BaseRefVectorOf@VIC_Field@xercesc_3_1@@@xercesc_3_1@@QAEXQAVIC_Field@2@@Z 12014c0d f i XTemplateSerializer.obj
 0001:00013c0d       ?addElement@?$BaseRefVectorOf@VReferencePosition@RegxParser@xercesc_3_1@@@xercesc_3_1@@QAEXQAVReferencePosition@RegxParser@2@@Z 12014c0d f i RegxParser.obj
 0001:00013c0d       ?addElement@?$BaseRefVectorOf@VOp@xercesc_3_1@@@xercesc_3_1@@QAEXQAVOp@2@@Z 12014c0d f i Op.obj
 0001:00013c0d       ?addElement@?$BaseRefVectorOf@G@xercesc_3_1@@QAEXQAG@Z 12014c0d f i XMLString.obj
 0001:00013c0d       ?addElement@?$BaseRefVectorOf@VSchemaAttDef@xercesc_3_1@@@xercesc_3_1@@QAEXQAVSchemaAttDef@2@@Z 12014c0d f i XTemplateSerializer.obj
 0001:00013c0d       ?addElement@?$BaseRefVectorOf@VDatatypeValidator@xercesc_3_1@@@xercesc_3_1@@QAEXQAVDatatypeValidator@2@@Z 12014c0d f i XTemplateSerializer.obj
 0001:00013c0d       ?addElement@?$BaseRefVectorOf@VXMLNumber@xercesc_3_1@@@xercesc_3_1@@QAEXQAVXMLNumber@2@@Z 12014c0d f i XTemplateSerializer.obj
 0001:00013c2b       ?removeLastElement@?$BaseRefVectorOf@VDatatypeValidator@xercesc_3_1@@@xercesc_3_1@@UAEXXZ 12014c2b f i XTemplateSerializer.obj
 0001:00013c2b       ?removeLastElement@?$BaseRefVectorOf@VOp@xercesc_3_1@@@xercesc_3_1@@UAEXXZ 12014c2b f i Op.obj
 0001:00013c2b       ?removeLastElement@?$BaseRefVectorOf@VSchemaElementDecl@xercesc_3_1@@@xercesc_3_1@@UAEXXZ 12014c2b f i XTemplateSerializer.obj
 0001:00013c2b       ?removeLastElement@?$BaseRefVectorOf@VToken@xercesc_3_1@@@xercesc_3_1@@UAEXXZ 12014c2b f i TokenFactory.obj
 0001:00013c2b       ?removeLastElement@?$BaseRefVectorOf@VXMLNumber@xercesc_3_1@@@xercesc_3_1@@UAEXXZ 12014c2b f i XTemplateSerializer.obj
 0001:00013c2b       ?removeLastElement@?$BaseRefVectorOf@VXercesLocationPath@xercesc_3_1@@@xercesc_3_1@@UAEXXZ 12014c2b f i XTemplateSerializer.obj
 0001:00013c2b       ?removeLastElement@?$BaseRefVectorOf@VXercesStep@xercesc_3_1@@@xercesc_3_1@@UAEXXZ 12014c2b f i XTemplateSerializer.obj
 0001:00013c2b       ?removeLastElement@?$BaseRefVectorOf@VIC_Field@xercesc_3_1@@@xercesc_3_1@@UAEXXZ 12014c2b f i XTemplateSerializer.obj
 0001:00013c2b       ?removeLastElement@?$BaseRefVectorOf@VIdentityConstraint@xercesc_3_1@@@xercesc_3_1@@UAEXXZ 12014c2b f i XTemplateSerializer.obj
 0001:00013c2b       ?removeLastElement@?$BaseRefVectorOf@VSchemaAttDef@xercesc_3_1@@@xercesc_3_1@@UAEXXZ 12014c2b f i XTemplateSerializer.obj
 0001:00013c4f       ?elementAt@?$BaseRefVectorOf@VXercesStep@xercesc_3_1@@@xercesc_3_1@@QAEPAVXercesStep@2@K@Z 12014c4f f i XTemplateSerializer.obj
 0001:00013c4f       ?elementAt@?$BaseRefVectorOf@VXMLNumber@xercesc_3_1@@@xercesc_3_1@@QAEPAVXMLNumber@2@K@Z 12014c4f f i XTemplateSerializer.obj
 0001:00013c4f       ?elementAt@?$BaseRefVectorOf@VSchemaElementDecl@xercesc_3_1@@@xercesc_3_1@@QAEPAVSchemaElementDecl@2@K@Z 12014c4f f i XSObjectFactory.obj
 0001:00013c4f       ?elementAt@?$BaseRefVectorOf@G@xercesc_3_1@@QAEPAGK@Z 12014c4f f i BinHTTPInputStreamCommon.obj
 0001:00013c4f       ?elementAt@?$BaseRefVectorOf@VIC_Field@xercesc_3_1@@@xercesc_3_1@@QAEPAVIC_Field@2@K@Z 12014c4f f i XSObjectFactory.obj
 0001:00013c4f       ?elementAt@?$BaseRefVectorOf@VReferencePosition@RegxParser@xercesc_3_1@@@xercesc_3_1@@QAEPAVReferencePosition@RegxParser@2@K@Z 12014c4f f i RegxParser.obj
 0001:00013c4f       ?elementAt@?$BaseRefVectorOf@VIdentityConstraint@xercesc_3_1@@@xercesc_3_1@@QAEPAVIdentityConstraint@2@K@Z 12014c4f f i XSObjectFactory.obj
 0001:00013c4f       ?elementAt@?$BaseRefVectorOf@VSchemaAttDef@xercesc_3_1@@@xercesc_3_1@@QAEPAVSchemaAttDef@2@K@Z 12014c4f f i XSObjectFactory.obj
 0001:00013c4f       ?elementAt@?$BaseRefVectorOf@VDatatypeValidator@xercesc_3_1@@@xercesc_3_1@@QAEPAVDatatypeValidator@2@K@Z 12014c4f f i XSObjectFactory.obj
 0001:00013c4f       ?elementAt@?$BaseRefVectorOf@VToken@xercesc_3_1@@@xercesc_3_1@@QAEPAVToken@2@K@Z 12014c4f f i UnionToken.obj
 0001:00013c4f       ?elementAt@?$BaseRefVectorOf@VXercesLocationPath@xercesc_3_1@@@xercesc_3_1@@QAEPAVXercesLocationPath@2@K@Z 12014c4f f i XTemplateSerializer.obj
 0001:00013c4f       ?elementAt@?$BaseRefVectorOf@VOp@xercesc_3_1@@@xercesc_3_1@@QAEPAVOp@2@K@Z 12014c4f f i Op.obj
 0001:00013c8a       ??0?$RefVectorOf@VXMLNumber@xercesc_3_1@@@xercesc_3_1@@QAE@K_NQAVMemoryManager@1@@Z 12014c8a f i XTemplateSerializer.obj
 0001:00013c9c       ??1?$RefVectorOf@VXMLNumber@xercesc_3_1@@@xercesc_3_1@@UAE@XZ 12014c9c f i XTemplateSerializer.obj
 0001:00013cf9       ??1?$BaseRefVectorOf@VXercesLocationPath@xercesc_3_1@@@xercesc_3_1@@UAE@XZ 12014cf9 f i XTemplateSerializer.obj
 0001:00013d00       ??0?$RefVectorOf@VXercesLocationPath@xercesc_3_1@@@xercesc_3_1@@QAE@K_NQAVMemoryManager@1@@Z 12014d00 f i XTemplateSerializer.obj
 0001:00013d12       ??1?$RefVectorOf@VXercesLocationPath@xercesc_3_1@@@xercesc_3_1@@UAE@XZ 12014d12 f i XTemplateSerializer.obj
 0001:00013d6f       ?nextElementKey@?$RefHashTableOfEnumerator@VXercesAttGroupInfo@xercesc_3_1@@UStringHasher@2@@xercesc_3_1@@QAEPAXXZ 12014d6f f i XTemplateSerializer.obj
 0001:00013d6f       ?nextElementKey@?$RefHashTableOfEnumerator@VXMLAttDef@xercesc_3_1@@UStringHasher@2@@xercesc_3_1@@QAEPAXXZ 12014d6f f i XTemplateSerializer.obj
 0001:00013d6f       ?nextElementKey@?$RefHashTableOfEnumerator@VDTDAttDef@xercesc_3_1@@UStringHasher@2@@xercesc_3_1@@QAEPAXXZ 12014d6f f i XTemplateSerializer.obj
 0001:00013d6f       ?nextElementKey@?$RefHashTableOfEnumerator@VKVStringPair@xercesc_3_1@@UStringHasher@2@@xercesc_3_1@@QAEPAXXZ 12014d6f f i XTemplateSerializer.obj
 0001:00013d6f       ?nextElementKey@?$RefHashTableOfEnumerator@VComplexTypeInfo@xercesc_3_1@@UStringHasher@2@@xercesc_3_1@@QAEPAXXZ 12014d6f f i XTemplateSerializer.obj
 0001:00013d6f       ?nextElementKey@?$RefHashTableOfEnumerator@VXSAnnotation@xercesc_3_1@@UPtrHasher@2@@xercesc_3_1@@QAEPAXXZ 12014d6f f i XTemplateSerializer.obj
 0001:00013d6f       ?nextElementKey@?$RefHashTableOfEnumerator@VXercesGroupInfo@xercesc_3_1@@UStringHasher@2@@xercesc_3_1@@QAEPAXXZ 12014d6f f i XTemplateSerializer.obj
 0001:00013d6f       ?nextElementKey@?$RefHashTableOfEnumerator@VDatatypeValidator@xercesc_3_1@@UStringHasher@2@@xercesc_3_1@@QAEPAXXZ 12014d6f f i XTemplateSerializer.obj
 0001:00013db9       ??0?$RefHashTableOfEnumerator@VDTDAttDef@xercesc_3_1@@UStringHasher@2@@xercesc_3_1@@QAE@QAV?$RefHashTableOf@VDTDAttDef@xercesc_3_1@@UStringHasher@2@@1@_NQAVMemoryManager@1@@Z 12014db9 f i XTemplateSerializer.obj
 0001:00013e28       ??1?$RefHashTableOfEnumerator@VDTDAttDef@xercesc_3_1@@UStringHasher@2@@xercesc_3_1@@UAE@XZ 12014e28 f i XTemplateSerializer.obj
 0001:00013e6b       ?put@?$RefHashTableOf@VKVStringPair@xercesc_3_1@@UStringHasher@2@@xercesc_3_1@@QAEXPAXQAVKVStringPair@2@@Z 12014e6b f i XTemplateSerializer.obj
 0001:00013e6b       ?put@?$RefHashTableOf@VDatatypeValidator@xercesc_3_1@@UStringHasher@2@@xercesc_3_1@@QAEXPAXQAVDatatypeValidator@2@@Z 12014e6b f i XTemplateSerializer.obj
 0001:00013e6b       ?put@?$RefHashTableOf@VXMLNotationDecl@xercesc_3_1@@UStringHasher@2@@xercesc_3_1@@QAEXPAXQAVXMLNotationDecl@2@@Z 12014e6b f i XTemplateSerializer.obj
 0001:00013e6b       ?put@?$RefHashTableOf@VDTDElementDecl@xercesc_3_1@@UStringHasher@2@@xercesc_3_1@@QAEXPAXQAVDTDElementDecl@2@@Z 12014e6b f i DGXMLScanner.obj
 0001:00013e6b       ?put@?$RefHashTableOf@VGrammar@xercesc_3_1@@UStringHasher@2@@xercesc_3_1@@QAEXPAXQAVGrammar@2@@Z 12014e6b f i XMLGrammarPoolImpl.obj
 0001:00013e6b       ?put@?$RefHashTableOf@VXercesAttGroupInfo@xercesc_3_1@@UStringHasher@2@@xercesc_3_1@@QAEXPAXQAVXercesAttGroupInfo@2@@Z 12014e6b f i XTemplateSerializer.obj
 0001:00013e6b       ?put@?$RefHashTableOf@VXMLAttDef@xercesc_3_1@@UStringHasher@2@@xercesc_3_1@@QAEXPAXQAVXMLAttDef@2@@Z 12014e6b f i XTemplateSerializer.obj
 0001:00013e6b       ?put@?$RefHashTableOf@VDTDEntityDecl@xercesc_3_1@@UStringHasher@2@@xercesc_3_1@@QAEXPAXQAVDTDEntityDecl@2@@Z 12014e6b f i XTemplateSerializer.obj
 0001:00013e6b       ?put@?$RefHashTableOf@VDTDAttDef@xercesc_3_1@@UStringHasher@2@@xercesc_3_1@@QAEXPAXQAVDTDAttDef@2@@Z 12014e6b f i XTemplateSerializer.obj
 0001:00013e6b       ?put@?$RefHashTableOf@VComplexTypeInfo@xercesc_3_1@@UStringHasher@2@@xercesc_3_1@@QAEXPAXQAVComplexTypeInfo@2@@Z 12014e6b f i XTemplateSerializer.obj
 0001:00013e6b       ?put@?$RefHashTableOf@VXercesGroupInfo@xercesc_3_1@@UStringHasher@2@@xercesc_3_1@@QAEXPAXQAVXercesGroupInfo@2@@Z 12014e6b f i XTemplateSerializer.obj
 0001:00013ee6       ??0?$RefHashTableOfEnumerator@VXSAnnotation@xercesc_3_1@@UPtrHasher@2@@xercesc_3_1@@QAE@QAV?$RefHashTableOf@VXSAnnotation@xercesc_3_1@@UPtrHasher@2@@1@_NQAVMemoryManager@1@@Z 12014ee6 f i XTemplateSerializer.obj
 0001:00013f55       ??1?$RefHashTableOfEnumerator@VXSAnnotation@xercesc_3_1@@UPtrHasher@2@@xercesc_3_1@@UAE@XZ 12014f55 f i XTemplateSerializer.obj
 0001:00013f98       ?Reset@?$RefHashTableOfEnumerator@VXSAnnotation@xercesc_3_1@@UPtrHasher@2@@xercesc_3_1@@UAEXXZ 12014f98 f i XTemplateSerializer.obj
 0001:00013f98       ?Reset@?$RefHashTableOfEnumerator@VDatatypeValidator@xercesc_3_1@@UStringHasher@2@@xercesc_3_1@@UAEXXZ 12014f98 f i XSModel.obj
 0001:00013f98       ?Reset@?$RefHashTableOfEnumerator@VXercesAttGroupInfo@xercesc_3_1@@UStringHasher@2@@xercesc_3_1@@UAEXXZ 12014f98 f i XSModel.obj
 0001:00013f98       ?Reset@?$RefHashTableOfEnumerator@VKVStringPair@xercesc_3_1@@UStringHasher@2@@xercesc_3_1@@UAEXXZ 12014f98 f i XSObjectFactory.obj
 0001:00013f98       ?Reset@?$RefHashTableOfEnumerator@VXMLAttDef@xercesc_3_1@@UStringHasher@2@@xercesc_3_1@@UAEXXZ 12014f98 f i XSModel.obj
 0001:00013f98       ?Reset@?$RefHashTableOfEnumerator@VXercesGroupInfo@xercesc_3_1@@UStringHasher@2@@xercesc_3_1@@UAEXXZ 12014f98 f i XSModel.obj
 0001:00013f98       ?Reset@?$RefHashTableOfEnumerator@VComplexTypeInfo@xercesc_3_1@@UStringHasher@2@@xercesc_3_1@@UAEXXZ 12014f98 f i XSModel.obj
 0001:00013f98       ?Reset@?$RefHashTableOfEnumerator@VDTDAttDef@xercesc_3_1@@UStringHasher@2@@xercesc_3_1@@UAEXXZ 12014f98 f i XTemplateSerializer.obj
 0001:00013fa7       ??0?$RefHash2KeysTableOf@V?$ValueVectorOf@PAVSchemaElementDecl@xercesc_3_1@@@xercesc_3_1@@UStringHasher@2@@xercesc_3_1@@QAE@K_NQAVMemoryManager@1@@Z 12014fa7 f i XTemplateSerializer.obj
 0001:00013fa7       ??0?$RefHash2KeysTableOf@VSchemaAttDef@xercesc_3_1@@UStringHasher@2@@xercesc_3_1@@QAE@K_NQAVMemoryManager@1@@Z 12014fa7 f i XTemplateSerializer.obj
 0001:00013fca       ?get@?$RefHash2KeysTableOf@VSchemaAttDef@xercesc_3_1@@UStringHasher@2@@xercesc_3_1@@QAEPAVSchemaAttDef@2@QBXH@Z 12014fca f i IGXMLScanner2.obj
 0001:00013fca       ?get@?$RefHash2KeysTableOf@V?$ValueVectorOf@PAVSchemaElementDecl@xercesc_3_1@@@xercesc_3_1@@UStringHasher@2@@xercesc_3_1@@QAEPAV?$ValueVectorOf@PAVSchemaElementDecl@xercesc_3_1@@@2@QBXH@Z 12014fca f i XTemplateSerializer.obj
 0001:00013fe9       ?put@?$RefHash2KeysTableOf@V?$ValueVectorOf@PAVSchemaElementDecl@xercesc_3_1@@@xercesc_3_1@@UStringHasher@2@@xercesc_3_1@@QAEXPAXHQAV?$ValueVectorOf@PAVSchemaElementDecl@xercesc_3_1@@@2@@Z 12014fe9 f i XTemplateSerializer.obj
 0001:00014072       ??0?$RefHash2KeysTableOfEnumerator@V?$ValueVectorOf@PAVSchemaElementDecl@xercesc_3_1@@@xercesc_3_1@@UStringHasher@2@@xercesc_3_1@@QAE@QAV?$RefHash2KeysTableOf@V?$ValueVectorOf@PAVSchemaElementDecl@xercesc_3_1@@@xercesc_3_1@@UStringHasher@2@@1@_NQAVMemoryManager@1@@Z 12015072 f i XTemplateSerializer.obj
 0001:000140e3       ??1?$RefHash2KeysTableOfEnumerator@V?$ValueVectorOf@PAVSchemaElementDecl@xercesc_3_1@@@xercesc_3_1@@UStringHasher@2@@xercesc_3_1@@UAE@XZ 120150e3 f i XTemplateSerializer.obj
 0001:00014126       ?nextElement@?$RefHash2KeysTableOfEnumerator@V?$ValueVectorOf@PAVSchemaElementDecl@xercesc_3_1@@@xercesc_3_1@@UStringHasher@2@@xercesc_3_1@@UAEAAV?$ValueVectorOf@PAVSchemaElementDecl@xercesc_3_1@@@2@XZ 12015126 f i XTemplateSerializer.obj
 0001:00014126       ?nextElement@?$RefHash2KeysTableOfEnumerator@VSchemaAttDef@xercesc_3_1@@UStringHasher@2@@xercesc_3_1@@UAEAAVSchemaAttDef@2@XZ 12015126 f i XTemplateSerializer.obj
 0001:0001416f       ?Reset@?$RefHash2KeysTableOfEnumerator@VSchemaAttDef@xercesc_3_1@@UStringHasher@2@@xercesc_3_1@@UAEXXZ 1201516f f i XTemplateSerializer.obj
 0001:0001416f       ?Reset@?$RefHash2KeysTableOfEnumerator@V?$ValueVectorOf@PAVSchemaElementDecl@xercesc_3_1@@@xercesc_3_1@@UStringHasher@2@@xercesc_3_1@@UAEXXZ 1201516f f i XTemplateSerializer.obj
 0001:00014199       ?put@?$NameIdPool@VDTDEntityDecl@xercesc_3_1@@@xercesc_3_1@@QAEKQAVDTDEntityDecl@2@@Z 12015199 f i XTemplateSerializer.obj
 0001:0001425a       ??1?$NameIdPoolEnumerator@VDTDElementDecl@xercesc_3_1@@@xercesc_3_1@@UAE@XZ 1201525a f i XTemplateSerializer.obj
 0001:00014261       ??1?$NameIdPoolEnumerator@VDTDEntityDecl@xercesc_3_1@@@xercesc_3_1@@UAE@XZ 12015261 f i XTemplateSerializer.obj
 0001:00014268       ?hasMoreElements@?$NameIdPoolEnumerator@VDTDElementDecl@xercesc_3_1@@@xercesc_3_1@@UBE_NXZ 12015268 f i XTemplateSerializer.obj
 0001:00014268       ?hasMoreElements@?$NameIdPoolEnumerator@VDTDEntityDecl@xercesc_3_1@@@xercesc_3_1@@UBE_NXZ 12015268 f i XTemplateSerializer.obj
 0001:00014268       ?hasMoreElements@?$NameIdPoolEnumerator@VXMLNotationDecl@xercesc_3_1@@@xercesc_3_1@@UBE_NXZ 12015268 f i XSModel.obj
 0001:0001427d       ?nextElement@?$NameIdPoolEnumerator@VDTDElementDecl@xercesc_3_1@@@xercesc_3_1@@UAEAAVDTDElementDecl@2@XZ 1201527d f i XTemplateSerializer.obj
 0001:0001427d       ?nextElement@?$NameIdPoolEnumerator@VDTDEntityDecl@xercesc_3_1@@@xercesc_3_1@@UAEAAVDTDEntityDecl@2@XZ 1201527d f i XTemplateSerializer.obj
 0001:0001427d       ?nextElement@?$NameIdPoolEnumerator@VXMLNotationDecl@xercesc_3_1@@@xercesc_3_1@@UAEAAVXMLNotationDecl@2@XZ 1201527d f i XSModel.obj
 0001:000142c7       ??_E?$BaseRefVectorOf@VDatatypeValidator@xercesc_3_1@@@xercesc_3_1@@UAEPAXI@Z 120152c7 f i XTemplateSerializer.obj
 0001:000142c7       ??_G?$BaseRefVectorOf@VDatatypeValidator@xercesc_3_1@@@xercesc_3_1@@UAEPAXI@Z 120152c7 f i XTemplateSerializer.obj
 0001:000142e4       ??_E?$RefVectorOf@VDatatypeValidator@xercesc_3_1@@@xercesc_3_1@@UAEPAXI@Z 120152e4 f i XTemplateSerializer.obj
 0001:000142e4       ??_G?$RefVectorOf@VDatatypeValidator@xercesc_3_1@@@xercesc_3_1@@UAEPAXI@Z 120152e4 f i XTemplateSerializer.obj
 0001:00014301       ??_E?$BaseRefVectorOf@VSchemaElementDecl@xercesc_3_1@@@xercesc_3_1@@UAEPAXI@Z 12015301 f i XTemplateSerializer.obj
 0001:00014301       ??_G?$BaseRefVectorOf@VSchemaElementDecl@xercesc_3_1@@@xercesc_3_1@@UAEPAXI@Z 12015301 f i XTemplateSerializer.obj
 0001:0001431e       ??_G?$RefVectorOf@VSchemaElementDecl@xercesc_3_1@@@xercesc_3_1@@UAEPAXI@Z 1201531e f i XTemplateSerializer.obj
 0001:0001431e       ??_E?$RefVectorOf@VSchemaElementDecl@xercesc_3_1@@@xercesc_3_1@@UAEPAXI@Z 1201531e f i XTemplateSerializer.obj
 0001:0001433b       ??_G?$RefHash2KeysTableOfEnumerator@VSchemaAttDef@xercesc_3_1@@UStringHasher@2@@xercesc_3_1@@UAEPAXI@Z 1201533b f i XTemplateSerializer.obj
 0001:0001433b       ??_E?$RefHash2KeysTableOfEnumerator@VSchemaAttDef@xercesc_3_1@@UStringHasher@2@@xercesc_3_1@@UAEPAXI@Z 1201533b f i XTemplateSerializer.obj
 0001:00014357       ??_G?$RefHash2KeysTableOf@VSchemaAttDef@xercesc_3_1@@UStringHasher@2@@xercesc_3_1@@QAEPAXI@Z 12015357 f i XTemplateSerializer.obj
 0001:00014377       ??_G?$BaseRefVectorOf@VIC_Field@xercesc_3_1@@@xercesc_3_1@@UAEPAXI@Z 12015377 f i XTemplateSerializer.obj
 0001:00014377       ??_E?$BaseRefVectorOf@VIC_Field@xercesc_3_1@@@xercesc_3_1@@UAEPAXI@Z 12015377 f i XTemplateSerializer.obj
 0001:00014394       ??_E?$RefVectorOf@VIC_Field@xercesc_3_1@@@xercesc_3_1@@UAEPAXI@Z 12015394 f i XTemplateSerializer.obj
 0001:00014394       ??_G?$RefVectorOf@VIC_Field@xercesc_3_1@@@xercesc_3_1@@UAEPAXI@Z 12015394 f i XTemplateSerializer.obj
 0001:000143b1       ??_G?$BaseRefVectorOf@VIdentityConstraint@xercesc_3_1@@@xercesc_3_1@@UAEPAXI@Z 120153b1 f i XTemplateSerializer.obj
 0001:000143b1       ??_E?$BaseRefVectorOf@VIdentityConstraint@xercesc_3_1@@@xercesc_3_1@@UAEPAXI@Z 120153b1 f i XTemplateSerializer.obj
 0001:000143ce       ??_E?$RefVectorOf@VIdentityConstraint@xercesc_3_1@@@xercesc_3_1@@UAEPAXI@Z 120153ce f i XTemplateSerializer.obj
 0001:000143ce       ??_G?$RefVectorOf@VIdentityConstraint@xercesc_3_1@@@xercesc_3_1@@UAEPAXI@Z 120153ce f i XTemplateSerializer.obj
 0001:000143eb       ??_E?$BaseRefVectorOf@VSchemaAttDef@xercesc_3_1@@@xercesc_3_1@@UAEPAXI@Z 120153eb f i XTemplateSerializer.obj
 0001:000143eb       ??_G?$BaseRefVectorOf@VSchemaAttDef@xercesc_3_1@@@xercesc_3_1@@UAEPAXI@Z 120153eb f i XTemplateSerializer.obj
 0001:00014408       ??_E?$RefVectorOf@VSchemaAttDef@xercesc_3_1@@@xercesc_3_1@@UAEPAXI@Z 12015408 f i XTemplateSerializer.obj
 0001:00014408       ??_G?$RefVectorOf@VSchemaAttDef@xercesc_3_1@@@xercesc_3_1@@UAEPAXI@Z 12015408 f i XTemplateSerializer.obj
 0001:00014425       ??_E?$BaseRefVectorOf@VXercesStep@xercesc_3_1@@@xercesc_3_1@@UAEPAXI@Z 12015425 f i XTemplateSerializer.obj
 0001:00014425       ??_G?$BaseRefVectorOf@VXercesStep@xercesc_3_1@@@xercesc_3_1@@UAEPAXI@Z 12015425 f i XTemplateSerializer.obj
 0001:00014442       ??_E?$RefVectorOf@VXercesStep@xercesc_3_1@@@xercesc_3_1@@UAEPAXI@Z 12015442 f i XTemplateSerializer.obj
 0001:00014442       ??_G?$RefVectorOf@VXercesStep@xercesc_3_1@@@xercesc_3_1@@UAEPAXI@Z 12015442 f i XTemplateSerializer.obj
 0001:0001445f       ??_E?$BaseRefVectorOf@VXMLNumber@xercesc_3_1@@@xercesc_3_1@@UAEPAXI@Z 1201545f f i XTemplateSerializer.obj
 0001:0001445f       ??_G?$BaseRefVectorOf@VXMLNumber@xercesc_3_1@@@xercesc_3_1@@UAEPAXI@Z 1201545f f i XTemplateSerializer.obj
 0001:0001447c       ??_G?$RefVectorOf@VXMLNumber@xercesc_3_1@@@xercesc_3_1@@UAEPAXI@Z 1201547c f i XTemplateSerializer.obj
 0001:0001447c       ??_E?$RefVectorOf@VXMLNumber@xercesc_3_1@@@xercesc_3_1@@UAEPAXI@Z 1201547c f i XTemplateSerializer.obj
 0001:00014499       ??_E?$BaseRefVectorOf@VXercesLocationPath@xercesc_3_1@@@xercesc_3_1@@UAEPAXI@Z 12015499 f i XTemplateSerializer.obj
 0001:00014499       ??_G?$BaseRefVectorOf@VXercesLocationPath@xercesc_3_1@@@xercesc_3_1@@UAEPAXI@Z 12015499 f i XTemplateSerializer.obj
 0001:000144b6       ??_G?$RefVectorOf@VXercesLocationPath@xercesc_3_1@@@xercesc_3_1@@UAEPAXI@Z 120154b6 f i XTemplateSerializer.obj
 0001:000144b6       ??_E?$RefVectorOf@VXercesLocationPath@xercesc_3_1@@@xercesc_3_1@@UAEPAXI@Z 120154b6 f i XTemplateSerializer.obj
 0001:000144d3       ??_E?$RefHashTableOfEnumerator@VDTDAttDef@xercesc_3_1@@UStringHasher@2@@xercesc_3_1@@UAEPAXI@Z 120154d3 f i XTemplateSerializer.obj
 0001:000144d3       ??_G?$RefHashTableOfEnumerator@VDTDAttDef@xercesc_3_1@@UStringHasher@2@@xercesc_3_1@@UAEPAXI@Z 120154d3 f i XTemplateSerializer.obj
 0001:000144ef       ??_G?$RefHashTableOfEnumerator@VXSAnnotation@xercesc_3_1@@UPtrHasher@2@@xercesc_3_1@@UAEPAXI@Z 120154ef f i XTemplateSerializer.obj
 0001:000144ef       ??_E?$RefHashTableOfEnumerator@VXSAnnotation@xercesc_3_1@@UPtrHasher@2@@xercesc_3_1@@UAEPAXI@Z 120154ef f i XTemplateSerializer.obj
 0001:0001450b       ??_G?$RefHashTableOf@VDatatypeValidator@xercesc_3_1@@UStringHasher@2@@xercesc_3_1@@QAEPAXI@Z 1201550b f i XSModel.obj
 0001:0001450b       ??_G?$RefHashTableOf@VXMLAttDef@xercesc_3_1@@UStringHasher@2@@xercesc_3_1@@QAEPAXI@Z 1201550b f i XSModel.obj
 0001:0001450b       ??_G?$RefHashTableOf@VComplexTypeInfo@xercesc_3_1@@UStringHasher@2@@xercesc_3_1@@QAEPAXI@Z 1201550b f i XSModel.obj
 0001:0001450b       ??_G?$RefHashTableOf@VXercesAttGroupInfo@xercesc_3_1@@UStringHasher@2@@xercesc_3_1@@QAEPAXI@Z 1201550b f i XSModel.obj
 0001:0001450b       ??_G?$RefHashTableOf@VXSAnnotation@xercesc_3_1@@UPtrHasher@2@@xercesc_3_1@@QAEPAXI@Z 1201550b f i XTemplateSerializer.obj
 0001:0001450b       ??_G?$RefHashTableOf@VDTDAttDef@xercesc_3_1@@UStringHasher@2@@xercesc_3_1@@QAEPAXI@Z 1201550b f i XTemplateSerializer.obj
 0001:0001450b       ??_G?$RefHashTableOf@VXercesGroupInfo@xercesc_3_1@@UStringHasher@2@@xercesc_3_1@@QAEPAXI@Z 1201550b f i XSModel.obj
 0001:0001450b       ??_G?$RefHashTableOf@VKVStringPair@xercesc_3_1@@UStringHasher@2@@xercesc_3_1@@QAEPAXI@Z 1201550b f i XSObjectFactory.obj
 0001:0001452b       ??_G?$RefHash2KeysTableOfEnumerator@V?$ValueVectorOf@PAVSchemaElementDecl@xercesc_3_1@@@xercesc_3_1@@UStringHasher@2@@xercesc_3_1@@UAEPAXI@Z 1201552b f i XTemplateSerializer.obj
 0001:0001452b       ??_E?$RefHash2KeysTableOfEnumerator@V?$ValueVectorOf@PAVSchemaElementDecl@xercesc_3_1@@@xercesc_3_1@@UStringHasher@2@@xercesc_3_1@@UAEPAXI@Z 1201552b f i XTemplateSerializer.obj
 0001:00014547       ??_G?$RefHash2KeysTableOf@V?$ValueVectorOf@PAVSchemaElementDecl@xercesc_3_1@@@xercesc_3_1@@UStringHasher@2@@xercesc_3_1@@QAEPAXI@Z 12015547 f i XTemplateSerializer.obj
 0001:00014567       ??_E?$NameIdPoolEnumerator@VDTDElementDecl@xercesc_3_1@@@xercesc_3_1@@UAEPAXI@Z 12015567 f i XTemplateSerializer.obj
 0001:00014567       ??_G?$NameIdPoolEnumerator@VDTDElementDecl@xercesc_3_1@@@xercesc_3_1@@UAEPAXI@Z 12015567 f i XTemplateSerializer.obj
 0001:00014583       ??_G?$NameIdPoolEnumerator@VDTDEntityDecl@xercesc_3_1@@@xercesc_3_1@@UAEPAXI@Z 12015583 f i XTemplateSerializer.obj
 0001:00014583       ??_E?$NameIdPoolEnumerator@VDTDEntityDecl@xercesc_3_1@@@xercesc_3_1@@UAEPAXI@Z 12015583 f i XTemplateSerializer.obj
 0001:0001459f       ??0?$BaseRefVectorOf@VDatatypeValidator@xercesc_3_1@@@xercesc_3_1@@QAE@K_NQAVMemoryManager@1@@Z 1201559f f i XTemplateSerializer.obj
 0001:000145d9       ??0?$BaseRefVectorOf@VSchemaElementDecl@xercesc_3_1@@@xercesc_3_1@@QAE@K_NQAVMemoryManager@1@@Z 120155d9 f i XTemplateSerializer.obj
 0001:00014613       ?ensureExtraCapacity@?$BaseRefVectorOf@VIC_Field@xercesc_3_1@@@xercesc_3_1@@QAEXK@Z 12015613 f i XTemplateSerializer.obj
 0001:00014613       ?ensureExtraCapacity@?$BaseRefVectorOf@VIdentityConstraint@xercesc_3_1@@@xercesc_3_1@@QAEXK@Z 12015613 f i XTemplateSerializer.obj
 0001:00014613       ?ensureExtraCapacity@?$BaseRefVectorOf@VXercesLocationPath@xercesc_3_1@@@xercesc_3_1@@QAEXK@Z 12015613 f i XTemplateSerializer.obj
 0001:00014613       ?ensureExtraCapacity@?$BaseRefVectorOf@VSchemaElementDecl@xercesc_3_1@@@xercesc_3_1@@QAEXK@Z 12015613 f i XTemplateSerializer.obj
 0001:00014613       ?ensureExtraCapacity@?$BaseRefVectorOf@VXMLNumber@xercesc_3_1@@@xercesc_3_1@@QAEXK@Z 12015613 f i XTemplateSerializer.obj
 0001:00014613       ?ensureExtraCapacity@?$BaseRefVectorOf@VToken@xercesc_3_1@@@xercesc_3_1@@QAEXK@Z 12015613 f i TokenFactory.obj
 0001:00014613       ?ensureExtraCapacity@?$BaseRefVectorOf@G@xercesc_3_1@@QAEXK@Z 12015613 f i XMLString.obj
 0001:00014613       ?ensureExtraCapacity@?$BaseRefVectorOf@VXercesStep@xercesc_3_1@@@xercesc_3_1@@QAEXK@Z 12015613 f i XTemplateSerializer.obj
 0001:00014613       ?ensureExtraCapacity@?$BaseRefVectorOf@VReferencePosition@RegxParser@xercesc_3_1@@@xercesc_3_1@@QAEXK@Z 12015613 f i RegxParser.obj
 0001:00014613       ?ensureExtraCapacity@?$BaseRefVectorOf@VSchemaAttDef@xercesc_3_1@@@xercesc_3_1@@QAEXK@Z 12015613 f i XTemplateSerializer.obj
 0001:00014613       ?ensureExtraCapacity@?$BaseRefVectorOf@VOp@xercesc_3_1@@@xercesc_3_1@@QAEXK@Z 12015613 f i Op.obj
 0001:00014613       ?ensureExtraCapacity@?$BaseRefVectorOf@VDatatypeValidator@xercesc_3_1@@@xercesc_3_1@@QAEXK@Z 12015613 f i XTemplateSerializer.obj
 0001:00014681       ??1?$RefHash2KeysTableOf@VSchemaAttDef@xercesc_3_1@@UStringHasher@2@@xercesc_3_1@@QAE@XZ 12015681 f i XTemplateSerializer.obj
 0001:00014699       ?initialize@?$RefHash2KeysTableOf@V?$ValueVectorOf@PAVSchemaElementDecl@xercesc_3_1@@@xercesc_3_1@@UStringHasher@2@@xercesc_3_1@@AAEXK@Z 12015699 f i XTemplateSerializer.obj
 0001:00014699       ?initialize@?$RefHash2KeysTableOf@VSchemaAttDef@xercesc_3_1@@UStringHasher@2@@xercesc_3_1@@AAEXK@Z 12015699 f i XTemplateSerializer.obj
 0001:000146ee       ?rehash@?$RefHash2KeysTableOf@V?$ValueVectorOf@PAVSchemaElementDecl@xercesc_3_1@@@xercesc_3_1@@UStringHasher@2@@xercesc_3_1@@AAEXXZ 120156ee f i XTemplateSerializer.obj
 0001:000146ee       ?rehash@?$RefHash2KeysTableOf@VSchemaAttDef@xercesc_3_1@@UStringHasher@2@@xercesc_3_1@@AAEXXZ 120156ee f i XTemplateSerializer.obj
 0001:000147aa       ?findNext@?$RefHash2KeysTableOfEnumerator@VSchemaAttDef@xercesc_3_1@@UStringHasher@2@@xercesc_3_1@@AAEXXZ 120157aa f i XTemplateSerializer.obj
 0001:000147aa       ?findNext@?$RefHash2KeysTableOfEnumerator@V?$ValueVectorOf@PAVSchemaElementDecl@xercesc_3_1@@@xercesc_3_1@@UStringHasher@2@@xercesc_3_1@@AAEXXZ 120157aa f i XTemplateSerializer.obj
 0001:00014843       ??0?$BaseRefVectorOf@VIC_Field@xercesc_3_1@@@xercesc_3_1@@QAE@K_NQAVMemoryManager@1@@Z 12015843 f i XTemplateSerializer.obj
 0001:0001487d       ??0?$BaseRefVectorOf@VIdentityConstraint@xercesc_3_1@@@xercesc_3_1@@QAE@K_NQAVMemoryManager@1@@Z 1201587d f i XTemplateSerializer.obj
 0001:000148b7       ??0?$BaseRefVectorOf@VSchemaAttDef@xercesc_3_1@@@xercesc_3_1@@QAE@K_NQAVMemoryManager@1@@Z 120158b7 f i XTemplateSerializer.obj
 0001:000148f1       ?containsKey@?$NameIdPool@VXMLNotationDecl@xercesc_3_1@@@xercesc_3_1@@QBE_NQBG@Z 120158f1 f i XTemplateSerializer.obj
 0001:000148f1       ?containsKey@?$NameIdPool@VDTDElementDecl@xercesc_3_1@@@xercesc_3_1@@QBE_NQBG@Z 120158f1 f i DGXMLScanner.obj
 0001:000148f1       ?containsKey@?$NameIdPool@VDTDEntityDecl@xercesc_3_1@@@xercesc_3_1@@QBE_NQBG@Z 120158f1 f i XTemplateSerializer.obj
 0001:0001490b       ??0?$RefHashTableOf@VDTDEntityDecl@xercesc_3_1@@UStringHasher@2@@xercesc_3_1@@QAE@KQAVMemoryManager@1@@Z 1201590b f i XTemplateSerializer.obj
 0001:0001490b       ??0?$RefHashTableOf@VDTDElementDecl@xercesc_3_1@@UStringHasher@2@@xercesc_3_1@@QAE@KQAVMemoryManager@1@@Z 1201590b f i DGXMLScanner.obj
 0001:0001490b       ??0?$RefHashTableOf@VXMLNotationDecl@xercesc_3_1@@UStringHasher@2@@xercesc_3_1@@QAE@KQAVMemoryManager@1@@Z 1201590b f i XTemplateSerializer.obj
 0001:0001492c       ??1?$RefHashTableOf@VXMLNotationDecl@xercesc_3_1@@UStringHasher@2@@xercesc_3_1@@QAE@XZ 1201592c f i XTemplateSerializer.obj
 0001:0001492c       ??1?$RefHashTableOf@VDTDEntityDecl@xercesc_3_1@@UStringHasher@2@@xercesc_3_1@@QAE@XZ 1201592c f i XTemplateSerializer.obj
 0001:0001492c       ??1?$RefHashTableOf@VDTDElementDecl@xercesc_3_1@@UStringHasher@2@@xercesc_3_1@@QAE@XZ 1201592c f i DGXMLScanner.obj
 0001:00014931       ??0?$BaseRefVectorOf@VXercesStep@xercesc_3_1@@@xercesc_3_1@@QAE@K_NQAVMemoryManager@1@@Z 12015931 f i XTemplateSerializer.obj
 0001:0001496b       ?ensureExtraCapacity@?$ValueVectorOf@W4NodeTypes@ContentSpecNode@xercesc_3_1@@@xercesc_3_1@@QAEXK@Z 1201596b f i MixedContentModel.obj
 0001:0001496b       ?ensureExtraCapacity@?$ValueVectorOf@PAX@xercesc_3_1@@QAEXK@Z 1201596b f i XSerializeEngine.obj
 0001:0001496b       ?ensureExtraCapacity@?$ValueVectorOf@PAVSchemaElementDecl@xercesc_3_1@@@xercesc_3_1@@QAEXK@Z 1201596b f i XTemplateSerializer.obj
 0001:0001496b       ?ensureExtraCapacity@?$ValueVectorOf@I@xercesc_3_1@@QAEXK@Z 1201596b f i XTemplateSerializer.obj
 0001:0001496b       ?ensureExtraCapacity@?$ValueVectorOf@PAVQName@xercesc_3_1@@@xercesc_3_1@@QAEXK@Z 1201596b f i AllContentModel.obj
 0001:0001496b       ?ensureExtraCapacity@?$ValueVectorOf@PAVContentSpecNode@xercesc_3_1@@@xercesc_3_1@@QAEXK@Z 1201596b f i ContentSpecNode.obj
 0001:000149d7       ??0?$BaseRefVectorOf@VXMLNumber@xercesc_3_1@@@xercesc_3_1@@QAE@K_NQAVMemoryManager@1@@Z 120159d7 f i XTemplateSerializer.obj
 0001:00014a11       ??0?$BaseRefVectorOf@VXercesLocationPath@xercesc_3_1@@@xercesc_3_1@@QAE@K_NQAVMemoryManager@1@@Z 12015a11 f i XTemplateSerializer.obj
 0001:00014a4b       ?rehash@?$RefHashTableOf@VXercesAttGroupInfo@xercesc_3_1@@UStringHasher@2@@xercesc_3_1@@AAEXXZ 12015a4b f i XTemplateSerializer.obj
 0001:00014a4b       ?rehash@?$RefHashTableOf@VKVStringPair@xercesc_3_1@@UStringHasher@2@@xercesc_3_1@@AAEXXZ 12015a4b f i XTemplateSerializer.obj
 0001:00014a4b       ?rehash@?$RefHashTableOf@VDatatypeValidator@xercesc_3_1@@UStringHasher@2@@xercesc_3_1@@AAEXXZ 12015a4b f i XTemplateSerializer.obj
 0001:00014a4b       ?rehash@?$RefHashTableOf@VDTDAttDef@xercesc_3_1@@UStringHasher@2@@xercesc_3_1@@AAEXXZ 12015a4b f i XTemplateSerializer.obj
 0001:00014a4b       ?rehash@?$RefHashTableOf@VXMLAttDef@xercesc_3_1@@UStringHasher@2@@xercesc_3_1@@AAEXXZ 12015a4b f i XTemplateSerializer.obj
 0001:00014a4b       ?rehash@?$RefHashTableOf@VXercesGroupInfo@xercesc_3_1@@UStringHasher@2@@xercesc_3_1@@AAEXXZ 12015a4b f i XTemplateSerializer.obj
 0001:00014a4b       ?rehash@?$RefHashTableOf@VDTDElementDecl@xercesc_3_1@@UStringHasher@2@@xercesc_3_1@@AAEXXZ 12015a4b f i DGXMLScanner.obj
 0001:00014a4b       ?rehash@?$RefHashTableOf@VComplexTypeInfo@xercesc_3_1@@UStringHasher@2@@xercesc_3_1@@AAEXXZ 12015a4b f i XTemplateSerializer.obj
 0001:00014a4b       ?rehash@?$RefHashTableOf@UPoolElem@XMLStringPool@xercesc_3_1@@UStringHasher@3@@xercesc_3_1@@AAEXXZ 12015a4b f i StringPool.obj
 0001:00014a4b       ?rehash@?$RefHashTableOf@VXMLNotationDecl@xercesc_3_1@@UStringHasher@2@@xercesc_3_1@@AAEXXZ 12015a4b f i XTemplateSerializer.obj
 0001:00014a4b       ?rehash@?$RefHashTableOf@VGrammar@xercesc_3_1@@UStringHasher@2@@xercesc_3_1@@AAEXXZ 12015a4b f i XMLGrammarPoolImpl.obj
 0001:00014a4b       ?rehash@?$RefHashTableOf@VDTDEntityDecl@xercesc_3_1@@UStringHasher@2@@xercesc_3_1@@AAEXXZ 12015a4b f i XTemplateSerializer.obj
 0001:00014b04       ?findNext@?$RefHashTableOfEnumerator@VXMLAttDef@xercesc_3_1@@UStringHasher@2@@xercesc_3_1@@AAEXXZ 12015b04 f i XSModel.obj
 0001:00014b04       ?findNext@?$RefHashTableOfEnumerator@VDatatypeValidator@xercesc_3_1@@UStringHasher@2@@xercesc_3_1@@AAEXXZ 12015b04 f i XSModel.obj
 0001:00014b04       ?findNext@?$RefHashTableOfEnumerator@VKVStringPair@xercesc_3_1@@UStringHasher@2@@xercesc_3_1@@AAEXXZ 12015b04 f i XSObjectFactory.obj
 0001:00014b04       ?findNext@?$RefHashTableOfEnumerator@VDTDAttDef@xercesc_3_1@@UStringHasher@2@@xercesc_3_1@@AAEXXZ 12015b04 f i XTemplateSerializer.obj
 0001:00014b04       ?findNext@?$RefHashTableOfEnumerator@VXercesGroupInfo@xercesc_3_1@@UStringHasher@2@@xercesc_3_1@@AAEXXZ 12015b04 f i XSModel.obj
 0001:00014b04       ?findNext@?$RefHashTableOfEnumerator@VXercesAttGroupInfo@xercesc_3_1@@UStringHasher@2@@xercesc_3_1@@AAEXXZ 12015b04 f i XSModel.obj
 0001:00014b04       ?findNext@?$RefHashTableOfEnumerator@VComplexTypeInfo@xercesc_3_1@@UStringHasher@2@@xercesc_3_1@@AAEXXZ 12015b04 f i XSModel.obj
 0001:00014b04       ?findNext@?$RefHashTableOfEnumerator@VXSAnnotation@xercesc_3_1@@UPtrHasher@2@@xercesc_3_1@@AAEXXZ 12015b04 f i XTemplateSerializer.obj
 0001:00014b53       ??1?$RefHash2KeysTableOf@V?$ValueVectorOf@PAVSchemaElementDecl@xercesc_3_1@@@xercesc_3_1@@UStringHasher@2@@xercesc_3_1@@QAE@XZ 12015b53 f i XTemplateSerializer.obj
 0001:00014b6b       ?findBucketElem@?$RefHash2KeysTableOf@V?$ValueVectorOf@PAVSchemaElementDecl@xercesc_3_1@@@xercesc_3_1@@UStringHasher@2@@xercesc_3_1@@AAEPAU?$RefHash2KeysTableBucketElem@V?$ValueVectorOf@PAVSchemaElementDecl@xercesc_3_1@@@xercesc_3_1@@@2@QBXHAAK@Z 12015b6b f i XTemplateSerializer.obj
 0001:00014b6b       ?findBucketElem@?$RefHash2KeysTableOf@VSchemaAttDef@xercesc_3_1@@UStringHasher@2@@xercesc_3_1@@AAEPAU?$RefHash2KeysTableBucketElem@VSchemaAttDef@xercesc_3_1@@@2@QBXHAAK@Z 12015b6b f i IGXMLScanner2.obj
 0001:00014bb3       ?removeAll@?$RefHash2KeysTableOf@VSchemaAttDef@xercesc_3_1@@UStringHasher@2@@xercesc_3_1@@QAEXXZ 12015bb3 f i XTemplateSerializer.obj
 0001:00014c09       ?cleanup@?$RefHashTableOf@VKVStringPair@xercesc_3_1@@UStringHasher@2@@xercesc_3_1@@QAEXXZ 12015c09 f i XSObjectFactory.obj
 0001:00014c09       ?cleanup@?$RefHashTableOf@VXMLNotationDecl@xercesc_3_1@@UStringHasher@2@@xercesc_3_1@@QAEXXZ 12015c09 f i XTemplateSerializer.obj
 0001:00014c09       ?cleanup@?$RefHashTableOf@VXSAnnotation@xercesc_3_1@@UPtrHasher@2@@xercesc_3_1@@QAEXXZ 12015c09 f i XTemplateSerializer.obj
 0001:00014c09       ?cleanup@?$RefHashTableOf@VXercesAttGroupInfo@xercesc_3_1@@UStringHasher@2@@xercesc_3_1@@QAEXXZ 12015c09 f i XSModel.obj
 0001:00014c09       ?cleanup@?$RefHashTableOf@VDTDElementDecl@xercesc_3_1@@UStringHasher@2@@xercesc_3_1@@QAEXXZ 12015c09 f i DGXMLScanner.obj
 0001:00014c09       ?cleanup@?$RefHashTableOf@VDTDAttDef@xercesc_3_1@@UStringHasher@2@@xercesc_3_1@@QAEXXZ 12015c09 f i XTemplateSerializer.obj
 0001:00014c09       ?cleanup@?$RefHashTableOf@VDTDEntityDecl@xercesc_3_1@@UStringHasher@2@@xercesc_3_1@@QAEXXZ 12015c09 f i XTemplateSerializer.obj
 0001:00014c09       ?cleanup@?$RefHashTableOf@VXercesGroupInfo@xercesc_3_1@@UStringHasher@2@@xercesc_3_1@@QAEXXZ 12015c09 f i XSModel.obj
 0001:00014c09       ?cleanup@?$RefHashTableOf@VDatatypeValidator@xercesc_3_1@@UStringHasher@2@@xercesc_3_1@@QAEXXZ 12015c09 f i XSModel.obj
 0001:00014c09       ?cleanup@?$RefHashTableOf@VXMLAttDef@xercesc_3_1@@UStringHasher@2@@xercesc_3_1@@QAEXXZ 12015c09 f i XSModel.obj
 0001:00014c09       ?cleanup@?$RefHashTableOf@VComplexTypeInfo@xercesc_3_1@@UStringHasher@2@@xercesc_3_1@@QAEXXZ 12015c09 f i XSModel.obj
 0001:00014c21       ?removeAll@?$RefHash2KeysTableOf@V?$ValueVectorOf@PAVSchemaElementDecl@xercesc_3_1@@@xercesc_3_1@@UStringHasher@2@@xercesc_3_1@@QAEXXZ 12015c21 f i XTemplateSerializer.obj
 0001:00014c79       ?containsKey@?$RefHashTableOf@VRangeTokenElemMap@xercesc_3_1@@UStringHasher@2@@xercesc_3_1@@QBE_NQBX@Z 12015c79 f i RangeTokenMap.obj
 0001:00014c79       ?containsKey@?$RefHashTableOf@VDTDElementDecl@xercesc_3_1@@UStringHasher@2@@xercesc_3_1@@QBE_NQBX@Z 12015c79 f i DGXMLScanner.obj
 0001:00014c79       ?containsKey@?$RefHashTableOf@VDTDEntityDecl@xercesc_3_1@@UStringHasher@2@@xercesc_3_1@@QBE_NQBX@Z 12015c79 f i XTemplateSerializer.obj
 0001:00014c79       ?containsKey@?$RefHashTableOf@VXMLNotationDecl@xercesc_3_1@@UStringHasher@2@@xercesc_3_1@@QBE_NQBX@Z 12015c79 f i XTemplateSerializer.obj
 0001:00014c79       ?containsKey@?$RefHashTableOf@UPoolElem@XMLStringPool@xercesc_3_1@@UStringHasher@3@@xercesc_3_1@@QBE_NQBX@Z 12015c79 f i StringPool.obj
 0001:00014c95       ?reset@?$ArrayJanitor@PAU?$RefHashTableBucketElem@VDatatypeValidator@xercesc_3_1@@@xercesc_3_1@@@xercesc_3_1@@QAEXPAPAU?$RefHashTableBucketElem@VDatatypeValidator@xercesc_3_1@@@2@@Z 12015c95 f i XTemplateSerializer.obj
 0001:00014c95       ?reset@?$ArrayJanitor@D@xercesc_3_1@@QAEXPAD@Z 12015c95 f i XMLAbstractDoubleFloat.obj
 0001:00014c95       ?reset@?$ArrayJanitor@PAU?$RefHashTableBucketElem@UPoolElem@XMLStringPool@xercesc_3_1@@@xercesc_3_1@@@xercesc_3_1@@QAEXPAPAU?$RefHashTableBucketElem@UPoolElem@XMLStringPool@xercesc_3_1@@@2@@Z 12015c95 f i StringPool.obj
 0001:00014c95       ?reset@?$ArrayJanitor@PAU?$RefHashTableBucketElem@VXercesAttGroupInfo@xercesc_3_1@@@xercesc_3_1@@@xercesc_3_1@@QAEXPAPAU?$RefHashTableBucketElem@VXercesAttGroupInfo@xercesc_3_1@@@2@@Z 12015c95 f i XTemplateSerializer.obj
 0001:00014c95       ?reset@?$ArrayJanitor@PAU?$RefHashTableBucketElem@VDTDEntityDecl@xercesc_3_1@@@xercesc_3_1@@@xercesc_3_1@@QAEXPAPAU?$RefHashTableBucketElem@VDTDEntityDecl@xercesc_3_1@@@2@@Z 12015c95 f i XTemplateSerializer.obj
 0001:00014c95       ?reset@?$ArrayJanitor@PAU?$RefHashTableBucketElem@VDTDAttDef@xercesc_3_1@@@xercesc_3_1@@@xercesc_3_1@@QAEXPAPAU?$RefHashTableBucketElem@VDTDAttDef@xercesc_3_1@@@2@@Z 12015c95 f i XTemplateSerializer.obj
 0001:00014c95       ?reset@?$ArrayJanitor@PAU?$RefHashTableBucketElem@VXSerializedObjectId@xercesc_3_1@@@xercesc_3_1@@@xercesc_3_1@@QAEXPAPAU?$RefHashTableBucketElem@VXSerializedObjectId@xercesc_3_1@@@2@@Z 12015c95 f i XSerializeEngine.obj
 0001:00014c95       ?reset@?$ArrayJanitor@PAU?$RefHashTableBucketElem@VXSAnnotation@xercesc_3_1@@@xercesc_3_1@@@xercesc_3_1@@QAEXPAPAU?$RefHashTableBucketElem@VXSAnnotation@xercesc_3_1@@@2@@Z 12015c95 f i XTemplateSerializer.obj
 0001:00014c95       ?reset@?$ArrayJanitor@PAU?$RefHashTableBucketElem@VDTDElementDecl@xercesc_3_1@@@xercesc_3_1@@@xercesc_3_1@@QAEXPAPAU?$RefHashTableBucketElem@VDTDElementDecl@xercesc_3_1@@@2@@Z 12015c95 f i DGXMLScanner.obj
 0001:00014c95       ?reset@?$ArrayJanitor@PAU?$RefHashTableBucketElem@VComplexTypeInfo@xercesc_3_1@@@xercesc_3_1@@@xercesc_3_1@@QAEXPAPAU?$RefHashTableBucketElem@VComplexTypeInfo@xercesc_3_1@@@2@@Z 12015c95 f i XTemplateSerializer.obj
 0001:00014c95       ?reset@?$ArrayJanitor@PAU?$RefHashTableBucketElem@VGrammar@xercesc_3_1@@@xercesc_3_1@@@xercesc_3_1@@QAEXPAPAU?$RefHashTableBucketElem@VGrammar@xercesc_3_1@@@2@@Z 12015c95 f i XMLGrammarPoolImpl.obj
 0001:00014c95       ?reset@?$ArrayJanitor@PAU?$RefHashTableBucketElem@VKVStringPair@xercesc_3_1@@@xercesc_3_1@@@xercesc_3_1@@QAEXPAPAU?$RefHashTableBucketElem@VKVStringPair@xercesc_3_1@@@2@@Z 12015c95 f i XTemplateSerializer.obj
 0001:00014c95       ?reset@?$ArrayJanitor@PAU?$RefHash2KeysTableBucketElem@VSchemaAttDef@xercesc_3_1@@@xercesc_3_1@@@xercesc_3_1@@QAEXPAPAU?$RefHash2KeysTableBucketElem@VSchemaAttDef@xercesc_3_1@@@2@@Z 12015c95 f i XTemplateSerializer.obj
 0001:00014c95       ?reset@?$ArrayJanitor@G@xercesc_3_1@@QAEXPAG@Z 12015c95 f i PlatformUtils.obj
 0001:00014c95       ?reset@?$ArrayJanitor@PAU?$RefHashTableBucketElem@VXMLNotationDecl@xercesc_3_1@@@xercesc_3_1@@@xercesc_3_1@@QAEXPAPAU?$RefHashTableBucketElem@VXMLNotationDecl@xercesc_3_1@@@2@@Z 12015c95 f i XTemplateSerializer.obj
 0001:00014c95       ?reset@?$ArrayJanitor@PAU?$RefHashTableBucketElem@VXMLAttDef@xercesc_3_1@@@xercesc_3_1@@@xercesc_3_1@@QAEXPAPAU?$RefHashTableBucketElem@VXMLAttDef@xercesc_3_1@@@2@@Z 12015c95 f i XTemplateSerializer.obj
 0001:00014c95       ?reset@?$ArrayJanitor@PAU?$RefHash2KeysTableBucketElem@V?$ValueVectorOf@PAVSchemaElementDecl@xercesc_3_1@@@xercesc_3_1@@@xercesc_3_1@@@xercesc_3_1@@QAEXPAPAU?$RefHash2KeysTableBucketElem@V?$ValueVectorOf@PAVSchemaElementDecl@xercesc_3_1@@@xercesc_3_1@@@2@@Z 12015c95 f i XTemplateSerializer.obj
 0001:00014c95       ?reset@?$ArrayJanitor@_N@xercesc_3_1@@QAEXPA_N@Z 12015c95 f i AllContentModel.obj
 0001:00014c95       ?reset@?$ArrayJanitor@PAU?$RefHashTableBucketElem@VXMLInteger@xercesc_3_1@@@xercesc_3_1@@@xercesc_3_1@@QAEXPAPAU?$RefHashTableBucketElem@VXMLInteger@xercesc_3_1@@@2@@Z 12015c95 f i DFAContentModel.obj
 0001:00014c95       ?reset@?$ArrayJanitor@PAU?$RefHashTableBucketElem@VXercesGroupInfo@xercesc_3_1@@@xercesc_3_1@@@xercesc_3_1@@QAEXPAPAU?$RefHashTableBucketElem@VXercesGroupInfo@xercesc_3_1@@@2@@Z 12015c95 f i XTemplateSerializer.obj
 0001:00014cbd       ??_EDOMLSParserFilter@xercesc_3_1@@UAEPAXI@Z 12015cbd f i DOMLSParserImpl.obj
 0001:00014cbd       ??_GDOMLSParserFilter@xercesc_3_1@@UAEPAXI@Z 12015cbd f i DOMLSParserImpl.obj
 0001:00014cda       ??0__AbortFilter@xercesc_3_1@@QAE@XZ 12015cda f i DOMLSParserImpl.obj
 0001:00014ce1       ?acceptNode@__AbortFilter@xercesc_3_1@@UAE?AW4FilterAction@DOMLSParserFilter@2@PAVDOMNode@2@@Z 12015ce1 f i DOMLSParserImpl.obj
 0001:00014ce1       ?startElement@__AbortFilter@xercesc_3_1@@UAE?AW4FilterAction@DOMLSParserFilter@2@PAVDOMElement@2@@Z 12015ce1 f i DOMLSParserImpl.obj
 0001:00014ce7       ?getWhatToShow@__AbortFilter@xercesc_3_1@@UBEKXZ 12015ce7 f i DOMLSParserImpl.obj
 0001:00014ced       ??_E__AbortFilter@xercesc_3_1@@UAEPAXI@Z 12015ced f i DOMLSParserImpl.obj
 0001:00014ced       ??_G__AbortFilter@xercesc_3_1@@UAEPAXI@Z 12015ced f i DOMLSParserImpl.obj
 0001:00014d0b       ??1__AbortFilter@xercesc_3_1@@UAE@XZ 12015d0b f i DOMLSParserImpl.obj
 0001:00014d12       ??1XMLContentModel@xercesc_3_1@@UAE@XZ 12015d12 f i AllContentModel.obj
 0001:00014d19       ??_GXMLContentModel@xercesc_3_1@@UAEPAXI@Z 12015d19 f i AllContentModel.obj
 0001:00014d19       ??_EXMLContentModel@xercesc_3_1@@UAEPAXI@Z 12015d19 f i AllContentModel.obj
 0001:00014d36       ?getNextState@AllContentModel@xercesc_3_1@@UBEIIK@Z 12015d36 f i AllContentModel.obj
 0001:00014d36       ?getNextState@MixedContentModel@xercesc_3_1@@UBEIIK@Z 12015d36 f i MixedContentModel.obj
 0001:00014d36       ?getNextState@SimpleContentModel@xercesc_3_1@@UBEIIK@Z 12015d36 f i DTDElementDecl.obj
 0001:00014d3c       ??0AllContentModel@xercesc_3_1@@QAE@QAVContentSpecNode@1@_NQAVMemoryManager@1@@Z 12015d3c f   AllContentModel.obj
 0001:00014e96       ??_EAllContentModel@xercesc_3_1@@UAEPAXI@Z 12015e96 f i AllContentModel.obj
 0001:00014e96       ??_GAllContentModel@xercesc_3_1@@UAEPAXI@Z 12015e96 f i AllContentModel.obj
 0001:00014eb3       ??1AllContentModel@xercesc_3_1@@UAE@XZ 12015eb3 f   AllContentModel.obj
 0001:00014f15       ?validateContent@AllContentModel@xercesc_3_1@@UBE_NQAPAVQName@2@KIPAKQAVMemoryManager@2@@Z 12015f15 f   AllContentModel.obj
 0001:00015039       ?validateContentSpecial@AllContentModel@xercesc_3_1@@UBE_NQAPAVQName@2@KIQAVGrammarResolver@2@QAVXMLStringPool@2@PAKQAVMemoryManager@2@@Z 12016039 f   AllContentModel.obj
 0001:0001515d       ?checkUniqueParticleAttribution@AllContentModel@xercesc_3_1@@UAEXQAVSchemaGrammar@2@QAVGrammarResolver@2@QAVXMLStringPool@2@QAVXMLValidator@2@QAIPBG@Z 1201615d f   AllContentModel.obj
 0001:00015241       ?buildChildList@AllContentModel@xercesc_3_1@@AAEXQAVContentSpecNode@2@AAV?$ValueVectorOf@PAVQName@xercesc_3_1@@@2@AAV?$ValueVectorOf@_N@2@@Z 12016241 f   AllContentModel.obj
 0001:0001539d       ?addElement@?$ValueVectorOf@PAVSchemaElementDecl@xercesc_3_1@@@xercesc_3_1@@QAEXABQAVSchemaElementDecl@2@@Z 1201639d f i XTemplateSerializer.obj
 0001:0001539d       ?addElement@?$ValueVectorOf@W4NodeTypes@ContentSpecNode@xercesc_3_1@@@xercesc_3_1@@QAEXABW4NodeTypes@ContentSpecNode@2@@Z 1201639d f i MixedContentModel.obj
 0001:0001539d       ?addElement@?$ValueVectorOf@I@xercesc_3_1@@QAEXABI@Z 1201639d f i XTemplateSerializer.obj
 0001:0001539d       ?addElement@?$ValueVectorOf@PAVContentSpecNode@xercesc_3_1@@@xercesc_3_1@@QAEXABQAVContentSpecNode@2@@Z 1201639d f i ContentSpecNode.obj
 0001:0001539d       ?addElement@?$ValueVectorOf@PAX@xercesc_3_1@@QAEXABQAX@Z 1201639d f i XSerializeEngine.obj
 0001:0001539d       ?addElement@?$ValueVectorOf@PAVQName@xercesc_3_1@@@xercesc_3_1@@QAEXABQAVQName@2@@Z 1201639d f i AllContentModel.obj
 0001:000153be       ??0RuntimeException@xercesc_3_1@@QAE@QBD_KW4Codes@XMLExcepts@1@0000PAVMemoryManager@1@@Z 120163be f i CMAny.obj
 0001:00015409       ??1CMStateSet@xercesc_3_1@@QAE@XZ 12016409 f i CMAny.obj
 0001:0001544f       ?setBit@CMStateSet@xercesc_3_1@@QAEXK@Z 1201644f f i CMAny.obj
 0001:00015528       ?zeroBits@CMStateSet@xercesc_3_1@@QAEXXZ 12016528 f i CMAny.obj
 0001:0001555d       ?allocateChunk@CMStateSet@xercesc_3_1@@AAEXK@Z 1201655d f i CMAny.obj
 0001:0001557d       ?deallocateChunk@CMStateSet@xercesc_3_1@@AAEXK@Z 1201657d f i CMAny.obj
 0001:000155a0       ??_ECMNode@xercesc_3_1@@UAEPAXI@Z 120165a0 f i CMAny.obj
 0001:000155a0       ??_GCMNode@xercesc_3_1@@UAEPAXI@Z 120165a0 f i CMAny.obj
 0001:000155bc       ??1CMNode@xercesc_3_1@@UAE@XZ 120165bc f i CMAny.obj
 0001:000155e5       ??_GCMStateSet@xercesc_3_1@@QAEPAXI@Z 120165e5 f i CMAny.obj
 0001:00015605       ??0CMAny@xercesc_3_1@@QAE@W4NodeTypes@ContentSpecNode@1@IIIQAVMemoryManager@1@@Z 12016605 f   CMAny.obj
 0001:00015696       ??_ECMAny@xercesc_3_1@@UAEPAXI@Z 12016696 f i CMAny.obj
 0001:00015696       ??_GCMAny@xercesc_3_1@@UAEPAXI@Z 12016696 f i CMAny.obj
 0001:000156b2       ??1CMAny@xercesc_3_1@@UAE@XZ 120166b2 f   CMAny.obj
 0001:000156bd       ?orphanChild@CMAny@xercesc_3_1@@UAEXXZ 120166bd f   CMAny.obj
 0001:000156bd       ?inheritAdditionalFacet@AbstractNumericFacetValidator@xercesc_3_1@@MAEXXZ 120166bd f   AbstractNumericFacetValidator.obj
 0001:000156bd       ?reset@DTDAttDef@xercesc_3_1@@UAEXXZ 120166bd f   DTDAttDef.obj
 0001:000156bd       ?reset@SchemaAttDef@xercesc_3_1@@UAEXXZ 120166bd f   SchemaAttDef.obj
 0001:000156bd       ?inheritAdditionalFacet@AbstractStringValidator@xercesc_3_1@@MAEXXZ 120166bd f   AbstractStringValidator.obj
 0001:000156bd       ?orphanChild@CMLeaf@xercesc_3_1@@UAEXXZ 120166bd f   DFAContentModel.obj
 0001:000156be       ??0CMStateSet@xercesc_3_1@@QAE@KQAVMemoryManager@1@@Z 120166be f i CMBinaryOp.obj
 0001:00015732       ??_5CMStateSet@xercesc_3_1@@QAEXABV01@@Z 12016732 f i CMBinaryOp.obj
 0001:0001580c       ??4CMStateSet@xercesc_3_1@@QAEAAV01@ABV01@@Z 1201680c f i CMBinaryOp.obj
 0001:000158f0       ?getFirstPos@CMNode@xercesc_3_1@@QAEABVCMStateSet@2@XZ 120168f0 f i CMBinaryOp.obj
 0001:00015948       ?getLastPos@CMNode@xercesc_3_1@@QAEABVCMStateSet@2@XZ 12016948 f i CMBinaryOp.obj
 0001:000159a0       ??0CMBinaryOp@xercesc_3_1@@QAE@W4NodeTypes@ContentSpecNode@1@QAVCMNode@1@1IQAVMemoryManager@1@@Z 120169a0 f   CMBinaryOp.obj
 0001:00015a38       ??_GCMBinaryOp@xercesc_3_1@@UAEPAXI@Z 12016a38 f i CMBinaryOp.obj
 0001:00015a38       ??_ECMBinaryOp@xercesc_3_1@@UAEPAXI@Z 12016a38 f i CMBinaryOp.obj
 0001:00015a55       ??1CMBinaryOp@xercesc_3_1@@UAE@XZ 12016a55 f   CMBinaryOp.obj
 0001:00015aa1       ?orphanChild@CMBinaryOp@xercesc_3_1@@UAEXXZ 12016aa1 f   CMBinaryOp.obj
 0001:00015ac8       ?calcFirstPos@CMBinaryOp@xercesc_3_1@@MBEXAAVCMStateSet@2@@Z 12016ac8 f   CMBinaryOp.obj
 0001:00015b22       ?calcLastPos@CMBinaryOp@xercesc_3_1@@MBEXAAVCMStateSet@2@@Z 12016b22 f   CMBinaryOp.obj
 0001:00015b7f       ??0CMUnaryOp@xercesc_3_1@@QAE@W4NodeTypes@ContentSpecNode@1@QAVCMNode@1@IQAVMemoryManager@1@@Z 12016b7f f   CMUnaryOp.obj
 0001:00015c00       ??_ECMUnaryOp@xercesc_3_1@@UAEPAXI@Z 12016c00 f i CMUnaryOp.obj
 0001:00015c00       ??_GCMUnaryOp@xercesc_3_1@@UAEPAXI@Z 12016c00 f i CMUnaryOp.obj
 0001:00015c1d       ??1CMUnaryOp@xercesc_3_1@@UAE@XZ 12016c1d f   CMUnaryOp.obj
 0001:00015c5c       ?orphanChild@CMUnaryOp@xercesc_3_1@@UAEXXZ 12016c5c f   CMUnaryOp.obj
 0001:00015c72       ?calcFirstPos@CMUnaryOp@xercesc_3_1@@MBEXAAVCMStateSet@2@@Z 12016c72 f   CMUnaryOp.obj
 0001:00015c89       ?calcLastPos@CMUnaryOp@xercesc_3_1@@MBEXAAVCMStateSet@2@@Z 12016c89 f   CMUnaryOp.obj
 0001:00015ca0       ?cleanUp@ContentLeafNameTypeVector@xercesc_3_1@@AAEXXZ 12016ca0 f i ContentLeafNameTypeVector.obj
 0001:00015cb5       ?init@ContentLeafNameTypeVector@xercesc_3_1@@AAEXK@Z 12016cb5 f i ContentLeafNameTypeVector.obj
 0001:00015cd6       ?setValues@ContentLeafNameTypeVector@xercesc_3_1@@QAEXQAPAVQName@2@QAW4NodeTypes@ContentSpecNode@2@K@Z 12016cd6 f   ContentLeafNameTypeVector.obj
 0001:00015d21       ??0ContentSpecNode@xercesc_3_1@@QAE@QAVMemoryManager@1@@Z 12016d21 f i ContentSpecNode.obj
 0001:00015d49       ??_EContentSpecNode@xercesc_3_1@@UAEPAXI@Z 12016d49 f i ContentSpecNode.obj
 0001:00015d49       ??_GContentSpecNode@xercesc_3_1@@UAEPAXI@Z 12016d49 f i ContentSpecNode.obj
 0001:00015d66       ??0ContentSpecNode@xercesc_3_1@@QAE@ABV01@@Z 12016d66 f   ContentSpecNode.obj
 0001:00015e63       ??1ContentSpecNode@xercesc_3_1@@UAE@XZ 12016e63 f   ContentSpecNode.obj
 0001:00015ec5       ?deleteChildNode@ContentSpecNode@xercesc_3_1@@AAEXPAV12@@Z 12016ec5 f   ContentSpecNode.obj
 0001:00016435       ?formatSpec@ContentSpecNode@xercesc_3_1@@QBEXAAVXMLBuffer@2@@Z 12017435 f   ContentSpecNode.obj
 0001:00016463       ?createObject@ContentSpecNode@xercesc_3_1@@SAPAVXSerializable@2@PAVMemoryManager@2@@Z 12017463 f   ContentSpecNode.obj
 0001:00016480       ?getProtoType@ContentSpecNode@xercesc_3_1@@UBEPAVXProtoType@2@XZ 12017480 f   ContentSpecNode.obj
 0001:00016486       ?serialize@ContentSpecNode@xercesc_3_1@@UAEXAAVXSerializeEngine@2@@Z 12017486 f   ContentSpecNode.obj
 0001:00016567       ??1?$ValueStackOf@URE_RuntimeContext@xercesc_3_1@@@xercesc_3_1@@QAE@XZ 12017567 f i RegularExpression.obj
 0001:00016567       ??1?$ValueStackOf@VformatNodeHolder@xercesc_3_1@@@xercesc_3_1@@QAE@XZ 12017567 f i ContentSpecNode.obj
 0001:00016567       ??1?$ValueStackOf@PAVContentSpecNode@xercesc_3_1@@@xercesc_3_1@@QAE@XZ 12017567 f i ContentSpecNode.obj
 0001:0001656c       ?pop@?$ValueStackOf@PAVContentSpecNode@xercesc_3_1@@@xercesc_3_1@@QAEPAVContentSpecNode@2@XZ 1201756c f i ContentSpecNode.obj
 0001:000165bc       ?pop@?$ValueStackOf@VformatNodeHolder@xercesc_3_1@@@xercesc_3_1@@QAE?AVformatNodeHolder@2@XZ 120175bc f i ContentSpecNode.obj
 0001:0001661d       ??0?$ValueVectorOf@PAVSchemaElementDecl@xercesc_3_1@@@xercesc_3_1@@QAE@KQAVMemoryManager@1@_N@Z 1201761d f i XTemplateSerializer.obj
 0001:0001661d       ??0?$ValueVectorOf@I@xercesc_3_1@@QAE@KQAVMemoryManager@1@_N@Z 1201761d f i XTemplateSerializer.obj
 0001:0001661d       ??0?$ValueVectorOf@PAVContentSpecNode@xercesc_3_1@@@xercesc_3_1@@QAE@KQAVMemoryManager@1@_N@Z 1201761d f i ContentSpecNode.obj
 0001:0001661d       ??0?$ValueVectorOf@PAX@xercesc_3_1@@QAE@KQAVMemoryManager@1@_N@Z 1201761d f i XSerializeEngine.obj
 0001:0001661d       ??0?$ValueVectorOf@PAVQName@xercesc_3_1@@@xercesc_3_1@@QAE@KQAVMemoryManager@1@_N@Z 1201761d f i AllContentModel.obj
 0001:0001661d       ??0?$ValueVectorOf@W4NodeTypes@ContentSpecNode@xercesc_3_1@@@xercesc_3_1@@QAE@KQAVMemoryManager@1@_N@Z 1201761d f i MixedContentModel.obj
 0001:0001664e       ?removeElementAt@?$ValueVectorOf@PAVContentSpecNode@xercesc_3_1@@@xercesc_3_1@@QAEXK@Z 1201764e f i ContentSpecNode.obj
 0001:000166a3       ??0?$ValueVectorOf@VformatNodeHolder@xercesc_3_1@@@xercesc_3_1@@QAE@KQAVMemoryManager@1@_N@Z 120176a3 f i ContentSpecNode.obj
 0001:000166da       ?addElement@?$ValueVectorOf@VformatNodeHolder@xercesc_3_1@@@xercesc_3_1@@QAEXABVformatNodeHolder@2@@Z 120176da f i ContentSpecNode.obj
 0001:00016703       ?removeElementAt@?$ValueVectorOf@VformatNodeHolder@xercesc_3_1@@@xercesc_3_1@@QAEXK@Z 12017703 f i ContentSpecNode.obj
 0001:00016768       ?elementAt@?$ValueVectorOf@VformatNodeHolder@xercesc_3_1@@@xercesc_3_1@@QAEAAVformatNodeHolder@2@K@Z 12017768 f i ContentSpecNode.obj
 0001:000167a6       ?ensureExtraCapacity@?$ValueVectorOf@VformatNodeHolder@xercesc_3_1@@@xercesc_3_1@@QAEXK@Z 120177a6 f i ContentSpecNode.obj
 0001:0001682c       ??0CMStateSet@xercesc_3_1@@QAE@ABV01@@Z 1201782c f i DFAContentModel.obj
 0001:00016908       ??8CMStateSet@xercesc_3_1@@QBE_NABV01@@Z 12017908 f i DFAContentModel.obj
 0001:00016992       ?getBitCountInRange@CMStateSet@xercesc_3_1@@QBEKKK@Z 12017992 f i DFAContentModel.obj
 0001:00016a3a       ?getBit@CMStateSet@xercesc_3_1@@QBE_NK@Z 12017a3a f i DFAContentModel.obj
 0001:00016acb       ?isEmpty@CMStateSet@xercesc_3_1@@QBE_NXZ 12017acb f i DFAContentModel.obj
 0001:00016b1b       ?hashCode@CMStateSet@xercesc_3_1@@QBEKXZ 12017b1b f i DFAContentModel.obj
 0001:00016b69       ??0CMStateSetEnumerator@xercesc_3_1@@QAE@PBVCMStateSet@1@K@Z 12017b69 f i DFAContentModel.obj
 0001:00016bcd       ?nextElement@CMStateSetEnumerator@xercesc_3_1@@QAEIXZ 12017bcd f i DFAContentModel.obj
 0001:00016bfd       ?findNext@CMStateSetEnumerator@xercesc_3_1@@AAEXXZ 12017bfd f i DFAContentModel.obj
 0001:00016cc1       ??0CMLeaf@xercesc_3_1@@QAE@QAVQName@1@IIQAVMemoryManager@1@@Z 12017cc1 f i DFAContentModel.obj
 0001:00016d52       ??_GCMLeaf@xercesc_3_1@@UAEPAXI@Z 12017d52 f i DFAContentModel.obj
 0001:00016d52       ??_ECMLeaf@xercesc_3_1@@UAEPAXI@Z 12017d52 f i DFAContentModel.obj
 0001:00016d6f       ??0CMLeaf@xercesc_3_1@@QAE@QAVQName@1@I_NIQAVMemoryManager@1@@Z 12017d6f f i DFAContentModel.obj
 0001:00016e03       ??1CMLeaf@xercesc_3_1@@UAE@XZ 12017e03 f i DFAContentModel.obj
 0001:00016e48       ?calcFirstPos@CMAny@xercesc_3_1@@MBEXAAVCMStateSet@2@@Z 12017e48 f i CMAny.obj
 0001:00016e48       ?calcLastPos@CMAny@xercesc_3_1@@MBEXAAVCMStateSet@2@@Z 12017e48 f i CMAny.obj
 0001:00016e48       ?calcLastPos@CMLeaf@xercesc_3_1@@MBEXAAVCMStateSet@2@@Z 12017e48 f i DFAContentModel.obj
 0001:00016e48       ?calcFirstPos@CMLeaf@xercesc_3_1@@MBEXAAVCMStateSet@2@@Z 12017e48 f i DFAContentModel.obj
 0001:00016e68       ??0CMRepeatingLeaf@xercesc_3_1@@QAE@QAVQName@1@HHIIQAVMemoryManager@1@@Z 12017e68 f i DFAContentModel.obj
 0001:00016e8f       ??_ECMRepeatingLeaf@xercesc_3_1@@UAEPAXI@Z 12017e8f f i DFAContentModel.obj
 0001:00016e8f       ??_GCMRepeatingLeaf@xercesc_3_1@@UAEPAXI@Z 12017e8f f i DFAContentModel.obj
 0001:00016eac       ??1CMRepeatingLeaf@xercesc_3_1@@UAE@XZ 12017eac f i DFAContentModel.obj
 0001:00016eb1       ?getNextState@DFAContentModel@xercesc_3_1@@UBEIIK@Z 12017eb1 f i DFAContentModel.obj
 0001:00016f06       ??0DFAContentModel@xercesc_3_1@@QAE@_NQAVContentSpecNode@1@QAVMemoryManager@1@@Z 12017f06 f   DFAContentModel.obj
 0001:00016f72       ??_EDFAContentModel@xercesc_3_1@@UAEPAXI@Z 12017f72 f i DFAContentModel.obj
 0001:00016f72       ??_GDFAContentModel@xercesc_3_1@@UAEPAXI@Z 12017f72 f i DFAContentModel.obj
 0001:00016f8e       ??0DFAContentModel@xercesc_3_1@@QAE@_NQAVContentSpecNode@1@0QAVMemoryManager@1@@Z 12017f8e f   DFAContentModel.obj
 0001:00016ffd       ??1DFAContentModel@xercesc_3_1@@UAE@XZ 12017ffd f   DFAContentModel.obj
 0001:000170da       ?validateContent@DFAContentModel@xercesc_3_1@@UBE_NQAPAVQName@2@KIPAKQAVMemoryManager@2@@Z 120180da f   DFAContentModel.obj
 0001:0001726f       ?validateContentSpecial@DFAContentModel@xercesc_3_1@@UBE_NQAPAVQName@2@KIQAVGrammarResolver@2@QAVXMLStringPool@2@PAKQAVMemoryManager@2@@Z 1201826f f   DFAContentModel.obj
 0001:000173db       ?handleRepetitions@DFAContentModel@xercesc_3_1@@UBE_NQBVQName@2@IIAAI1KPAVSubstitutionGroupComparator@2@@Z 120183db f   DFAContentModel.obj
 0001:000175a9       ?buildDFA@DFAContentModel@xercesc_3_1@@AAEXQAVContentSpecNode@2@@Z 120185a9 f   DFAContentModel.obj
 0001:00017f97       ??_G?$RefHashTableOf@VXMLInteger@xercesc_3_1@@UCMStateSetHasher@2@@xercesc_3_1@@QAEPAXI@Z 12018f97 f i DFAContentModel.obj
 0001:00017fb7       ?countLeafNodes@DFAContentModel@xercesc_3_1@@AAEIQAVContentSpecNode@2@@Z 12018fb7 f   DFAContentModel.obj
 0001:00018062       ?buildSyntaxTree@DFAContentModel@xercesc_3_1@@AAEPAVCMNode@2@QAVContentSpecNode@2@AAI@Z 12019062 f   DFAContentModel.obj
 0001:00018530       ?makeDefStateList@DFAContentModel@xercesc_3_1@@ABEPAIXZ 12019530 f   DFAContentModel.obj
 0001:00018551       ?getContentLeafNameTypeVector@DFAContentModel@xercesc_3_1@@UBEPAVContentLeafNameTypeVector@2@XZ 12019551 f   DFAContentModel.obj
 0001:00018555       ?checkUniqueParticleAttribution@DFAContentModel@xercesc_3_1@@UAEXQAVSchemaGrammar@2@QAVGrammarResolver@2@QAVXMLStringPool@2@QAVXMLValidator@2@QAIPBG@Z 12019555 f   DFAContentModel.obj
 0001:00018873       ?get@?$RefHashTableOf@VXMLInteger@xercesc_3_1@@UCMStateSetHasher@2@@xercesc_3_1@@QAEPAVXMLInteger@2@QBX@Z 12019873 f i DFAContentModel.obj
 0001:00018893       ?put@?$RefHashTableOf@VXMLInteger@xercesc_3_1@@UCMStateSetHasher@2@@xercesc_3_1@@QAEXPAXQAVXMLInteger@2@@Z 12019893 f i DFAContentModel.obj
 0001:0001890d       ?cleanup@?$RefHashTableOf@VXMLInteger@xercesc_3_1@@UCMStateSetHasher@2@@xercesc_3_1@@QAEXXZ 1201990d f i DFAContentModel.obj
 0001:00018925       ?findBucketElem@?$RefHashTableOf@VXMLInteger@xercesc_3_1@@UCMStateSetHasher@2@@xercesc_3_1@@AAEPAU?$RefHashTableBucketElem@VXMLInteger@xercesc_3_1@@@2@QBXAAK@Z 12019925 f i DFAContentModel.obj
 0001:00018965       ?initialize@?$RefHashTableOf@VComplexTypeInfo@xercesc_3_1@@UStringHasher@2@@xercesc_3_1@@AAEXK@Z 12019965 f i XTemplateSerializer.obj
 0001:00018965       ?initialize@?$RefHashTableOf@UPoolElem@XMLStringPool@xercesc_3_1@@UStringHasher@3@@xercesc_3_1@@AAEXK@Z 12019965 f i StringPool.obj
 0001:00018965       ?initialize@?$RefHashTableOf@VXMLInteger@xercesc_3_1@@UCMStateSetHasher@2@@xercesc_3_1@@AAEXK@Z 12019965 f i DFAContentModel.obj
 0001:00018965       ?initialize@?$RefHashTableOf@VDTDAttDef@xercesc_3_1@@UStringHasher@2@@xercesc_3_1@@AAEXK@Z 12019965 f i XTemplateSerializer.obj
 0001:00018965       ?initialize@?$RefHashTableOf@VDatatypeValidator@xercesc_3_1@@UStringHasher@2@@xercesc_3_1@@AAEXK@Z 12019965 f i XTemplateSerializer.obj
 0001:00018965       ?initialize@?$RefHashTableOf@VXSAnnotation@xercesc_3_1@@UPtrHasher@2@@xercesc_3_1@@AAEXK@Z 12019965 f i XTemplateSerializer.obj
 0001:00018965       ?initialize@?$RefHashTableOf@VDTDEntityDecl@xercesc_3_1@@UStringHasher@2@@xercesc_3_1@@AAEXK@Z 12019965 f i XTemplateSerializer.obj
 0001:00018965       ?initialize@?$RefHashTableOf@VXMLAttDef@xercesc_3_1@@UStringHasher@2@@xercesc_3_1@@AAEXK@Z 12019965 f i XTemplateSerializer.obj
 0001:00018965       ?initialize@?$RefHashTableOf@VKVStringPair@xercesc_3_1@@UStringHasher@2@@xercesc_3_1@@AAEXK@Z 12019965 f i XTemplateSerializer.obj
 0001:00018965       ?initialize@?$RefHashTableOf@VDTDElementDecl@xercesc_3_1@@UStringHasher@2@@xercesc_3_1@@AAEXK@Z 12019965 f i DGXMLScanner.obj
 0001:00018965       ?initialize@?$RefHashTableOf@VXMLNotationDecl@xercesc_3_1@@UStringHasher@2@@xercesc_3_1@@AAEXK@Z 12019965 f i XTemplateSerializer.obj
 0001:00018965       ?initialize@?$RefHashTableOf@VXercesGroupInfo@xercesc_3_1@@UStringHasher@2@@xercesc_3_1@@AAEXK@Z 12019965 f i XTemplateSerializer.obj
 0001:00018965       ?initialize@?$RefHashTableOf@VXercesAttGroupInfo@xercesc_3_1@@UStringHasher@2@@xercesc_3_1@@AAEXK@Z 12019965 f i XTemplateSerializer.obj
 0001:000189bc       ?rehash@?$RefHashTableOf@VXMLInteger@xercesc_3_1@@UCMStateSetHasher@2@@xercesc_3_1@@AAEXXZ 120199bc f i DFAContentModel.obj
 0001:00018a77       ?removeAll@?$RefHashTableOf@VXMLInteger@xercesc_3_1@@UCMStateSetHasher@2@@xercesc_3_1@@QAEXXZ 12019a77 f i DFAContentModel.obj
 0001:00018acc       ?getGrammar@GrammarResolver@xercesc_3_1@@QAEPAVGrammar@2@QBG@Z 12019acc f   GrammarResolver.obj
 0001:00018b5c       ?reset@?$Janitor@VXMLDateTime@xercesc_3_1@@@xercesc_3_1@@QAEXPAVXMLDateTime@2@@Z 12019b5c f i DateDatatypeValidator.obj
 0001:00018b5c       ?reset@?$Janitor@VRegxParser@xercesc_3_1@@@xercesc_3_1@@QAEXPAVRegxParser@2@@Z 12019b5c f i RegularExpression.obj
 0001:00018b5c       ?reset@?$Janitor@VContentSpecNode@xercesc_3_1@@@xercesc_3_1@@QAEXPAVContentSpecNode@2@@Z 12019b5c f i ComplexTypeInfo.obj
 0001:00018b5c       ?reset@?$Janitor@V?$BaseRefVectorOf@G@xercesc_3_1@@@xercesc_3_1@@QAEXPAV?$BaseRefVectorOf@G@2@@Z 12019b5c f i SGXMLScanner.obj
 0001:00018b5c       ?reset@?$Janitor@VXMLGrammarDescription@xercesc_3_1@@@xercesc_3_1@@QAEXPAVXMLGrammarDescription@2@@Z 12019b5c f i GrammarResolver.obj
 0001:00018b71       ?checkUniqueParticleAttribution@MixedContentModel@xercesc_3_1@@UAEXQAVSchemaGrammar@2@QAVGrammarResolver@2@QAVXMLStringPool@2@QAVXMLValidator@2@QAIPBG@Z 12019b71 f i MixedContentModel.obj
 0001:00018ba7       ??0MixedContentModel@xercesc_3_1@@QAE@_NQAVContentSpecNode@1@0QAVMemoryManager@1@@Z 12019ba7 f   MixedContentModel.obj
 0001:00018cf4       ??_GMixedContentModel@xercesc_3_1@@UAEPAXI@Z 12019cf4 f i MixedContentModel.obj
 0001:00018cf4       ??_EMixedContentModel@xercesc_3_1@@UAEPAXI@Z 12019cf4 f i MixedContentModel.obj
 0001:00018d11       ??1MixedContentModel@xercesc_3_1@@UAE@XZ 12019d11 f   MixedContentModel.obj
 0001:00018d73       ?validateContent@MixedContentModel@xercesc_3_1@@UBE_NQAPAVQName@2@KIPAKQAVMemoryManager@2@@Z 12019d73 f   MixedContentModel.obj
 0001:00018f0b       ?validateContentSpecial@MixedContentModel@xercesc_3_1@@UBE_NQAPAVQName@2@KIQAVGrammarResolver@2@QAVXMLStringPool@2@PAKQAVMemoryManager@2@@Z 12019f0b f   MixedContentModel.obj
 0001:0001901c       ?buildChildList@MixedContentModel@xercesc_3_1@@AAEXQAVContentSpecNode@2@AAV?$ValueVectorOf@PAVQName@xercesc_3_1@@@2@AAV?$ValueVectorOf@W4NodeTypes@ContentSpecNode@xercesc_3_1@@@2@@Z 1201a01c f   MixedContentModel.obj
 0001:000190a2       ?validateContent@SimpleContentModel@xercesc_3_1@@UBE_NQAPAVQName@2@KIPAKQAVMemoryManager@2@@Z 1201a0a2 f   SimpleContentModel.obj
 0001:000193f8       ?validateContentSpecial@SimpleContentModel@xercesc_3_1@@UBE_NQAPAVQName@2@KIQAVGrammarResolver@2@QAVXMLStringPool@2@PAKQAVMemoryManager@2@@Z 1201a3f8 f   SimpleContentModel.obj
 0001:000196b1       ?checkUniqueParticleAttribution@SimpleContentModel@xercesc_3_1@@UAEXQAVSchemaGrammar@2@QAVGrammarResolver@2@QAVXMLStringPool@2@QAVXMLValidator@2@QAIPBG@Z 1201a6b1 f   SimpleContentModel.obj
 0001:0001974c       ?setPattern@DatatypeValidator@xercesc_3_1@@IAEXPBG@Z 1201a74c f i AbstractNumericFacetValidator.obj
 0001:000197c2       ?isSubstitutableBy@DatatypeValidator@xercesc_3_1@@UAE_NQBV12@@Z 1201a7c2 f i AbstractNumericFacetValidator.obj
 0001:000197dc       ??0InvalidDatatypeFacetException@xercesc_3_1@@QAE@QBD_KW4Codes@XMLExcepts@1@PAVMemoryManager@1@@Z 1201a7dc f i AbstractNumericFacetValidator.obj
 0001:0001981b       ??0InvalidDatatypeFacetException@xercesc_3_1@@QAE@ABV01@@Z 1201a81b f i AbstractNumericFacetValidator.obj
 0001:00019833       ??0InvalidDatatypeFacetException@xercesc_3_1@@QAE@QBD_KW4Codes@XMLExcepts@1@QBG333PAVMemoryManager@1@@Z 1201a833 f i AbstractNumericFacetValidator.obj
 0001:0001987e       ??1InvalidDatatypeFacetException@xercesc_3_1@@UAE@XZ 1201a87e f i AbstractNumericFacetValidator.obj
 0001:00019889       ?duplicate@InvalidDatatypeFacetException@xercesc_3_1@@UBEPAVXMLException@2@XZ 1201a889 f i AbstractNumericFacetValidator.obj
 0001:000198c5       ?getType@InvalidDatatypeFacetException@xercesc_3_1@@UBEPBGXZ 1201a8c5 f i AbstractNumericFacetValidator.obj
 0001:000198cb       ??_GInvalidDatatypeFacetException@xercesc_3_1@@UAEPAXI@Z 1201a8cb f i AbstractNumericFacetValidator.obj
 0001:000198cb       ??_EInvalidDatatypeFacetException@xercesc_3_1@@UAEPAXI@Z 1201a8cb f i AbstractNumericFacetValidator.obj
 0001:000198e7       ??1AbstractNumericFacetValidator@xercesc_3_1@@UAE@XZ 1201a8e7 f   AbstractNumericFacetValidator.obj
 0001:00019988       ??_EAbstractNumericFacetValidator@xercesc_3_1@@UAEPAXI@Z 1201a988 f i AbstractNumericFacetValidator.obj
 0001:00019988       ??_GAbstractNumericFacetValidator@xercesc_3_1@@UAEPAXI@Z 1201a988 f i AbstractNumericFacetValidator.obj
 0001:000199a4       ??0AbstractNumericFacetValidator@xercesc_3_1@@IAE@QAVDatatypeValidator@1@QAV?$RefHashTableOf@VKVStringPair@xercesc_3_1@@UStringHasher@2@@1@HW4ValidatorType@21@QAVMemoryManager@1@@Z 1201a9a4 f   AbstractNumericFacetValidator.obj
 0001:000199e5       ?init@AbstractNumericFacetValidator@xercesc_3_1@@IAEXQAV?$RefArrayVectorOf@G@2@QAVMemoryManager@2@@Z 1201a9e5 f   AbstractNumericFacetValidator.obj
 0001:00019a1d       ?assignFacet@AbstractNumericFacetValidator@xercesc_3_1@@AAEXQAVMemoryManager@2@@Z 1201aa1d f   AbstractNumericFacetValidator.obj
 0001:00019cf6       ?inspectFacet@AbstractNumericFacetValidator@xercesc_3_1@@AAEXQAVMemoryManager@2@@Z 1201acf6 f   AbstractNumericFacetValidator.obj
 0001:00019eb0       ?inspectFacetBase@AbstractNumericFacetValidator@xercesc_3_1@@AAEXQAVMemoryManager@2@@Z 1201aeb0 f   AbstractNumericFacetValidator.obj
 0001:0001a8c9       ?inheritFacet@AbstractNumericFacetValidator@xercesc_3_1@@AAEXXZ 1201b8c9 f   AbstractNumericFacetValidator.obj
 0001:0001a970       ?getEnumString@AbstractNumericFacetValidator@xercesc_3_1@@UBEPBV?$RefArrayVectorOf@G@2@XZ 1201b970 f   AbstractNumericFacetValidator.obj
 0001:0001a982       ?setMax@Token@xercesc_3_1@@UAEXH@Z 1201b982 f   CharToken.obj
 0001:0001a982       ?checkAdditionalFacetConstraints@AbstractNumericFacetValidator@xercesc_3_1@@MBEXQAVMemoryManager@2@@Z 1201b982 f   AbstractNumericFacetValidator.obj
 0001:0001a982       ?checkAdditionalFacetConstraints@AbstractStringValidator@xercesc_3_1@@MBEXQAVMemoryManager@2@@Z 1201b982 f   AbstractStringValidator.obj
 0001:0001a982       ?setMin@Token@xercesc_3_1@@UAEXH@Z 1201b982 f   CharToken.obj
 0001:0001a982       ?checkAdditionalFacetConstraintsBase@AbstractNumericFacetValidator@xercesc_3_1@@MBEXQAVMemoryManager@2@@Z 1201b982 f   AbstractNumericFacetValidator.obj
 0001:0001a982       ?setContentModel@SchemaElementDecl@xercesc_3_1@@UAEXQAVXMLContentModel@2@@Z 1201b982 f   SchemaElementDecl.obj
 0001:0001a982       ?setContentSpec@SchemaElementDecl@xercesc_3_1@@UAEXPAVContentSpecNode@2@@Z 1201b982 f   SchemaElementDecl.obj
 0001:0001a985       ?assignAdditionalFacet@AbstractNumericFacetValidator@xercesc_3_1@@MAEXQBG0QAVMemoryManager@2@@Z 1201b985 f   AbstractNumericFacetValidator.obj
 0001:0001a9be       ?getProtoType@AbstractNumericFacetValidator@xercesc_3_1@@UBEPAVXProtoType@2@XZ 1201b9be f   AbstractNumericFacetValidator.obj
 0001:0001a9c4       ?serialize@AbstractNumericFacetValidator@xercesc_3_1@@UAEXAAVXSerializeEngine@2@@Z 1201b9c4 f   AbstractNumericFacetValidator.obj
 0001:0001aae2       ?storeClusive@AbstractNumericFacetValidator@xercesc_3_1@@AAEXAAVXSerializeEngine@2@_NPAVXMLNumber@2@@Z 1201bae2 f   AbstractNumericFacetValidator.obj
 0001:0001ab05       ?loadClusive@AbstractNumericFacetValidator@xercesc_3_1@@AAEXAAVXSerializeEngine@2@AA_NAAPAVXMLNumber@2@W4NumberType@42@H@Z 1201bb05 f   AbstractNumericFacetValidator.obj
 0001:0001ab50       ??1FloatDatatypeValidator@xercesc_3_1@@UAE@XZ 1201bb50 f   FloatDatatypeValidator.obj
 0001:0001ab50       ??1AbstractNumericValidator@xercesc_3_1@@UAE@XZ 1201bb50 f   AbstractNumericValidator.obj
 0001:0001ab50       ??1DoubleDatatypeValidator@xercesc_3_1@@UAE@XZ 1201bb50 f   DoubleDatatypeValidator.obj
 0001:0001ab50       ??1DecimalDatatypeValidator@xercesc_3_1@@UAE@XZ 1201bb50 f   DecimalDatatypeValidator.obj
 0001:0001ab5b       ??_EAbstractNumericValidator@xercesc_3_1@@UAEPAXI@Z 1201bb5b f i AbstractNumericValidator.obj
 0001:0001ab5b       ??_GDecimalDatatypeValidator@xercesc_3_1@@UAEPAXI@Z 1201bb5b f i DecimalDatatypeValidator.obj
 0001:0001ab5b       ??_EDecimalDatatypeValidator@xercesc_3_1@@UAEPAXI@Z 1201bb5b f i DecimalDatatypeValidator.obj
 0001:0001ab5b       ??_EFloatDatatypeValidator@xercesc_3_1@@UAEPAXI@Z 1201bb5b f i FloatDatatypeValidator.obj
 0001:0001ab5b       ??_GAbstractNumericValidator@xercesc_3_1@@UAEPAXI@Z 1201bb5b f i AbstractNumericValidator.obj
 0001:0001ab5b       ??_GDoubleDatatypeValidator@xercesc_3_1@@UAEPAXI@Z 1201bb5b f i DoubleDatatypeValidator.obj
 0001:0001ab5b       ??_EDoubleDatatypeValidator@xercesc_3_1@@UAEPAXI@Z 1201bb5b f i DoubleDatatypeValidator.obj
 0001:0001ab5b       ??_GFloatDatatypeValidator@xercesc_3_1@@UAEPAXI@Z 1201bb5b f i FloatDatatypeValidator.obj
 0001:0001ab77       ??0AbstractNumericValidator@xercesc_3_1@@IAE@QAVDatatypeValidator@1@QAV?$RefHashTableOf@VKVStringPair@xercesc_3_1@@UStringHasher@2@@1@HW4ValidatorType@21@QAVMemoryManager@1@@Z 1201bb77 f   AbstractNumericValidator.obj
 0001:0001ab95       ?validate@AbstractNumericValidator@xercesc_3_1@@UAEXQBGQAVValidationContext@2@QAVMemoryManager@2@@Z 1201bb95 f   AbstractNumericValidator.obj
 0001:0001ab95       ?validate@DateTimeValidator@xercesc_3_1@@UAEXQBGQAVValidationContext@2@QAVMemoryManager@2@@Z 1201bb95 f   DateTimeValidator.obj
 0001:0001abab       ?boundsCheck@AbstractNumericValidator@xercesc_3_1@@IAEXQBVXMLNumber@2@QAVMemoryManager@2@@Z 1201bbab f   AbstractNumericValidator.obj
 0001:0001acb5       ?getCanonicalRepresentation@AbstractNumericValidator@xercesc_3_1@@UBEPBGQBGQAVMemoryManager@2@_N@Z 1201bcb5 f   AbstractNumericValidator.obj
 0001:0001ad0f       ?getEnumString@AnySimpleTypeDatatypeValidator@xercesc_3_1@@UBEPBV?$RefArrayVectorOf@G@2@XZ 1201bd0f f   AnySimpleTypeDatatypeValidator.obj
 0001:0001ad0f       ?createObject@AbstractNumericValidator@xercesc_3_1@@SAPAVXSerializable@2@PAVMemoryManager@2@@Z 1201bd0f f   AbstractNumericValidator.obj
 0001:0001ad0f       ?getString@Token@xercesc_3_1@@UBEPBGXZ 1201bd0f f   CharToken.obj
 0001:0001ad0f       ?createObject@XMLAttDef@xercesc_3_1@@SAPAVXSerializable@2@PAVMemoryManager@2@@Z 1201bd0f f   XMLAttDef.obj
 0001:0001ad0f       ?getNamespace@XSObject@xercesc_3_1@@UAEPBGXZ 1201bd0f f   XSObject.obj
 0001:0001ad0f       ?getGrammarType@DTDGrammar@xercesc_3_1@@UBE?AW4GrammarType@Grammar@2@XZ 1201bd0f f   DTDGrammar.obj
 0001:0001ad0f       ?createObject@XMLNumber@xercesc_3_1@@SAPAVXSerializable@2@PAVMemoryManager@2@@Z 1201bd0f f   XMLNumber.obj
 0001:0001ad0f       ?createObject@XMLAttDefList@xercesc_3_1@@SAPAVXSerializable@2@PAVMemoryManager@2@@Z 1201bd0f f   XMLAttDefList.obj
 0001:0001ad0f       ?getEnumString@BooleanDatatypeValidator@xercesc_3_1@@UBEPBV?$RefArrayVectorOf@G@2@XZ 1201bd0f f   BooleanDatatypeValidator.obj
 0001:0001ad0f       ?getSign@XMLDateTime@xercesc_3_1@@UBEHXZ 1201bd0f f   XMLDateTime.obj
 0001:0001ad0f       ?getNoParen@Token@xercesc_3_1@@UBEHXZ 1201bd0f f   CharToken.obj
 0001:0001ad0f       ?createObject@DateTimeValidator@xercesc_3_1@@SAPAVXSerializable@2@PAVMemoryManager@2@@Z 1201bd0f f   DateTimeValidator.obj
 0001:0001ad0f       ?createObject@IdentityConstraint@xercesc_3_1@@SAPAVXSerializable@2@PAVMemoryManager@2@@Z 1201bd0f f   IdentityConstraint.obj
 0001:0001ad0f       ?createObject@XMLElementDecl@xercesc_3_1@@SAPAVXSerializable@2@PAVMemoryManager@2@@Z 1201bd0f f   XMLElementDecl.obj
 0001:0001ad0f       ?getName@XSObject@xercesc_3_1@@UBEPBGXZ 1201bd0f f   XSObject.obj
 0001:0001ad0f       ?getContentLeafNameTypeVector@MixedContentModel@xercesc_3_1@@UBEPAVContentLeafNameTypeVector@2@XZ 1201bd0f f   MixedContentModel.obj
 0001:0001ad0f       ?createObject@XMLAbstractDoubleFloat@xercesc_3_1@@SAPAVXSerializable@2@PAVMemoryManager@2@@Z 1201bd0f f   XMLAbstractDoubleFloat.obj
 0001:0001ad0f       ?getGrammarType@XMLDTDDescription@xercesc_3_1@@UBE?AW4GrammarType@Grammar@2@XZ 1201bd0f f   XMLDTDDescription.obj
 0001:0001ad0f       ?getContentLeafNameTypeVector@SimpleContentModel@xercesc_3_1@@UBEPAVContentLeafNameTypeVector@2@XZ 1201bd0f f   SimpleContentModel.obj
 0001:0001ad0f       ?createObject@XMLDTDDescription@xercesc_3_1@@SAPAVXSerializable@2@PAVMemoryManager@2@@Z 1201bd0f f   XMLDTDDescription.obj
 0001:0001ad0f       ?createObject@AbstractNumericFacetValidator@xercesc_3_1@@SAPAVXSerializable@2@PAVMemoryManager@2@@Z 1201bd0f f   AbstractNumericFacetValidator.obj
 0001:0001ad0f       ?getObjectType@SchemaElementDecl@xercesc_3_1@@UBE?AW4objectType@XMLElementDecl@2@XZ 1201bd0f f   SchemaElementDecl.obj
 0001:0001ad0f       ?getNamespaceItem@XSObject@xercesc_3_1@@UAEPAVXSNamespaceItem@2@XZ 1201bd0f f   XSObject.obj
 0001:0001ad0f       ?getReferenceNo@Token@xercesc_3_1@@UBEHXZ 1201bd0f f   CharToken.obj
 0001:0001ad0f       ?createObject@XMLSchemaDescription@xercesc_3_1@@SAPAVXSerializable@2@PAVMemoryManager@2@@Z 1201bd0f f   XMLSchemaDescription.obj
 0001:0001ad0f       ?size@Token@xercesc_3_1@@UBEKXZ 1201bd0f f   CharToken.obj
 0001:0001ad0f       ?createObject@AbstractStringValidator@xercesc_3_1@@SAPAVXSerializable@2@PAVMemoryManager@2@@Z 1201bd0f f   AbstractStringValidator.obj
 0001:0001ad0f       ?createObject@XMLGrammarDescription@xercesc_3_1@@SAPAVXSerializable@2@PAVMemoryManager@2@@Z 1201bd0f f   XMLGrammarDescription.obj
 0001:0001ad0f       ?createObject@DatatypeValidator@xercesc_3_1@@SAPAVXSerializable@2@PAVMemoryManager@2@@Z 1201bd0f f   DatatypeValidator.obj
 0001:0001ad0f       ?createObject@Grammar@xercesc_3_1@@SAPAVXSerializable@2@PAVMemoryManager@2@@Z 1201bd0f f   Grammar.obj
 0001:0001ad0f       ?createObject@XMLEntityDecl@xercesc_3_1@@SAPAVXSerializable@2@PAVMemoryManager@2@@Z 1201bd0f f   XMLEntityDecl.obj
 0001:0001ad0f       ?getContentLeafNameTypeVector@AllContentModel@xercesc_3_1@@UBEPAVContentLeafNameTypeVector@2@XZ 1201bd0f f   AllContentModel.obj
 0001:0001ad12       ?getProtoType@AbstractNumericValidator@xercesc_3_1@@UBEPAVXProtoType@2@XZ 1201bd12 f   AbstractNumericValidator.obj
 0001:0001ad18       ?serialize@AbstractNumericValidator@xercesc_3_1@@UAEXAAVXSerializeEngine@2@@Z 1201bd18 f   AbstractNumericValidator.obj
 0001:0001ad1d       ?setEnumeration@AbstractStringValidator@xercesc_3_1@@IAEXPAV?$RefArrayVectorOf@G@2@_N@Z 1201bd1d f i AbstractStringValidator.obj
 0001:0001ad45       ??1AbstractStringValidator@xercesc_3_1@@UAE@XZ 1201bd45 f   AbstractStringValidator.obj
 0001:0001ad8f       ??_EAbstractStringValidator@xercesc_3_1@@UAEPAXI@Z 1201bd8f f i AbstractStringValidator.obj
 0001:0001ad8f       ??_GAbstractStringValidator@xercesc_3_1@@UAEPAXI@Z 1201bd8f f i AbstractStringValidator.obj
 0001:0001adab       ??0AbstractStringValidator@xercesc_3_1@@IAE@QAVDatatypeValidator@1@QAV?$RefHashTableOf@VKVStringPair@xercesc_3_1@@UStringHasher@2@@1@HW4ValidatorType@21@QAVMemoryManager@1@@Z 1201bdab f   AbstractStringValidator.obj
 0001:0001adde       ?init@AbstractStringValidator@xercesc_3_1@@IAEXQAV?$RefArrayVectorOf@G@2@QAVMemoryManager@2@@Z 1201bdde f   AbstractStringValidator.obj
 0001:0001ae20       ?assignFacet@AbstractStringValidator@xercesc_3_1@@AAEXQAVMemoryManager@2@@Z 1201be20 f   AbstractStringValidator.obj
 0001:0001b15b       ?inspectFacet@AbstractStringValidator@xercesc_3_1@@AAEXQAVMemoryManager@2@@Z 1201c15b f   AbstractStringValidator.obj
 0001:0001b241       ?inspectFacetBase@AbstractStringValidator@xercesc_3_1@@MAEXQAVMemoryManager@2@@Z 1201c241 f   AbstractStringValidator.obj
 0001:0001b790       ?inheritFacet@AbstractStringValidator@xercesc_3_1@@MAEXXZ 1201c790 f   AbstractStringValidator.obj
 0001:0001b805       ?validate@AbstractStringValidator@xercesc_3_1@@UAEXQBGQAVValidationContext@2@QAVMemoryManager@2@@Z 1201c805 f   AbstractStringValidator.obj
 0001:0001b81b       ?checkContent@AbstractStringValidator@xercesc_3_1@@MAEXQBGQAVValidationContext@2@_NQAVMemoryManager@2@@Z 1201c81b f   AbstractStringValidator.obj
 0001:0001bafd       ?getEnumString@AbstractStringValidator@xercesc_3_1@@UBEPBV?$RefArrayVectorOf@G@2@XZ 1201cafd f   AbstractStringValidator.obj
 0001:0001bb01       ?normalizeEnumeration@AbstractStringValidator@xercesc_3_1@@MAEXQAVMemoryManager@2@@Z 1201cb01 f   AbstractStringValidator.obj
 0001:0001bb76       ?assignAdditionalFacet@AbstractStringValidator@xercesc_3_1@@MAEXQBG0QAVMemoryManager@2@@Z 1201cb76 f   AbstractStringValidator.obj
 0001:0001bbaf       ?getLength@AbstractStringValidator@xercesc_3_1@@MBEKQBGQAVMemoryManager@2@@Z 1201cbaf f   AbstractStringValidator.obj
 0001:0001bbbb       ?getProtoType@AbstractStringValidator@xercesc_3_1@@UBEPAVXProtoType@2@XZ 1201cbbb f   AbstractStringValidator.obj
 0001:0001bbc1       ?serialize@AbstractStringValidator@xercesc_3_1@@UAEXAAVXSerializeEngine@2@@Z 1201cbc1 f   AbstractStringValidator.obj
 0001:0001bc51       ?isSubstitutableBy@AnySimpleTypeDatatypeValidator@xercesc_3_1@@UAE_NQBVDatatypeValidator@2@@Z 1201cc51 f i AnySimpleTypeDatatypeValidator.obj
 0001:0001bc56       ?validate@AnySimpleTypeDatatypeValidator@xercesc_3_1@@UAEXQBGQAVValidationContext@2@QAVMemoryManager@2@@Z 1201cc56 f i AnySimpleTypeDatatypeValidator.obj
 0001:0001bc59       ??0AnySimpleTypeDatatypeValidator@xercesc_3_1@@QAE@QAVMemoryManager@1@@Z 1201cc59 f   AnySimpleTypeDatatypeValidator.obj
 0001:0001bc7d       ??_GAnySimpleTypeDatatypeValidator@xercesc_3_1@@UAEPAXI@Z 1201cc7d f i AnySimpleTypeDatatypeValidator.obj
 0001:0001bc7d       ??_EAnySimpleTypeDatatypeValidator@xercesc_3_1@@UAEPAXI@Z 1201cc7d f i AnySimpleTypeDatatypeValidator.obj
 0001:0001bc99       ??1AnySimpleTypeDatatypeValidator@xercesc_3_1@@UAE@XZ 1201cc99 f   AnySimpleTypeDatatypeValidator.obj
 0001:0001bca4       ?compare@AnySimpleTypeDatatypeValidator@xercesc_3_1@@UAEHQBG0QAVMemoryManager@2@@Z 1201cca4 f   AnySimpleTypeDatatypeValidator.obj
 0001:0001bca4       ?compare@DatatypeValidator@xercesc_3_1@@UAEHQBG0QAVMemoryManager@2@@Z 1201cca4 f   AbstractNumericFacetValidator.obj
 0001:0001bca4       ?compare@AbstractStringValidator@xercesc_3_1@@UAEHQBG0QAVMemoryManager@2@@Z 1201cca4 f   AbstractStringValidator.obj
 0001:0001bcb4       ?newInstance@AnySimpleTypeDatatypeValidator@xercesc_3_1@@UAEPAVDatatypeValidator@2@QAV?$RefHashTableOf@VKVStringPair@xercesc_3_1@@UStringHasher@2@@2@QAV?$RefArrayVectorOf@G@2@HQAVMemoryManager@2@@Z 1201ccb4 f   AnySimpleTypeDatatypeValidator.obj
 0001:0001bd00       ?createObject@AnySimpleTypeDatatypeValidator@xercesc_3_1@@SAPAVXSerializable@2@PAVMemoryManager@2@@Z 1201cd00 f   AnySimpleTypeDatatypeValidator.obj
 0001:0001bd1d       ?getProtoType@AnySimpleTypeDatatypeValidator@xercesc_3_1@@UBEPAVXProtoType@2@XZ 1201cd1d f   AnySimpleTypeDatatypeValidator.obj
 0001:0001bd23       ?serialize@AnySimpleTypeDatatypeValidator@xercesc_3_1@@UAEXAAVXSerializeEngine@2@@Z 1201cd23 f   AnySimpleTypeDatatypeValidator.obj
 0001:0001bd23       ?serialize@BooleanDatatypeValidator@xercesc_3_1@@UAEXAAVXSerializeEngine@2@@Z 1201cd23 f   BooleanDatatypeValidator.obj
 0001:0001bd28       ??0AnyURIDatatypeValidator@xercesc_3_1@@QAE@QAVMemoryManager@1@@Z 1201cd28 f   AnyURIDatatypeValidator.obj
 0001:0001bd42       ??_EAnyURIDatatypeValidator@xercesc_3_1@@UAEPAXI@Z 1201cd42 f i AnyURIDatatypeValidator.obj
 0001:0001bd42       ??_GAnyURIDatatypeValidator@xercesc_3_1@@UAEPAXI@Z 1201cd42 f i AnyURIDatatypeValidator.obj
 0001:0001bd5e       ??1AnyURIDatatypeValidator@xercesc_3_1@@UAE@XZ 1201cd5e f   AnyURIDatatypeValidator.obj
 0001:0001bd69       ??0AnyURIDatatypeValidator@xercesc_3_1@@QAE@QAVDatatypeValidator@1@QAV?$RefHashTableOf@VKVStringPair@xercesc_3_1@@UStringHasher@2@@1@QAV?$RefArrayVectorOf@G@1@HQAVMemoryManager@1@@Z 1201cd69 f   AnyURIDatatypeValidator.obj
 0001:0001bdaf       ?newInstance@AnyURIDatatypeValidator@xercesc_3_1@@UAEPAVDatatypeValidator@2@QAV?$RefHashTableOf@VKVStringPair@xercesc_3_1@@UStringHasher@2@@2@QAV?$RefArrayVectorOf@G@2@HQAVMemoryManager@2@@Z 1201cdaf f   AnyURIDatatypeValidator.obj
 0001:0001bdf8       ?checkValueSpace@AnyURIDatatypeValidator@xercesc_3_1@@MAEXQBGQAVMemoryManager@2@@Z 1201cdf8 f   AnyURIDatatypeValidator.obj
 0001:0001beea       ?encode@AnyURIDatatypeValidator@xercesc_3_1@@AAEXQBGKAAVXMLBuffer@2@QAVMemoryManager@2@@Z 1201ceea f   AnyURIDatatypeValidator.obj
 0001:0001c058       ?createObject@AnyURIDatatypeValidator@xercesc_3_1@@SAPAVXSerializable@2@PAVMemoryManager@2@@Z 1201d058 f   AnyURIDatatypeValidator.obj
 0001:0001c075       ?getProtoType@AnyURIDatatypeValidator@xercesc_3_1@@UBEPAVXProtoType@2@XZ 1201d075 f   AnyURIDatatypeValidator.obj
 0001:0001c07b       ??0Base64BinaryDatatypeValidator@xercesc_3_1@@QAE@QAVMemoryManager@1@@Z 1201d07b f   Base64BinaryDatatypeValidator.obj
 0001:0001c095       ??_EBase64BinaryDatatypeValidator@xercesc_3_1@@UAEPAXI@Z 1201d095 f i Base64BinaryDatatypeValidator.obj
 0001:0001c095       ??_GBase64BinaryDatatypeValidator@xercesc_3_1@@UAEPAXI@Z 1201d095 f i Base64BinaryDatatypeValidator.obj
 0001:0001c0b1       ??1Base64BinaryDatatypeValidator@xercesc_3_1@@UAE@XZ 1201d0b1 f   Base64BinaryDatatypeValidator.obj
 0001:0001c0bc       ??0Base64BinaryDatatypeValidator@xercesc_3_1@@QAE@QAVDatatypeValidator@1@QAV?$RefHashTableOf@VKVStringPair@xercesc_3_1@@UStringHasher@2@@1@QAV?$RefArrayVectorOf@G@1@HQAVMemoryManager@1@@Z 1201d0bc f   Base64BinaryDatatypeValidator.obj
 0001:0001c102       ?newInstance@Base64BinaryDatatypeValidator@xercesc_3_1@@UAEPAVDatatypeValidator@2@QAV?$RefHashTableOf@VKVStringPair@xercesc_3_1@@UStringHasher@2@@2@QAV?$RefArrayVectorOf@G@2@HQAVMemoryManager@2@@Z 1201d102 f   Base64BinaryDatatypeValidator.obj
 0001:0001c14b       ?checkValueSpace@Base64BinaryDatatypeValidator@xercesc_3_1@@MAEXQBGQAVMemoryManager@2@@Z 1201d14b f   Base64BinaryDatatypeValidator.obj
 0001:0001c1a4       ?getLength@Base64BinaryDatatypeValidator@xercesc_3_1@@MBEKQBGQAVMemoryManager@2@@Z 1201d1a4 f   Base64BinaryDatatypeValidator.obj
 0001:0001c1c6       ?normalizeEnumeration@Base64BinaryDatatypeValidator@xercesc_3_1@@MAEXQAVMemoryManager@2@@Z 1201d1c6 f   Base64BinaryDatatypeValidator.obj
 0001:0001c1f3       ?normalizeContent@Base64BinaryDatatypeValidator@xercesc_3_1@@MBEXQAGQAVMemoryManager@2@@Z 1201d1f3 f   Base64BinaryDatatypeValidator.obj
 0001:0001c1ff       ?createObject@Base64BinaryDatatypeValidator@xercesc_3_1@@SAPAVXSerializable@2@PAVMemoryManager@2@@Z 1201d1ff f   Base64BinaryDatatypeValidator.obj
 0001:0001c21c       ?getProtoType@Base64BinaryDatatypeValidator@xercesc_3_1@@UBEPAVXProtoType@2@XZ 1201d21c f   Base64BinaryDatatypeValidator.obj
 0001:0001c222       ??0BooleanDatatypeValidator@xercesc_3_1@@QAE@QAVMemoryManager@1@@Z 1201d222 f i BooleanDatatypeValidator.obj
 0001:0001c240       ??_GBooleanDatatypeValidator@xercesc_3_1@@UAEPAXI@Z 1201d240 f i BooleanDatatypeValidator.obj
 0001:0001c240       ??_EBooleanDatatypeValidator@xercesc_3_1@@UAEPAXI@Z 1201d240 f i BooleanDatatypeValidator.obj
 0001:0001c25c       ??1BooleanDatatypeValidator@xercesc_3_1@@UAE@XZ 1201d25c f i BooleanDatatypeValidator.obj
 0001:0001c267       ?newInstance@BooleanDatatypeValidator@xercesc_3_1@@UAEPAVDatatypeValidator@2@QAV?$RefHashTableOf@VKVStringPair@xercesc_3_1@@UStringHasher@2@@2@QAV?$RefArrayVectorOf@G@2@HQAVMemoryManager@2@@Z 1201d267 f i BooleanDatatypeValidator.obj
 0001:0001c2b0       ??0InvalidDatatypeFacetException@xercesc_3_1@@QAE@QBD_KW4Codes@XMLExcepts@1@0000PAVMemoryManager@1@@Z 1201d2b0 f i BooleanDatatypeValidator.obj
 0001:0001c2fb       ??0BooleanDatatypeValidator@xercesc_3_1@@QAE@QAVDatatypeValidator@1@QAV?$RefHashTableOf@VKVStringPair@xercesc_3_1@@UStringHasher@2@@1@QAV?$RefArrayVectorOf@G@1@HQAVMemoryManager@1@@Z 1201d2fb f   BooleanDatatypeValidator.obj
 0001:0001c427       ?checkContent@BooleanDatatypeValidator@xercesc_3_1@@EAEXQBGQAVValidationContext@2@_NQAVMemoryManager@2@@Z 1201d427 f   BooleanDatatypeValidator.obj
 0001:0001c4d6       ?compare@BooleanDatatypeValidator@xercesc_3_1@@UAEHQBG0QAVMemoryManager@2@@Z 1201d4d6 f   BooleanDatatypeValidator.obj
 0001:0001c551       ?getCanonicalRepresentation@BooleanDatatypeValidator@xercesc_3_1@@UBEPBGQBGQAVMemoryManager@2@_N@Z 1201d551 f   BooleanDatatypeValidator.obj
 0001:0001c5d2       ?createObject@BooleanDatatypeValidator@xercesc_3_1@@SAPAVXSerializable@2@PAVMemoryManager@2@@Z 1201d5d2 f   BooleanDatatypeValidator.obj
 0001:0001c5ef       ?getProtoType@BooleanDatatypeValidator@xercesc_3_1@@UBEPAVXProtoType@2@XZ 1201d5ef f   BooleanDatatypeValidator.obj
 0001:0001c5f5       ??5xercesc_3_1@@YAAAVXSerializeEngine@0@AAV10@AAPAVStringDatatypeValidator@0@@Z 1201d5f5 f i DatatypeValidator.obj
 0001:0001c60e       ??5xercesc_3_1@@YAAAVXSerializeEngine@0@AAV10@AAPAVAnyURIDatatypeValidator@0@@Z 1201d60e f i DatatypeValidator.obj
 0001:0001c627       ??5xercesc_3_1@@YAAAVXSerializeEngine@0@AAV10@AAPAVQNameDatatypeValidator@0@@Z 1201d627 f i DatatypeValidator.obj
 0001:0001c640       ??5xercesc_3_1@@YAAAVXSerializeEngine@0@AAV10@AAPAVNameDatatypeValidator@0@@Z 1201d640 f i DatatypeValidator.obj
 0001:0001c659       ??5xercesc_3_1@@YAAAVXSerializeEngine@0@AAV10@AAPAVNCNameDatatypeValidator@0@@Z 1201d659 f i DatatypeValidator.obj
 0001:0001c672       ??5xercesc_3_1@@YAAAVXSerializeEngine@0@AAV10@AAPAVBooleanDatatypeValidator@0@@Z 1201d672 f i DatatypeValidator.obj
 0001:0001c68b       ??5xercesc_3_1@@YAAAVXSerializeEngine@0@AAV10@AAPAVFloatDatatypeValidator@0@@Z 1201d68b f i DatatypeValidator.obj
 0001:0001c6a4       ??5xercesc_3_1@@YAAAVXSerializeEngine@0@AAV10@AAPAVDoubleDatatypeValidator@0@@Z 1201d6a4 f i DatatypeValidator.obj
 0001:0001c6bd       ??5xercesc_3_1@@YAAAVXSerializeEngine@0@AAV10@AAPAVDecimalDatatypeValidator@0@@Z 1201d6bd f i DatatypeValidator.obj
 0001:0001c6d6       ??5xercesc_3_1@@YAAAVXSerializeEngine@0@AAV10@AAPAVHexBinaryDatatypeValidator@0@@Z 1201d6d6 f i DatatypeValidator.obj
 0001:0001c6ef       ??5xercesc_3_1@@YAAAVXSerializeEngine@0@AAV10@AAPAVBase64BinaryDatatypeValidator@0@@Z 1201d6ef f i DatatypeValidator.obj
 0001:0001c708       ??5xercesc_3_1@@YAAAVXSerializeEngine@0@AAV10@AAPAVDurationDatatypeValidator@0@@Z 1201d708 f i DatatypeValidator.obj
 0001:0001c721       ??5xercesc_3_1@@YAAAVXSerializeEngine@0@AAV10@AAPAVDateTimeDatatypeValidator@0@@Z 1201d721 f i DatatypeValidator.obj
 0001:0001c73a       ??5xercesc_3_1@@YAAAVXSerializeEngine@0@AAV10@AAPAVDateDatatypeValidator@0@@Z 1201d73a f i DatatypeValidator.obj
 0001:0001c753       ??5xercesc_3_1@@YAAAVXSerializeEngine@0@AAV10@AAPAVTimeDatatypeValidator@0@@Z 1201d753 f i DatatypeValidator.obj
 0001:0001c76c       ??5xercesc_3_1@@YAAAVXSerializeEngine@0@AAV10@AAPAVMonthDayDatatypeValidator@0@@Z 1201d76c f i DatatypeValidator.obj
 0001:0001c785       ??5xercesc_3_1@@YAAAVXSerializeEngine@0@AAV10@AAPAVYearMonthDatatypeValidator@0@@Z 1201d785 f i DatatypeValidator.obj
 0001:0001c79e       ??5xercesc_3_1@@YAAAVXSerializeEngine@0@AAV10@AAPAVYearDatatypeValidator@0@@Z 1201d79e f i DatatypeValidator.obj
 0001:0001c7b7       ??5xercesc_3_1@@YAAAVXSerializeEngine@0@AAV10@AAPAVMonthDatatypeValidator@0@@Z 1201d7b7 f i DatatypeValidator.obj
 0001:0001c7d0       ??5xercesc_3_1@@YAAAVXSerializeEngine@0@AAV10@AAPAVDayDatatypeValidator@0@@Z 1201d7d0 f i DatatypeValidator.obj
 0001:0001c7e9       ??5xercesc_3_1@@YAAAVXSerializeEngine@0@AAV10@AAPAVIDDatatypeValidator@0@@Z 1201d7e9 f i DatatypeValidator.obj
 0001:0001c802       ??5xercesc_3_1@@YAAAVXSerializeEngine@0@AAV10@AAPAVIDREFDatatypeValidator@0@@Z 1201d802 f i DatatypeValidator.obj
 0001:0001c81b       ??5xercesc_3_1@@YAAAVXSerializeEngine@0@AAV10@AAPAVENTITYDatatypeValidator@0@@Z 1201d81b f i DatatypeValidator.obj
 0001:0001c834       ??5xercesc_3_1@@YAAAVXSerializeEngine@0@AAV10@AAPAVNOTATIONDatatypeValidator@0@@Z 1201d834 f i DatatypeValidator.obj
 0001:0001c84d       ??5xercesc_3_1@@YAAAVXSerializeEngine@0@AAV10@AAPAVListDatatypeValidator@0@@Z 1201d84d f i DatatypeValidator.obj
 0001:0001c866       ??5xercesc_3_1@@YAAAVXSerializeEngine@0@AAV10@AAPAVUnionDatatypeValidator@0@@Z 1201d866 f i DatatypeValidator.obj
 0001:0001c87f       ??5xercesc_3_1@@YAAAVXSerializeEngine@0@AAV10@AAPAVAnySimpleTypeDatatypeValidator@0@@Z 1201d87f f i DatatypeValidator.obj
 0001:0001c898       ??0DatatypeValidator@xercesc_3_1@@IAE@QAV01@QAV?$RefHashTableOf@VKVStringPair@xercesc_3_1@@UStringHasher@2@@1@HW4ValidatorType@01@QAVMemoryManager@1@@Z 1201d898 f   DatatypeValidator.obj
 0001:0001c8f1       ??_GDatatypeValidator@xercesc_3_1@@UAEPAXI@Z 1201d8f1 f i DatatypeValidator.obj
 0001:0001c8f1       ??_EDatatypeValidator@xercesc_3_1@@UAEPAXI@Z 1201d8f1 f i DatatypeValidator.obj
 0001:0001c90d       ??1DatatypeValidator@xercesc_3_1@@UAE@XZ 1201d90d f   DatatypeValidator.obj
 0001:0001c940       ?getWSstring@DatatypeValidator@xercesc_3_1@@IBEPBGF@Z 1201d940 f   DatatypeValidator.obj
 0001:0001c960       ?setTypeName@DatatypeValidator@xercesc_3_1@@QAEXQBG0@Z 1201d960 f   DatatypeValidator.obj
 0001:0001ca0d       ?setTypeName@DatatypeValidator@xercesc_3_1@@QAEXQBG@Z 1201da0d f   DatatypeValidator.obj
 0001:0001ca96       ?cleanUp@DatatypeValidator@xercesc_3_1@@AAEXXZ 1201da96 f   DatatypeValidator.obj
 0001:0001cad3       ?getProtoType@DatatypeValidator@xercesc_3_1@@UBEPAVXProtoType@2@XZ 1201dad3 f   DatatypeValidator.obj
 0001:0001cad9       ?serialize@DatatypeValidator@xercesc_3_1@@UAEXAAVXSerializeEngine@2@@Z 1201dad9 f   DatatypeValidator.obj
 0001:0001cd70       ?storeDV@DatatypeValidator@xercesc_3_1@@SAXAAVXSerializeEngine@2@QAV12@@Z 1201dd70 f   DatatypeValidator.obj
 0001:0001cdc6       ?loadDV@DatatypeValidator@xercesc_3_1@@SAPAV12@AAVXSerializeEngine@2@@Z 1201ddc6 f   DatatypeValidator.obj
 0001:0001d03a       ?getCanonicalRepresentation@DatatypeValidator@xercesc_3_1@@UBEPBGQBGQAVMemoryManager@2@_N@Z 1201e03a f   DatatypeValidator.obj
 0001:0001d091       ?cleanUp@DatatypeValidatorFactory@xercesc_3_1@@AAEXXZ 1201e091 f i DatatypeValidatorFactory.obj
 0001:0001d0a5       ??_GDatatypeValidatorFactory@xercesc_3_1@@UAEPAXI@Z 1201e0a5 f i DatatypeValidatorFactory.obj
 0001:0001d0a5       ??_EDatatypeValidatorFactory@xercesc_3_1@@UAEPAXI@Z 1201e0a5 f i DatatypeValidatorFactory.obj
 0001:0001d0c2       ??1DatatypeValidatorFactory@xercesc_3_1@@UAE@XZ 1201e0c2 f   DatatypeValidatorFactory.obj
 0001:0001d0f4       ?getCanRepGroup@DatatypeValidatorFactory@xercesc_3_1@@SA?AW4CanRepGroup@XMLCanRepGroup@2@QBVDatatypeValidator@2@@Z 1201e0f4 f   DatatypeValidatorFactory.obj
 0001:0001d131       ?createObject@DatatypeValidatorFactory@xercesc_3_1@@SAPAVXSerializable@2@PAVMemoryManager@2@@Z 1201e131 f   DatatypeValidatorFactory.obj
 0001:0001d155       ?getProtoType@DatatypeValidatorFactory@xercesc_3_1@@UBEPAVXProtoType@2@XZ 1201e155 f   DatatypeValidatorFactory.obj
 0001:0001d15b       ?serialize@DatatypeValidatorFactory@xercesc_3_1@@UAEXAAVXSerializeEngine@2@@Z 1201e15b f   DatatypeValidatorFactory.obj
 0001:0001d187       ?get@?$RefHashTableOf@VXSAnnotation@xercesc_3_1@@UPtrHasher@2@@xercesc_3_1@@QAEPAVXSAnnotation@2@QBX@Z 1201e187 f i XSModel.obj
 0001:0001d187       ?get@?$RefHashTableOf@VXMLCanRepGroup@xercesc_3_1@@UPtrHasher@2@@xercesc_3_1@@QAEPAVXMLCanRepGroup@2@QBX@Z 1201e187 f i DatatypeValidatorFactory.obj
 0001:0001d187       ?get@?$RefHashTableOf@VXSerializedObjectId@xercesc_3_1@@UPtrHasher@2@@xercesc_3_1@@QAEPAVXSerializedObjectId@2@QBX@Z 1201e187 f i XSerializeEngine.obj
 0001:0001d19d       ?findBucketElem@?$RefHashTableOf@VXMLCanRepGroup@xercesc_3_1@@UPtrHasher@2@@xercesc_3_1@@AAEPAU?$RefHashTableBucketElem@VXMLCanRepGroup@xercesc_3_1@@@2@QBXAAK@Z 1201e19d f i DatatypeValidatorFactory.obj
 0001:0001d19d       ?findBucketElem@?$RefHashTableOf@VXSAnnotation@xercesc_3_1@@UPtrHasher@2@@xercesc_3_1@@AAEPAU?$RefHashTableBucketElem@VXSAnnotation@xercesc_3_1@@@2@QBXAAK@Z 1201e19d f i XSModel.obj
 0001:0001d19d       ?findBucketElem@?$RefHashTableOf@VXMLCanRepGroup@xercesc_3_1@@UPtrHasher@2@@xercesc_3_1@@ABEPBU?$RefHashTableBucketElem@VXMLCanRepGroup@xercesc_3_1@@@2@QBXAAK@Z 1201e19d f i DatatypeValidatorFactory.obj
 0001:0001d19d       ?findBucketElem@?$RefHashTableOf@VXSerializedObjectId@xercesc_3_1@@UPtrHasher@2@@xercesc_3_1@@AAEPAU?$RefHashTableBucketElem@VXSerializedObjectId@xercesc_3_1@@@2@QBXAAK@Z 1201e19d f i XSerializeEngine.obj
 0001:0001d1c1       ??0DateDatatypeValidator@xercesc_3_1@@QAE@QAVMemoryManager@1@@Z 1201e1c1 f   DateDatatypeValidator.obj
 0001:0001d1e2       ??0DateDatatypeValidator@xercesc_3_1@@QAE@QAVDatatypeValidator@1@QAV?$RefHashTableOf@VKVStringPair@xercesc_3_1@@UStringHasher@2@@1@QAV?$RefArrayVectorOf@G@1@HQAVMemoryManager@1@@Z 1201e1e2 f   DateDatatypeValidator.obj
 0001:0001d22a       ?newInstance@DateDatatypeValidator@xercesc_3_1@@UAEPAVDatatypeValidator@2@QAV?$RefHashTableOf@VKVStringPair@xercesc_3_1@@UStringHasher@2@@2@QAV?$RefArrayVectorOf@G@2@HQAVMemoryManager@2@@Z 1201e22a f   DateDatatypeValidator.obj
 0001:0001d273       ?parse@DateDatatypeValidator@xercesc_3_1@@MAEPAVXMLDateTime@2@QBGQAVMemoryManager@2@@Z 1201e273 f   DateDatatypeValidator.obj
 0001:0001d2f0       ?parse@DateDatatypeValidator@xercesc_3_1@@MAEXQAVXMLDateTime@2@@Z 1201e2f0 f   DateDatatypeValidator.obj
 0001:0001d2fc       ?getCanonicalRepresentation@DateDatatypeValidator@xercesc_3_1@@UBEPBGQBGQAVMemoryManager@2@_N@Z 1201e2fc f   DateDatatypeValidator.obj
 0001:0001d389       ?createObject@DateDatatypeValidator@xercesc_3_1@@SAPAVXSerializable@2@PAVMemoryManager@2@@Z 1201e389 f   DateDatatypeValidator.obj
 0001:0001d3a6       ?getProtoType@DateDatatypeValidator@xercesc_3_1@@UBEPAVXProtoType@2@XZ 1201e3a6 f   DateDatatypeValidator.obj
 0001:0001d3ac       ?serialize@YearDatatypeValidator@xercesc_3_1@@UAEXAAVXSerializeEngine@2@@Z 1201e3ac f   YearDatatypeValidator.obj
 0001:0001d3ac       ?serialize@MonthDatatypeValidator@xercesc_3_1@@UAEXAAVXSerializeEngine@2@@Z 1201e3ac f   MonthDatatypeValidator.obj
 0001:0001d3ac       ?serialize@DateTimeDatatypeValidator@xercesc_3_1@@UAEXAAVXSerializeEngine@2@@Z 1201e3ac f   DateTimeDatatypeValidator.obj
 0001:0001d3ac       ?serialize@DateDatatypeValidator@xercesc_3_1@@UAEXAAVXSerializeEngine@2@@Z 1201e3ac f   DateDatatypeValidator.obj
 0001:0001d3ac       ?serialize@MonthDayDatatypeValidator@xercesc_3_1@@UAEXAAVXSerializeEngine@2@@Z 1201e3ac f   MonthDayDatatypeValidator.obj
 0001:0001d3ac       ?serialize@YearMonthDatatypeValidator@xercesc_3_1@@UAEXAAVXSerializeEngine@2@@Z 1201e3ac f   YearMonthDatatypeValidator.obj
 0001:0001d3ac       ?serialize@DayDatatypeValidator@xercesc_3_1@@UAEXAAVXSerializeEngine@2@@Z 1201e3ac f   DayDatatypeValidator.obj
 0001:0001d3ac       ?serialize@TimeDatatypeValidator@xercesc_3_1@@UAEXAAVXSerializeEngine@2@@Z 1201e3ac f   TimeDatatypeValidator.obj
 0001:0001d3ac       ?serialize@DurationDatatypeValidator@xercesc_3_1@@UAEXAAVXSerializeEngine@2@@Z 1201e3ac f   DurationDatatypeValidator.obj
 0001:0001d3b1       ??0DateTimeDatatypeValidator@xercesc_3_1@@QAE@QAVMemoryManager@1@@Z 1201e3b1 f   DateTimeDatatypeValidator.obj
 0001:0001d3d2       ??0DateTimeDatatypeValidator@xercesc_3_1@@QAE@QAVDatatypeValidator@1@QAV?$RefHashTableOf@VKVStringPair@xercesc_3_1@@UStringHasher@2@@1@QAV?$RefArrayVectorOf@G@1@HQAVMemoryManager@1@@Z 1201e3d2 f   DateTimeDatatypeValidator.obj
 0001:0001d41a       ?newInstance@DateTimeDatatypeValidator@xercesc_3_1@@UAEPAVDatatypeValidator@2@QAV?$RefHashTableOf@VKVStringPair@xercesc_3_1@@UStringHasher@2@@2@QAV?$RefArrayVectorOf@G@2@HQAVMemoryManager@2@@Z 1201e41a f   DateTimeDatatypeValidator.obj
 0001:0001d463       ?parse@DateTimeDatatypeValidator@xercesc_3_1@@MAEPAVXMLDateTime@2@QBGQAVMemoryManager@2@@Z 1201e463 f   DateTimeDatatypeValidator.obj
 0001:0001d4e0       ?parse@DateTimeDatatypeValidator@xercesc_3_1@@MAEXQAVXMLDateTime@2@@Z 1201e4e0 f   DateTimeDatatypeValidator.obj
 0001:0001d4ec       ?getCanonicalRepresentation@DateTimeDatatypeValidator@xercesc_3_1@@UBEPBGQBGQAVMemoryManager@2@_N@Z 1201e4ec f   DateTimeDatatypeValidator.obj
 0001:0001d578       ?createObject@DateTimeDatatypeValidator@xercesc_3_1@@SAPAVXSerializable@2@PAVMemoryManager@2@@Z 1201e578 f   DateTimeDatatypeValidator.obj
 0001:0001d595       ?getProtoType@DateTimeDatatypeValidator@xercesc_3_1@@UBEPAVXProtoType@2@XZ 1201e595 f   DateTimeDatatypeValidator.obj
 0001:0001d59b       ??0DateTimeValidator@xercesc_3_1@@IAE@QAVDatatypeValidator@1@QAV?$RefHashTableOf@VKVStringPair@xercesc_3_1@@UStringHasher@2@@1@HW4ValidatorType@21@QAVMemoryManager@1@@Z 1201e59b f   DateTimeValidator.obj
 0001:0001d5b9       ?compare@DateTimeValidator@xercesc_3_1@@UAEHQBG0QAVMemoryManager@2@@Z 1201e5b9 f   DateTimeValidator.obj
 0001:0001d650       ?checkContent@DateTimeValidator@xercesc_3_1@@MAEXQBGQAVValidationContext@2@_NQAVMemoryManager@2@@Z 1201e650 f   DateTimeValidator.obj
 0001:0001d888       ?compareValues@DateTimeValidator@xercesc_3_1@@MAEHQBVXMLNumber@2@0@Z 1201e888 f   DateTimeValidator.obj
 0001:0001d89a       ?compareDates@DateTimeValidator@xercesc_3_1@@MAEHQBVXMLDateTime@2@0_N@Z 1201e89a f   DateTimeValidator.obj
 0001:0001d8ae       ?setMaxInclusive@DateTimeValidator@xercesc_3_1@@MAEXQBG@Z 1201e8ae f   DateTimeValidator.obj
 0001:0001d8c4       ?setMaxExclusive@DateTimeValidator@xercesc_3_1@@MAEXQBG@Z 1201e8c4 f   DateTimeValidator.obj
 0001:0001d8da       ?setMinInclusive@DateTimeValidator@xercesc_3_1@@MAEXQBG@Z 1201e8da f   DateTimeValidator.obj
 0001:0001d8f0       ?setMinExclusive@DateTimeValidator@xercesc_3_1@@MAEXQBG@Z 1201e8f0 f   DateTimeValidator.obj
 0001:0001d906       ?setEnumeration@DateTimeValidator@xercesc_3_1@@MAEXQAVMemoryManager@2@@Z 1201e906 f   DateTimeValidator.obj
 0001:0001d9a4       ?getProtoType@DateTimeValidator@xercesc_3_1@@UBEPAVXProtoType@2@XZ 1201e9a4 f   DateTimeValidator.obj
 0001:0001d9aa       ?serialize@DateTimeValidator@xercesc_3_1@@UAEXAAVXSerializeEngine@2@@Z 1201e9aa f   DateTimeValidator.obj
 0001:0001d9ce       ?insertElementAt@?$BaseRefVectorOf@VXMLNumber@xercesc_3_1@@@xercesc_3_1@@QAEXQAVXMLNumber@2@K@Z 1201e9ce f i DateTimeValidator.obj
 0001:0001da34       ??0DayDatatypeValidator@xercesc_3_1@@QAE@QAVMemoryManager@1@@Z 1201ea34 f   DayDatatypeValidator.obj
 0001:0001da55       ??0DayDatatypeValidator@xercesc_3_1@@QAE@QAVDatatypeValidator@1@QAV?$RefHashTableOf@VKVStringPair@xercesc_3_1@@UStringHasher@2@@1@QAV?$RefArrayVectorOf@G@1@HQAVMemoryManager@1@@Z 1201ea55 f   DayDatatypeValidator.obj
 0001:0001da9d       ?newInstance@DayDatatypeValidator@xercesc_3_1@@UAEPAVDatatypeValidator@2@QAV?$RefHashTableOf@VKVStringPair@xercesc_3_1@@UStringHasher@2@@2@QAV?$RefArrayVectorOf@G@2@HQAVMemoryManager@2@@Z 1201ea9d f   DayDatatypeValidator.obj
 0001:0001dae6       ?parse@DayDatatypeValidator@xercesc_3_1@@MAEPAVXMLDateTime@2@QBGQAVMemoryManager@2@@Z 1201eae6 f   DayDatatypeValidator.obj
 0001:0001db63       ?parse@DayDatatypeValidator@xercesc_3_1@@MAEXQAVXMLDateTime@2@@Z 1201eb63 f   DayDatatypeValidator.obj
 0001:0001db6f       ?createObject@DayDatatypeValidator@xercesc_3_1@@SAPAVXSerializable@2@PAVMemoryManager@2@@Z 1201eb6f f   DayDatatypeValidator.obj
 0001:0001db8c       ?getProtoType@DayDatatypeValidator@xercesc_3_1@@UBEPAVXProtoType@2@XZ 1201eb8c f   DayDatatypeValidator.obj
 0001:0001db92       ??0DecimalDatatypeValidator@xercesc_3_1@@QAE@QAVMemoryManager@1@@Z 1201eb92 f   DecimalDatatypeValidator.obj
 0001:0001dbbf       ??0DecimalDatatypeValidator@xercesc_3_1@@QAE@QAVDatatypeValidator@1@QAV?$RefHashTableOf@VKVStringPair@xercesc_3_1@@UStringHasher@2@@1@QAV?$RefArrayVectorOf@G@1@HQAVMemoryManager@1@@Z 1201ebbf f   DecimalDatatypeValidator.obj
 0001:0001dc0e       ?compare@DecimalDatatypeValidator@xercesc_3_1@@UAEHQBG0QAVMemoryManager@2@@Z 1201ec0e f   DecimalDatatypeValidator.obj
 0001:0001dc80       ?newInstance@DecimalDatatypeValidator@xercesc_3_1@@UAEPAVDatatypeValidator@2@QAV?$RefHashTableOf@VKVStringPair@xercesc_3_1@@UStringHasher@2@@2@QAV?$RefArrayVectorOf@G@2@HQAVMemoryManager@2@@Z 1201ec80 f   DecimalDatatypeValidator.obj
 0001:0001dcc9       ?assignAdditionalFacet@DecimalDatatypeValidator@xercesc_3_1@@MAEXQBG0QAVMemoryManager@2@@Z 1201ecc9 f   DecimalDatatypeValidator.obj
 0001:0001de55       ?inheritAdditionalFacet@DecimalDatatypeValidator@xercesc_3_1@@MAEXXZ 1201ee55 f   DecimalDatatypeValidator.obj
 0001:0001de99       ?checkAdditionalFacetConstraints@DecimalDatatypeValidator@xercesc_3_1@@MBEXQAVMemoryManager@2@@Z 1201ee99 f   DecimalDatatypeValidator.obj
 0001:0001df43       ?checkAdditionalFacetConstraintsBase@DecimalDatatypeValidator@xercesc_3_1@@MBEXQAVMemoryManager@2@@Z 1201ef43 f   DecimalDatatypeValidator.obj
 0001:0001e17c       ?compareValues@DecimalDatatypeValidator@xercesc_3_1@@MAEHQBVXMLNumber@2@0@Z 1201f17c f   DecimalDatatypeValidator.obj
 0001:0001e190       ?setMaxInclusive@DecimalDatatypeValidator@xercesc_3_1@@MAEXQBG@Z 1201f190 f   DecimalDatatypeValidator.obj
 0001:0001e1d8       ?setMaxExclusive@DecimalDatatypeValidator@xercesc_3_1@@MAEXQBG@Z 1201f1d8 f   DecimalDatatypeValidator.obj
 0001:0001e220       ?setMinInclusive@DecimalDatatypeValidator@xercesc_3_1@@MAEXQBG@Z 1201f220 f   DecimalDatatypeValidator.obj
 0001:0001e268       ?setMinExclusive@DecimalDatatypeValidator@xercesc_3_1@@MAEXQBG@Z 1201f268 f   DecimalDatatypeValidator.obj
 0001:0001e2b0       ?setEnumeration@DecimalDatatypeValidator@xercesc_3_1@@MAEXQAVMemoryManager@2@@Z 1201f2b0 f   DecimalDatatypeValidator.obj
 0001:0001e3ed       ?checkContent@DecimalDatatypeValidator@xercesc_3_1@@MAEXQBGQAVValidationContext@2@_NQAVMemoryManager@2@@Z 1201f3ed f   DecimalDatatypeValidator.obj
 0001:0001e6df       ?getCanonicalRepresentation@DecimalDatatypeValidator@xercesc_3_1@@UBEPBGQBGQAVMemoryManager@2@_N@Z 1201f6df f   DecimalDatatypeValidator.obj
 0001:0001e76b       ?createObject@DecimalDatatypeValidator@xercesc_3_1@@SAPAVXSerializable@2@PAVMemoryManager@2@@Z 1201f76b f   DecimalDatatypeValidator.obj
 0001:0001e788       ?isSerializable@DayDatatypeValidator@xercesc_3_1@@UBE_NXZ 1201f788 f   DayDatatypeValidator.obj
 0001:0001e788       ?isSerializable@BooleanDatatypeValidator@xercesc_3_1@@UBE_NXZ 1201f788 f   BooleanDatatypeValidator.obj
 0001:0001e788       ?isSerializable@ContentSpecNode@xercesc_3_1@@UBE_NXZ 1201f788 f   ContentSpecNode.obj
 0001:0001e788       ?isSerializable@TimeDatatypeValidator@xercesc_3_1@@UBE_NXZ 1201f788 f   TimeDatatypeValidator.obj
 0001:0001e788       ?isSerializable@XMLEntityDecl@xercesc_3_1@@UBE_NXZ 1201f788 f   XMLEntityDecl.obj
 0001:0001e788       ?isSerializable@XMLElementDecl@xercesc_3_1@@UBE_NXZ 1201f788 f   XMLElementDecl.obj
 0001:0001e788       ?isSerializable@YearMonthDatatypeValidator@xercesc_3_1@@UBE_NXZ 1201f788 f   YearMonthDatatypeValidator.obj
 0001:0001e788       ?isSerializable@Base64BinaryDatatypeValidator@xercesc_3_1@@UBE_NXZ 1201f788 f   Base64BinaryDatatypeValidator.obj
 0001:0001e788       ?isSerializable@SchemaAttDefList@xercesc_3_1@@UBE_NXZ 1201f788 f   SchemaAttDefList.obj
 0001:0001e788       ?isSerializable@XercesGroupInfo@xercesc_3_1@@UBE_NXZ 1201f788 f   XercesGroupInfo.obj
 0001:0001e788       ?isSerializable@QName@xercesc_3_1@@UBE_NXZ 1201f788 f   QName.obj
 0001:0001e788       ?isSerializable@XMLAbstractDoubleFloat@xercesc_3_1@@UBE_NXZ 1201f788 f   XMLAbstractDoubleFloat.obj
 0001:0001e788       ?isSerializable@XercesXPath@xercesc_3_1@@UBE_NXZ 1201f788 f   XercesXPath.obj
 0001:0001e788       ?isSerializable@MonthDatatypeValidator@xercesc_3_1@@UBE_NXZ 1201f788 f   MonthDatatypeValidator.obj
 0001:0001e788       ?isSerializable@DTDElementDecl@xercesc_3_1@@UBE_NXZ 1201f788 f   DTDElementDecl.obj
 0001:0001e788       ?isSerializable@IC_Field@xercesc_3_1@@UBE_NXZ 1201f788 f   IC_Field.obj
 0001:0001e788       ?isSerializable@XMLNotationDecl@xercesc_3_1@@UBE_NXZ 1201f788 f   XMLNotationDecl.obj
 0001:0001e788       ?isSerializable@XercesNodeTest@xercesc_3_1@@UBE_NXZ 1201f788 f   XercesXPath.obj
 0001:0001e788       ?isSerializable@AnyURIDatatypeValidator@xercesc_3_1@@UBE_NXZ 1201f788 f   AnyURIDatatypeValidator.obj
 0001:0001e788       ?isSerializable@IC_Key@xercesc_3_1@@UBE_NXZ 1201f788 f   IC_Key.obj
 0001:0001e788       ?isSerializable@XMLDouble@xercesc_3_1@@UBE_NXZ 1201f788 f   XMLDouble.obj
 0001:0001e788       ?isSerializable@HexBinaryDatatypeValidator@xercesc_3_1@@UBE_NXZ 1201f788 f   HexBinaryDatatypeValidator.obj
 0001:0001e788       ?isSerializable@IC_KeyRef@xercesc_3_1@@UBE_NXZ 1201f788 f   IC_KeyRef.obj
 0001:0001e788       ?isSerializable@NCNameDatatypeValidator@xercesc_3_1@@UBE_NXZ 1201f788 f   NCNameDatatypeValidator.obj
 0001:0001e788       ?isSerializable@IDREFDatatypeValidator@xercesc_3_1@@UBE_NXZ 1201f788 f   IDREFDatatypeValidator.obj
 0001:0001e788       ?isSerializable@DatatypeValidatorFactory@xercesc_3_1@@UBE_NXZ 1201f788 f   DatatypeValidatorFactory.obj
 0001:0001e788       ?isSerializable@XercesStep@xercesc_3_1@@UBE_NXZ 1201f788 f   XercesXPath.obj
 0001:0001e788       ?isSerializable@DateTimeDatatypeValidator@xercesc_3_1@@UBE_NXZ 1201f788 f   DateTimeDatatypeValidator.obj
 0001:0001e788       ?isSerializable@NameDatatypeValidator@xercesc_3_1@@UBE_NXZ 1201f788 f   NameDatatypeValidator.obj
 0001:0001e788       ?isSerializable@DateDatatypeValidator@xercesc_3_1@@UBE_NXZ 1201f788 f   DateDatatypeValidator.obj
 0001:0001e788       ?isSerializable@ListDatatypeValidator@xercesc_3_1@@UBE_NXZ 1201f788 f   ListDatatypeValidator.obj
 0001:0001e788       ?isSerializable@SchemaElementDecl@xercesc_3_1@@UBE_NXZ 1201f788 f   SchemaElementDecl.obj
 0001:0001e788       ?isSerializable@XMLAttDef@xercesc_3_1@@UBE_NXZ 1201f788 f   XMLAttDef.obj
 0001:0001e788       ?isSerializable@QNameDatatypeValidator@xercesc_3_1@@UBE_NXZ 1201f788 f   QNameDatatypeValidator.obj
 0001:0001e788       ?isSerializable@AbstractStringValidator@xercesc_3_1@@UBE_NXZ 1201f788 f   AbstractStringValidator.obj
 0001:0001e788       ?isSerializable@NOTATIONDatatypeValidator@xercesc_3_1@@UBE_NXZ 1201f788 f   NOTATIONDatatypeValidator.obj
 0001:0001e788       ?isSerializable@DateTimeValidator@xercesc_3_1@@UBE_NXZ 1201f788 f   DateTimeValidator.obj
 0001:0001e788       ?isAtomic@DatatypeValidator@xercesc_3_1@@UBE_NXZ 1201f788 f   AbstractNumericFacetValidator.obj
 0001:0001e788       ?isSerializable@AnySimpleTypeDatatypeValidator@xercesc_3_1@@UBE_NXZ 1201f788 f   AnySimpleTypeDatatypeValidator.obj
 0001:0001e788       ?isSerializable@XMLStringPool@xercesc_3_1@@UBE_NXZ 1201f788 f   StringPool.obj
 0001:0001e788       ?isSerializable@KVStringPair@xercesc_3_1@@UBE_NXZ 1201f788 f   KVStringPair.obj
 0001:0001e788       ?isSerializable@XMLBigDecimal@xercesc_3_1@@UBE_NXZ 1201f788 f   XMLBigDecimal.obj
 0001:0001e788       ?isSerializable@IC_Unique@xercesc_3_1@@UBE_NXZ 1201f788 f   IC_Unique.obj
 0001:0001e788       ?isSerializable@XSAnnotation@xercesc_3_1@@UBE_NXZ 1201f788 f   XSAnnotation.obj
 0001:0001e788       ?isSerializable@XMLRefInfo@xercesc_3_1@@UBE_NXZ 1201f788 f   XMLRefInfo.obj
 0001:0001e788       ?isSerializable@DecimalDatatypeValidator@xercesc_3_1@@UBE_NXZ 1201f788 f   DecimalDatatypeValidator.obj
 0001:0001e788       ?isSerializable@XercesAttGroupInfo@xercesc_3_1@@UBE_NXZ 1201f788 f   XercesAttGroupInfo.obj
 0001:0001e788       ?isSerializable@DatatypeValidator@xercesc_3_1@@UBE_NXZ 1201f788 f   DatatypeValidator.obj
 0001:0001e788       ?isSerializable@FloatDatatypeValidator@xercesc_3_1@@UBE_NXZ 1201f788 f   FloatDatatypeValidator.obj
 0001:0001e788       ?isSerializable@AbstractNumericValidator@xercesc_3_1@@UBE_NXZ 1201f788 f   AbstractNumericValidator.obj
 0001:0001e788       ?isSerializable@SchemaGrammar@xercesc_3_1@@UBE_NXZ 1201f788 f   SchemaGrammar.obj
 0001:0001e788       ?isSerializable@XMLSchemaDescriptionImpl@xercesc_3_1@@UBE_NXZ 1201f788 f   XMLSchemaDescriptionImpl.obj
 0001:0001e788       ?isSerializable@YearDatatypeValidator@xercesc_3_1@@UBE_NXZ 1201f788 f   YearDatatypeValidator.obj
 0001:0001e788       ?isSerializable@XMLUri@xercesc_3_1@@UBE_NXZ 1201f788 f   XMLUri.obj
 0001:0001e788       ?isSerializable@StringDatatypeValidator@xercesc_3_1@@UBE_NXZ 1201f788 f   StringDatatypeValidator.obj
 0001:0001e788       ?isSerializable@ComplexTypeInfo@xercesc_3_1@@UBE_NXZ 1201f788 f   ComplexTypeInfo.obj
 0001:0001e788       ?isRepeatableLeaf@CMRepeatingLeaf@xercesc_3_1@@UBE_NXZ 1201f788 f   DFAContentModel.obj
 0001:0001e788       ?isSerializable@SchemaAttDef@xercesc_3_1@@UBE_NXZ 1201f788 f   SchemaAttDef.obj
 0001:0001e788       ?isSerializable@DTDAttDef@xercesc_3_1@@UBE_NXZ 1201f788 f   DTDAttDef.obj
 0001:0001e788       ?isSerializable@XMLDTDDescriptionImpl@xercesc_3_1@@UBE_NXZ 1201f788 f   XMLDTDDescriptionImpl.obj
 0001:0001e788       ?isSerializable@DTDGrammar@xercesc_3_1@@UBE_NXZ 1201f788 f   DTDGrammar.obj
 0001:0001e788       ?isSerializable@XercesLocationPath@xercesc_3_1@@UBE_NXZ 1201f788 f   XercesXPath.obj
 0001:0001e788       ?isSerializable@MonthDayDatatypeValidator@xercesc_3_1@@UBE_NXZ 1201f788 f   MonthDayDatatypeValidator.obj
 0001:0001e788       ?isSerializable@DTDEntityDecl@xercesc_3_1@@UBE_NXZ 1201f788 f   DTDEntityDecl.obj
 0001:0001e788       ?isSerializable@IdentityConstraint@xercesc_3_1@@UBE_NXZ 1201f788 f   IdentityConstraint.obj
 0001:0001e788       ?isSerializable@IC_Selector@xercesc_3_1@@UBE_NXZ 1201f788 f   IC_Selector.obj
 0001:0001e788       ?isSerializable@ENTITYDatatypeValidator@xercesc_3_1@@UBE_NXZ 1201f788 f   ENTITYDatatypeValidator.obj
 0001:0001e788       ?isSerializable@IDDatatypeValidator@xercesc_3_1@@UBE_NXZ 1201f788 f   IDDatatypeValidator.obj
 0001:0001e788       ?isSerializable@DurationDatatypeValidator@xercesc_3_1@@UBE_NXZ 1201f788 f   DurationDatatypeValidator.obj
 0001:0001e788       ?isSerializable@DoubleDatatypeValidator@xercesc_3_1@@UBE_NXZ 1201f788 f   DoubleDatatypeValidator.obj
 0001:0001e788       ?isSerializable@UnionDatatypeValidator@xercesc_3_1@@UBE_NXZ 1201f788 f   UnionDatatypeValidator.obj
 0001:0001e788       ?isSerializable@XMLFloat@xercesc_3_1@@UBE_NXZ 1201f788 f   XMLFloat.obj
 0001:0001e788       ?isSerializable@DTDAttDefList@xercesc_3_1@@UBE_NXZ 1201f788 f   DTDAttDefList.obj
 0001:0001e788       ?isSerializable@XMLDateTime@xercesc_3_1@@UBE_NXZ 1201f788 f   XMLDateTime.obj
 0001:0001e788       ?isSerializable@AbstractNumericFacetValidator@xercesc_3_1@@UBE_NXZ 1201f788 f   AbstractNumericFacetValidator.obj
 0001:0001e78b       ?getProtoType@DecimalDatatypeValidator@xercesc_3_1@@UBEPAVXProtoType@2@XZ 1201f78b f   DecimalDatatypeValidator.obj
 0001:0001e791       ?serialize@DecimalDatatypeValidator@xercesc_3_1@@UAEXAAVXSerializeEngine@2@@Z 1201f791 f   DecimalDatatypeValidator.obj
 0001:0001e7e7       ??0DoubleDatatypeValidator@xercesc_3_1@@QAE@QAVMemoryManager@1@@Z 1201f7e7 f   DoubleDatatypeValidator.obj
 0001:0001e814       ??0DoubleDatatypeValidator@xercesc_3_1@@QAE@QAVDatatypeValidator@1@QAV?$RefHashTableOf@VKVStringPair@xercesc_3_1@@UStringHasher@2@@1@QAV?$RefArrayVectorOf@G@1@HQAVMemoryManager@1@@Z 1201f814 f   DoubleDatatypeValidator.obj
 0001:0001e85c       ?compare@DoubleDatatypeValidator@xercesc_3_1@@UAEHQBG0QAVMemoryManager@2@@Z 1201f85c f   DoubleDatatypeValidator.obj
 0001:0001e8d9       ?newInstance@DoubleDatatypeValidator@xercesc_3_1@@UAEPAVDatatypeValidator@2@QAV?$RefHashTableOf@VKVStringPair@xercesc_3_1@@UStringHasher@2@@2@QAV?$RefArrayVectorOf@G@2@HQAVMemoryManager@2@@Z 1201f8d9 f   DoubleDatatypeValidator.obj
 0001:0001e922       ?compareValues@DoubleDatatypeValidator@xercesc_3_1@@MAEHQBVXMLNumber@2@0@Z 1201f922 f   DoubleDatatypeValidator.obj
 0001:0001e922       ?compareValues@FloatDatatypeValidator@xercesc_3_1@@MAEHQBVXMLNumber@2@0@Z 1201f922 f   FloatDatatypeValidator.obj
 0001:0001e935       ?setMaxInclusive@DoubleDatatypeValidator@xercesc_3_1@@MAEXQBG@Z 1201f935 f   DoubleDatatypeValidator.obj
 0001:0001e97d       ?setMaxExclusive@DoubleDatatypeValidator@xercesc_3_1@@MAEXQBG@Z 1201f97d f   DoubleDatatypeValidator.obj
 0001:0001e9c5       ?setMinInclusive@DoubleDatatypeValidator@xercesc_3_1@@MAEXQBG@Z 1201f9c5 f   DoubleDatatypeValidator.obj
 0001:0001ea0d       ?setMinExclusive@DoubleDatatypeValidator@xercesc_3_1@@MAEXQBG@Z 1201fa0d f   DoubleDatatypeValidator.obj
 0001:0001ea55       ?setEnumeration@DoubleDatatypeValidator@xercesc_3_1@@MAEXQAVMemoryManager@2@@Z 1201fa55 f   DoubleDatatypeValidator.obj
 0001:0001eb91       ?checkContent@DoubleDatatypeValidator@xercesc_3_1@@MAEXQBGQAVValidationContext@2@_NQAVMemoryManager@2@@Z 1201fb91 f   DoubleDatatypeValidator.obj
 0001:0001ecbb       ?createObject@DoubleDatatypeValidator@xercesc_3_1@@SAPAVXSerializable@2@PAVMemoryManager@2@@Z 1201fcbb f   DoubleDatatypeValidator.obj
 0001:0001ecd8       ?getProtoType@DoubleDatatypeValidator@xercesc_3_1@@UBEPAVXProtoType@2@XZ 1201fcd8 f   DoubleDatatypeValidator.obj
 0001:0001ecde       ?serialize@DoubleDatatypeValidator@xercesc_3_1@@UAEXAAVXSerializeEngine@2@@Z 1201fcde f   DoubleDatatypeValidator.obj
 0001:0001ed02       ??0DurationDatatypeValidator@xercesc_3_1@@QAE@QAVMemoryManager@1@@Z 1201fd02 f   DurationDatatypeValidator.obj
 0001:0001ed23       ??0DurationDatatypeValidator@xercesc_3_1@@QAE@QAVDatatypeValidator@1@QAV?$RefHashTableOf@VKVStringPair@xercesc_3_1@@UStringHasher@2@@1@QAV?$RefArrayVectorOf@G@1@HQAVMemoryManager@1@@Z 1201fd23 f   DurationDatatypeValidator.obj
 0001:0001ed6b       ?newInstance@DurationDatatypeValidator@xercesc_3_1@@UAEPAVDatatypeValidator@2@QAV?$RefHashTableOf@VKVStringPair@xercesc_3_1@@UStringHasher@2@@2@QAV?$RefArrayVectorOf@G@2@HQAVMemoryManager@2@@Z 1201fd6b f   DurationDatatypeValidator.obj
 0001:0001edb4       ?parse@DurationDatatypeValidator@xercesc_3_1@@MAEPAVXMLDateTime@2@QBGQAVMemoryManager@2@@Z 1201fdb4 f   DurationDatatypeValidator.obj
 0001:0001ee31       ?parse@DurationDatatypeValidator@xercesc_3_1@@MAEXQAVXMLDateTime@2@@Z 1201fe31 f   DurationDatatypeValidator.obj
 0001:0001ee3d       ?compareDates@DurationDatatypeValidator@xercesc_3_1@@MAEHQBVXMLDateTime@2@0_N@Z 1201fe3d f   DurationDatatypeValidator.obj
 0001:0001ee55       ?createObject@DurationDatatypeValidator@xercesc_3_1@@SAPAVXSerializable@2@PAVMemoryManager@2@@Z 1201fe55 f   DurationDatatypeValidator.obj
 0001:0001ee72       ?getProtoType@DurationDatatypeValidator@xercesc_3_1@@UBEPAVXProtoType@2@XZ 1201fe72 f   DurationDatatypeValidator.obj
 0001:0001ee78       ??0ENTITYDatatypeValidator@xercesc_3_1@@QAE@QAVMemoryManager@1@@Z 1201fe78 f   ENTITYDatatypeValidator.obj
 0001:0001ee92       ??_EIDDatatypeValidator@xercesc_3_1@@UAEPAXI@Z 1201fe92 f i IDDatatypeValidator.obj
 0001:0001ee92       ??_GENTITYDatatypeValidator@xercesc_3_1@@UAEPAXI@Z 1201fe92 f i ENTITYDatatypeValidator.obj
 0001:0001ee92       ??_EIDREFDatatypeValidator@xercesc_3_1@@UAEPAXI@Z 1201fe92 f i IDREFDatatypeValidator.obj
 0001:0001ee92       ??_GNameDatatypeValidator@xercesc_3_1@@UAEPAXI@Z 1201fe92 f i NameDatatypeValidator.obj
 0001:0001ee92       ??_ENCNameDatatypeValidator@xercesc_3_1@@UAEPAXI@Z 1201fe92 f i NCNameDatatypeValidator.obj
 0001:0001ee92       ??_EENTITYDatatypeValidator@xercesc_3_1@@UAEPAXI@Z 1201fe92 f i ENTITYDatatypeValidator.obj
 0001:0001ee92       ??_GIDDatatypeValidator@xercesc_3_1@@UAEPAXI@Z 1201fe92 f i IDDatatypeValidator.obj
 0001:0001ee92       ??_GIDREFDatatypeValidator@xercesc_3_1@@UAEPAXI@Z 1201fe92 f i IDREFDatatypeValidator.obj
 0001:0001ee92       ??_ENameDatatypeValidator@xercesc_3_1@@UAEPAXI@Z 1201fe92 f i NameDatatypeValidator.obj
 0001:0001ee92       ??_GNCNameDatatypeValidator@xercesc_3_1@@UAEPAXI@Z 1201fe92 f i NCNameDatatypeValidator.obj
 0001:0001ee92       ??_EStringDatatypeValidator@xercesc_3_1@@UAEPAXI@Z 1201fe92 f i StringDatatypeValidator.obj
 0001:0001ee92       ??_GStringDatatypeValidator@xercesc_3_1@@UAEPAXI@Z 1201fe92 f i StringDatatypeValidator.obj
 0001:0001eeae       ??0ENTITYDatatypeValidator@xercesc_3_1@@QAE@QAVDatatypeValidator@1@QAV?$RefHashTableOf@VKVStringPair@xercesc_3_1@@UStringHasher@2@@1@QAV?$RefArrayVectorOf@G@1@HQAVMemoryManager@1@@Z 1201feae f   ENTITYDatatypeValidator.obj
 0001:0001eef4       ??1ENTITYDatatypeValidator@xercesc_3_1@@UAE@XZ 1201fef4 f   ENTITYDatatypeValidator.obj
 0001:0001eef4       ??1IDDatatypeValidator@xercesc_3_1@@UAE@XZ 1201fef4 f   IDDatatypeValidator.obj
 0001:0001eef4       ??1NameDatatypeValidator@xercesc_3_1@@UAE@XZ 1201fef4 f   NameDatatypeValidator.obj
 0001:0001eef4       ??1NCNameDatatypeValidator@xercesc_3_1@@UAE@XZ 1201fef4 f   NCNameDatatypeValidator.obj
 0001:0001eef4       ??1IDREFDatatypeValidator@xercesc_3_1@@UAE@XZ 1201fef4 f   IDREFDatatypeValidator.obj
 0001:0001eef4       ??1StringDatatypeValidator@xercesc_3_1@@UAE@XZ 1201fef4 f   StringDatatypeValidator.obj
 0001:0001eeff       ?newInstance@ENTITYDatatypeValidator@xercesc_3_1@@UAEPAVDatatypeValidator@2@QAV?$RefHashTableOf@VKVStringPair@xercesc_3_1@@UStringHasher@2@@2@QAV?$RefArrayVectorOf@G@2@HQAVMemoryManager@2@@Z 1201feff f   ENTITYDatatypeValidator.obj
 0001:0001ef48       ?validate@ENTITYDatatypeValidator@xercesc_3_1@@UAEXQBGQAVValidationContext@2@QAVMemoryManager@2@@Z 1201ff48 f   ENTITYDatatypeValidator.obj
 0001:0001ef6e       ?checkValueSpace@ENTITYDatatypeValidator@xercesc_3_1@@MAEXQBGQAVMemoryManager@2@@Z 1201ff6e f   ENTITYDatatypeValidator.obj
 0001:0001efbd       ?createObject@ENTITYDatatypeValidator@xercesc_3_1@@SAPAVXSerializable@2@PAVMemoryManager@2@@Z 1201ffbd f   ENTITYDatatypeValidator.obj
 0001:0001efda       ?getProtoType@ENTITYDatatypeValidator@xercesc_3_1@@UBEPAVXProtoType@2@XZ 1201ffda f   ENTITYDatatypeValidator.obj
 0001:0001efe0       ??0FloatDatatypeValidator@xercesc_3_1@@QAE@QAVMemoryManager@1@@Z 1201ffe0 f   FloatDatatypeValidator.obj
 0001:0001f00d       ??0FloatDatatypeValidator@xercesc_3_1@@QAE@QAVDatatypeValidator@1@QAV?$RefHashTableOf@VKVStringPair@xercesc_3_1@@UStringHasher@2@@1@QAV?$RefArrayVectorOf@G@1@HQAVMemoryManager@1@@Z 1202000d f   FloatDatatypeValidator.obj
 0001:0001f055       ?compare@FloatDatatypeValidator@xercesc_3_1@@UAEHQBG0QAVMemoryManager@2@@Z 12020055 f   FloatDatatypeValidator.obj
 0001:0001f0d2       ?newInstance@FloatDatatypeValidator@xercesc_3_1@@UAEPAVDatatypeValidator@2@QAV?$RefHashTableOf@VKVStringPair@xercesc_3_1@@UStringHasher@2@@2@QAV?$RefArrayVectorOf@G@2@HQAVMemoryManager@2@@Z 120200d2 f   FloatDatatypeValidator.obj
 0001:0001f11b       ?setMaxInclusive@FloatDatatypeValidator@xercesc_3_1@@MAEXQBG@Z 1202011b f   FloatDatatypeValidator.obj
 0001:0001f163       ?setMaxExclusive@FloatDatatypeValidator@xercesc_3_1@@MAEXQBG@Z 12020163 f   FloatDatatypeValidator.obj
 0001:0001f1ab       ?setMinInclusive@FloatDatatypeValidator@xercesc_3_1@@MAEXQBG@Z 120201ab f   FloatDatatypeValidator.obj
 0001:0001f1f3       ?setMinExclusive@FloatDatatypeValidator@xercesc_3_1@@MAEXQBG@Z 120201f3 f   FloatDatatypeValidator.obj
 0001:0001f23b       ?setEnumeration@FloatDatatypeValidator@xercesc_3_1@@MAEXQAVMemoryManager@2@@Z 1202023b f   FloatDatatypeValidator.obj
 0001:0001f379       ?checkContent@FloatDatatypeValidator@xercesc_3_1@@MAEXQBGQAVValidationContext@2@_NQAVMemoryManager@2@@Z 12020379 f   FloatDatatypeValidator.obj
 0001:0001f4a3       ?createObject@FloatDatatypeValidator@xercesc_3_1@@SAPAVXSerializable@2@PAVMemoryManager@2@@Z 120204a3 f   FloatDatatypeValidator.obj
 0001:0001f4c0       ?getProtoType@FloatDatatypeValidator@xercesc_3_1@@UBEPAVXProtoType@2@XZ 120204c0 f   FloatDatatypeValidator.obj
 0001:0001f4c6       ?serialize@FloatDatatypeValidator@xercesc_3_1@@UAEXAAVXSerializeEngine@2@@Z 120204c6 f   FloatDatatypeValidator.obj
 0001:0001f4ea       ??0HexBinaryDatatypeValidator@xercesc_3_1@@QAE@QAVMemoryManager@1@@Z 120204ea f   HexBinaryDatatypeValidator.obj
 0001:0001f504       ??_EHexBinaryDatatypeValidator@xercesc_3_1@@UAEPAXI@Z 12020504 f i HexBinaryDatatypeValidator.obj
 0001:0001f504       ??_GHexBinaryDatatypeValidator@xercesc_3_1@@UAEPAXI@Z 12020504 f i HexBinaryDatatypeValidator.obj
 0001:0001f520       ??1HexBinaryDatatypeValidator@xercesc_3_1@@UAE@XZ 12020520 f   HexBinaryDatatypeValidator.obj
 0001:0001f52b       ??0HexBinaryDatatypeValidator@xercesc_3_1@@QAE@QAVDatatypeValidator@1@QAV?$RefHashTableOf@VKVStringPair@xercesc_3_1@@UStringHasher@2@@1@QAV?$RefArrayVectorOf@G@1@HQAVMemoryManager@1@@Z 1202052b f   HexBinaryDatatypeValidator.obj
 0001:0001f571       ?newInstance@HexBinaryDatatypeValidator@xercesc_3_1@@UAEPAVDatatypeValidator@2@QAV?$RefHashTableOf@VKVStringPair@xercesc_3_1@@UStringHasher@2@@2@QAV?$RefArrayVectorOf@G@2@HQAVMemoryManager@2@@Z 12020571 f   HexBinaryDatatypeValidator.obj
 0001:0001f5ba       ?checkValueSpace@HexBinaryDatatypeValidator@xercesc_3_1@@MAEXQBGQAVMemoryManager@2@@Z 120205ba f   HexBinaryDatatypeValidator.obj
 0001:0001f600       ?getLength@HexBinaryDatatypeValidator@xercesc_3_1@@MBEKQBGQAVMemoryManager@2@@Z 12020600 f   HexBinaryDatatypeValidator.obj
 0001:0001f60d       ?createObject@HexBinaryDatatypeValidator@xercesc_3_1@@SAPAVXSerializable@2@PAVMemoryManager@2@@Z 1202060d f   HexBinaryDatatypeValidator.obj
 0001:0001f62a       ?getProtoType@HexBinaryDatatypeValidator@xercesc_3_1@@UBEPAVXProtoType@2@XZ 1202062a f   HexBinaryDatatypeValidator.obj
 0001:0001f630       ?serialize@HexBinaryDatatypeValidator@xercesc_3_1@@UAEXAAVXSerializeEngine@2@@Z 12020630 f   HexBinaryDatatypeValidator.obj
 0001:0001f630       ?serialize@IDREFDatatypeValidator@xercesc_3_1@@UAEXAAVXSerializeEngine@2@@Z 12020630 f   IDREFDatatypeValidator.obj
 0001:0001f630       ?serialize@Base64BinaryDatatypeValidator@xercesc_3_1@@UAEXAAVXSerializeEngine@2@@Z 12020630 f   Base64BinaryDatatypeValidator.obj
 0001:0001f630       ?serialize@ListDatatypeValidator@xercesc_3_1@@UAEXAAVXSerializeEngine@2@@Z 12020630 f   ListDatatypeValidator.obj
 0001:0001f630       ?serialize@ENTITYDatatypeValidator@xercesc_3_1@@UAEXAAVXSerializeEngine@2@@Z 12020630 f   ENTITYDatatypeValidator.obj
 0001:0001f630       ?serialize@StringDatatypeValidator@xercesc_3_1@@UAEXAAVXSerializeEngine@2@@Z 12020630 f   StringDatatypeValidator.obj
 0001:0001f630       ?serialize@AnyURIDatatypeValidator@xercesc_3_1@@UAEXAAVXSerializeEngine@2@@Z 12020630 f   AnyURIDatatypeValidator.obj
 0001:0001f630       ?serialize@NameDatatypeValidator@xercesc_3_1@@UAEXAAVXSerializeEngine@2@@Z 12020630 f   NameDatatypeValidator.obj
 0001:0001f630       ?serialize@NOTATIONDatatypeValidator@xercesc_3_1@@UAEXAAVXSerializeEngine@2@@Z 12020630 f   NOTATIONDatatypeValidator.obj
 0001:0001f630       ?serialize@QNameDatatypeValidator@xercesc_3_1@@UAEXAAVXSerializeEngine@2@@Z 12020630 f   QNameDatatypeValidator.obj
 0001:0001f630       ?serialize@IDDatatypeValidator@xercesc_3_1@@UAEXAAVXSerializeEngine@2@@Z 12020630 f   IDDatatypeValidator.obj
 0001:0001f630       ?serialize@NCNameDatatypeValidator@xercesc_3_1@@UAEXAAVXSerializeEngine@2@@Z 12020630 f   NCNameDatatypeValidator.obj
 0001:0001f635       ??0IDDatatypeValidator@xercesc_3_1@@QAE@QAVMemoryManager@1@@Z 12020635 f   IDDatatypeValidator.obj
 0001:0001f64f       ??0IDDatatypeValidator@xercesc_3_1@@QAE@QAVDatatypeValidator@1@QAV?$RefHashTableOf@VKVStringPair@xercesc_3_1@@UStringHasher@2@@1@QAV?$RefArrayVectorOf@G@1@HQAVMemoryManager@1@@Z 1202064f f   IDDatatypeValidator.obj
 0001:0001f695       ?newInstance@IDDatatypeValidator@xercesc_3_1@@UAEPAVDatatypeValidator@2@QAV?$RefHashTableOf@VKVStringPair@xercesc_3_1@@UStringHasher@2@@2@QAV?$RefArrayVectorOf@G@2@HQAVMemoryManager@2@@Z 12020695 f   IDDatatypeValidator.obj
 0001:0001f6de       ?validate@IDDatatypeValidator@xercesc_3_1@@UAEXQBGQAVValidationContext@2@QAVMemoryManager@2@@Z 120206de f   IDDatatypeValidator.obj
 0001:0001f704       ?checkValueSpace@IDDatatypeValidator@xercesc_3_1@@MAEXQBGQAVMemoryManager@2@@Z 12020704 f   IDDatatypeValidator.obj
 0001:0001f753       ?createObject@IDDatatypeValidator@xercesc_3_1@@SAPAVXSerializable@2@PAVMemoryManager@2@@Z 12020753 f   IDDatatypeValidator.obj
 0001:0001f770       ?getProtoType@IDDatatypeValidator@xercesc_3_1@@UBEPAVXProtoType@2@XZ 12020770 f   IDDatatypeValidator.obj
 0001:0001f776       ??0IDREFDatatypeValidator@xercesc_3_1@@QAE@QAVMemoryManager@1@@Z 12020776 f   IDREFDatatypeValidator.obj
 0001:0001f790       ??0IDREFDatatypeValidator@xercesc_3_1@@QAE@QAVDatatypeValidator@1@QAV?$RefHashTableOf@VKVStringPair@xercesc_3_1@@UStringHasher@2@@1@QAV?$RefArrayVectorOf@G@1@HQAVMemoryManager@1@@Z 12020790 f   IDREFDatatypeValidator.obj
 0001:0001f7d6       ?newInstance@IDREFDatatypeValidator@xercesc_3_1@@UAEPAVDatatypeValidator@2@QAV?$RefHashTableOf@VKVStringPair@xercesc_3_1@@UStringHasher@2@@2@QAV?$RefArrayVectorOf@G@2@HQAVMemoryManager@2@@Z 120207d6 f   IDREFDatatypeValidator.obj
 0001:0001f81f       ?validate@IDREFDatatypeValidator@xercesc_3_1@@UAEXQBGQAVValidationContext@2@QAVMemoryManager@2@@Z 1202081f f   IDREFDatatypeValidator.obj
 0001:0001f845       ?checkValueSpace@IDREFDatatypeValidator@xercesc_3_1@@MAEXQBGQAVMemoryManager@2@@Z 12020845 f   IDREFDatatypeValidator.obj
 0001:0001f894       ?createObject@IDREFDatatypeValidator@xercesc_3_1@@SAPAVXSerializable@2@PAVMemoryManager@2@@Z 12020894 f   IDREFDatatypeValidator.obj
 0001:0001f8b1       ?getProtoType@IDREFDatatypeValidator@xercesc_3_1@@UBEPAVXProtoType@2@XZ 120208b1 f   IDREFDatatypeValidator.obj
 0001:0001f8b7       ?isAtomic@ListDatatypeValidator@xercesc_3_1@@UBE_NXZ 120208b7 f i ListDatatypeValidator.obj
 0001:0001f8b7       ?isAtomic@AnySimpleTypeDatatypeValidator@xercesc_3_1@@UBE_NXZ 120208b7 f i AnySimpleTypeDatatypeValidator.obj
 0001:0001f8b7       ?isRepeatableLeaf@CMLeaf@xercesc_3_1@@UBE_NXZ 120208b7 f i DFAContentModel.obj
 0001:0001f8ba       ??0ListDatatypeValidator@xercesc_3_1@@QAE@QAVMemoryManager@1@@Z 120208ba f   ListDatatypeValidator.obj
 0001:0001f8d8       ??_EListDatatypeValidator@xercesc_3_1@@UAEPAXI@Z 120208d8 f i ListDatatypeValidator.obj
 0001:0001f8d8       ??_GListDatatypeValidator@xercesc_3_1@@UAEPAXI@Z 120208d8 f i ListDatatypeValidator.obj
 0001:0001f8f4       ??0ListDatatypeValidator@xercesc_3_1@@QAE@QAVDatatypeValidator@1@QAV?$RefHashTableOf@VKVStringPair@xercesc_3_1@@UStringHasher@2@@1@QAV?$RefArrayVectorOf@G@1@HQAVMemoryManager@1@@Z 120208f4 f   ListDatatypeValidator.obj
 0001:0001f96d       ??1ListDatatypeValidator@xercesc_3_1@@UAE@XZ 1202096d f   ListDatatypeValidator.obj
 0001:0001f978       ?newInstance@ListDatatypeValidator@xercesc_3_1@@UAEPAVDatatypeValidator@2@QAV?$RefHashTableOf@VKVStringPair@xercesc_3_1@@UStringHasher@2@@2@QAV?$RefArrayVectorOf@G@2@HQAVMemoryManager@2@@Z 12020978 f   ListDatatypeValidator.obj
 0001:0001f9c1       ?compare@ListDatatypeValidator@xercesc_3_1@@UAEHQBG0QAVMemoryManager@2@@Z 120209c1 f   ListDatatypeValidator.obj
 0001:0001fa93       ?validate@ListDatatypeValidator@xercesc_3_1@@UAEXQBGQAVValidationContext@2@QAVMemoryManager@2@@Z 12020a93 f   ListDatatypeValidator.obj
 0001:0001fae8       ?checkContent@ListDatatypeValidator@xercesc_3_1@@MAEXQBGQAVValidationContext@2@_NQAVMemoryManager@2@@Z 12020ae8 f   ListDatatypeValidator.obj
 0001:0001fb3d       ?checkContent@ListDatatypeValidator@xercesc_3_1@@AAEXPAV?$BaseRefVectorOf@G@2@QBGQAVValidationContext@2@_NQAVMemoryManager@2@@Z 12020b3d f   ListDatatypeValidator.obj
 0001:0001fdfe       ?valueSpaceCheck@ListDatatypeValidator@xercesc_3_1@@ABE_NPAV?$BaseRefVectorOf@G@2@QBGQAVMemoryManager@2@@Z 12020dfe f   ListDatatypeValidator.obj
 0001:0001fea8       ?checkValueSpace@ListDatatypeValidator@xercesc_3_1@@MAEXQBGQAVMemoryManager@2@@Z 12020ea8 f   ListDatatypeValidator.obj
 0001:0001fea8       ?checkValueSpace@StringDatatypeValidator@xercesc_3_1@@MAEXQBGQAVMemoryManager@2@@Z 12020ea8 f   StringDatatypeValidator.obj
 0001:0001fea8       ?normalizeContent@AbstractStringValidator@xercesc_3_1@@MBEXQAGQAVMemoryManager@2@@Z 12020ea8 f   AbstractStringValidator.obj
 0001:0001fea8       ?checkAdditionalFacet@AbstractStringValidator@xercesc_3_1@@MBEXQBGQAVMemoryManager@2@@Z 12020ea8 f   AbstractStringValidator.obj
 0001:0001feab       ?getLength@ListDatatypeValidator@xercesc_3_1@@MBEKQBGQAVMemoryManager@2@@Z 12020eab f   ListDatatypeValidator.obj
 0001:0001fed6       ?inspectFacetBase@ListDatatypeValidator@xercesc_3_1@@MAEXQAVMemoryManager@2@@Z 12020ed6 f   ListDatatypeValidator.obj
 0001:0001ffd6       ?inheritFacet@ListDatatypeValidator@xercesc_3_1@@MAEXXZ 12020fd6 f   ListDatatypeValidator.obj
 0001:0001ffe5       ?getCanonicalRepresentation@ListDatatypeValidator@xercesc_3_1@@UBEPBGQBGQAVMemoryManager@2@_N@Z 12020fe5 f   ListDatatypeValidator.obj
 0001:0002016c       ?createObject@ListDatatypeValidator@xercesc_3_1@@SAPAVXSerializable@2@PAVMemoryManager@2@@Z 1202116c f   ListDatatypeValidator.obj
 0001:00020189       ?getProtoType@ListDatatypeValidator@xercesc_3_1@@UBEPAVXProtoType@2@XZ 12021189 f   ListDatatypeValidator.obj
 0001:0002018f       ??0MonthDatatypeValidator@xercesc_3_1@@QAE@QAVMemoryManager@1@@Z 1202118f f   MonthDatatypeValidator.obj
 0001:000201b0       ??0MonthDatatypeValidator@xercesc_3_1@@QAE@QAVDatatypeValidator@1@QAV?$RefHashTableOf@VKVStringPair@xercesc_3_1@@UStringHasher@2@@1@QAV?$RefArrayVectorOf@G@1@HQAVMemoryManager@1@@Z 120211b0 f   MonthDatatypeValidator.obj
 0001:000201f8       ?newInstance@MonthDatatypeValidator@xercesc_3_1@@UAEPAVDatatypeValidator@2@QAV?$RefHashTableOf@VKVStringPair@xercesc_3_1@@UStringHasher@2@@2@QAV?$RefArrayVectorOf@G@2@HQAVMemoryManager@2@@Z 120211f8 f   MonthDatatypeValidator.obj
 0001:00020241       ?parse@MonthDatatypeValidator@xercesc_3_1@@MAEPAVXMLDateTime@2@QBGQAVMemoryManager@2@@Z 12021241 f   MonthDatatypeValidator.obj
 0001:000202be       ?parse@MonthDatatypeValidator@xercesc_3_1@@MAEXQAVXMLDateTime@2@@Z 120212be f   MonthDatatypeValidator.obj
 0001:000202ca       ?createObject@MonthDatatypeValidator@xercesc_3_1@@SAPAVXSerializable@2@PAVMemoryManager@2@@Z 120212ca f   MonthDatatypeValidator.obj
 0001:000202e7       ?getProtoType@MonthDatatypeValidator@xercesc_3_1@@UBEPAVXProtoType@2@XZ 120212e7 f   MonthDatatypeValidator.obj
 0001:000202ed       ??0MonthDayDatatypeValidator@xercesc_3_1@@QAE@QAVMemoryManager@1@@Z 120212ed f   MonthDayDatatypeValidator.obj
 0001:0002030e       ??0MonthDayDatatypeValidator@xercesc_3_1@@QAE@QAVDatatypeValidator@1@QAV?$RefHashTableOf@VKVStringPair@xercesc_3_1@@UStringHasher@2@@1@QAV?$RefArrayVectorOf@G@1@HQAVMemoryManager@1@@Z 1202130e f   MonthDayDatatypeValidator.obj
 0001:00020356       ?newInstance@MonthDayDatatypeValidator@xercesc_3_1@@UAEPAVDatatypeValidator@2@QAV?$RefHashTableOf@VKVStringPair@xercesc_3_1@@UStringHasher@2@@2@QAV?$RefArrayVectorOf@G@2@HQAVMemoryManager@2@@Z 12021356 f   MonthDayDatatypeValidator.obj
 0001:0002039f       ?parse@MonthDayDatatypeValidator@xercesc_3_1@@MAEPAVXMLDateTime@2@QBGQAVMemoryManager@2@@Z 1202139f f   MonthDayDatatypeValidator.obj
 0001:0002041c       ?parse@MonthDayDatatypeValidator@xercesc_3_1@@MAEXQAVXMLDateTime@2@@Z 1202141c f   MonthDayDatatypeValidator.obj
 0001:00020428       ?createObject@MonthDayDatatypeValidator@xercesc_3_1@@SAPAVXSerializable@2@PAVMemoryManager@2@@Z 12021428 f   MonthDayDatatypeValidator.obj
 0001:00020445       ?getProtoType@MonthDayDatatypeValidator@xercesc_3_1@@UBEPAVXProtoType@2@XZ 12021445 f   MonthDayDatatypeValidator.obj
 0001:0002044b       ??0NameDatatypeValidator@xercesc_3_1@@QAE@QAVMemoryManager@1@@Z 1202144b f   NameDatatypeValidator.obj
 0001:00020465       ??0NameDatatypeValidator@xercesc_3_1@@QAE@QAVDatatypeValidator@1@QAV?$RefHashTableOf@VKVStringPair@xercesc_3_1@@UStringHasher@2@@1@QAV?$RefArrayVectorOf@G@1@HQAVMemoryManager@1@@Z 12021465 f   NameDatatypeValidator.obj
 0001:000204ab       ?newInstance@NameDatatypeValidator@xercesc_3_1@@UAEPAVDatatypeValidator@2@QAV?$RefHashTableOf@VKVStringPair@xercesc_3_1@@UStringHasher@2@@2@QAV?$RefArrayVectorOf@G@2@HQAVMemoryManager@2@@Z 120214ab f   NameDatatypeValidator.obj
 0001:000204f4       ?compare@NCNameDatatypeValidator@xercesc_3_1@@UAEHQBG0QAVMemoryManager@2@@Z 120214f4 f   NCNameDatatypeValidator.obj
 0001:000204f4       ?compare@NameDatatypeValidator@xercesc_3_1@@UAEHQBG0QAVMemoryManager@2@@Z 120214f4 f   NameDatatypeValidator.obj
 0001:000204f4       ?compare@ENTITYDatatypeValidator@xercesc_3_1@@UAEHQBG0QAVMemoryManager@2@@Z 120214f4 f   ENTITYDatatypeValidator.obj
 0001:0002050b       ?checkValueSpace@NameDatatypeValidator@xercesc_3_1@@MAEXQBGQAVMemoryManager@2@@Z 1202150b f   NameDatatypeValidator.obj
 0001:00020554       ?createObject@NameDatatypeValidator@xercesc_3_1@@SAPAVXSerializable@2@PAVMemoryManager@2@@Z 12021554 f   NameDatatypeValidator.obj
 0001:00020571       ?getProtoType@NameDatatypeValidator@xercesc_3_1@@UBEPAVXProtoType@2@XZ 12021571 f   NameDatatypeValidator.obj
 0001:00020577       ??0NCNameDatatypeValidator@xercesc_3_1@@QAE@QAVMemoryManager@1@@Z 12021577 f   NCNameDatatypeValidator.obj
 0001:00020591       ??0NCNameDatatypeValidator@xercesc_3_1@@QAE@QAVDatatypeValidator@1@QAV?$RefHashTableOf@VKVStringPair@xercesc_3_1@@UStringHasher@2@@1@QAV?$RefArrayVectorOf@G@1@HQAVMemoryManager@1@@Z 12021591 f   NCNameDatatypeValidator.obj
 0001:000205d7       ?newInstance@NCNameDatatypeValidator@xercesc_3_1@@UAEPAVDatatypeValidator@2@QAV?$RefHashTableOf@VKVStringPair@xercesc_3_1@@UStringHasher@2@@2@QAV?$RefArrayVectorOf@G@2@HQAVMemoryManager@2@@Z 120215d7 f   NCNameDatatypeValidator.obj
 0001:00020620       ?validate@NameDatatypeValidator@xercesc_3_1@@UAEXQBGQAVValidationContext@2@QAVMemoryManager@2@@Z 12021620 f   NameDatatypeValidator.obj
 0001:00020620       ?validate@NCNameDatatypeValidator@xercesc_3_1@@UAEXQBGQAVValidationContext@2@QAVMemoryManager@2@@Z 12021620 f   NCNameDatatypeValidator.obj
 0001:00020625       ?checkValueSpace@NCNameDatatypeValidator@xercesc_3_1@@MAEXQBGQAVMemoryManager@2@@Z 12021625 f   NCNameDatatypeValidator.obj
 0001:00020674       ?createObject@NCNameDatatypeValidator@xercesc_3_1@@SAPAVXSerializable@2@PAVMemoryManager@2@@Z 12021674 f   NCNameDatatypeValidator.obj
 0001:00020691       ?getProtoType@NCNameDatatypeValidator@xercesc_3_1@@UBEPAVXProtoType@2@XZ 12021691 f   NCNameDatatypeValidator.obj
 0001:00020697       ??0NOTATIONDatatypeValidator@xercesc_3_1@@QAE@QAVMemoryManager@1@@Z 12021697 f   NOTATIONDatatypeValidator.obj
 0001:000206b1       ??_ENOTATIONDatatypeValidator@xercesc_3_1@@UAEPAXI@Z 120216b1 f i NOTATIONDatatypeValidator.obj
 0001:000206b1       ??_GNOTATIONDatatypeValidator@xercesc_3_1@@UAEPAXI@Z 120216b1 f i NOTATIONDatatypeValidator.obj
 0001:000206cd       ??1NOTATIONDatatypeValidator@xercesc_3_1@@UAE@XZ 120216cd f   NOTATIONDatatypeValidator.obj
 0001:000206d8       ??0NOTATIONDatatypeValidator@xercesc_3_1@@QAE@QAVDatatypeValidator@1@QAV?$RefHashTableOf@VKVStringPair@xercesc_3_1@@UStringHasher@2@@1@QAV?$RefArrayVectorOf@G@1@HQAVMemoryManager@1@@Z 120216d8 f   NOTATIONDatatypeValidator.obj
 0001:0002071e       ?newInstance@NOTATIONDatatypeValidator@xercesc_3_1@@UAEPAVDatatypeValidator@2@QAV?$RefHashTableOf@VKVStringPair@xercesc_3_1@@UStringHasher@2@@2@QAV?$RefArrayVectorOf@G@2@HQAVMemoryManager@2@@Z 1202171e f   NOTATIONDatatypeValidator.obj
 0001:00020767       ?checkValueSpace@NOTATIONDatatypeValidator@xercesc_3_1@@MAEXQBGQAVMemoryManager@2@@Z 12021767 f   NOTATIONDatatypeValidator.obj
 0001:000207b0       ?checkContent@NOTATIONDatatypeValidator@xercesc_3_1@@MAEXQBGQAVValidationContext@2@_NQAVMemoryManager@2@@Z 120217b0 f   NOTATIONDatatypeValidator.obj
 0001:00020900       ?createObject@NOTATIONDatatypeValidator@xercesc_3_1@@SAPAVXSerializable@2@PAVMemoryManager@2@@Z 12021900 f   NOTATIONDatatypeValidator.obj
 0001:0002091d       ?getProtoType@NOTATIONDatatypeValidator@xercesc_3_1@@UBEPAVXProtoType@2@XZ 1202191d f   NOTATIONDatatypeValidator.obj
 0001:00020923       ??0QNameDatatypeValidator@xercesc_3_1@@QAE@QAVMemoryManager@1@@Z 12021923 f   QNameDatatypeValidator.obj
 0001:0002093d       ??_GQNameDatatypeValidator@xercesc_3_1@@UAEPAXI@Z 1202193d f i QNameDatatypeValidator.obj
 0001:0002093d       ??_EQNameDatatypeValidator@xercesc_3_1@@UAEPAXI@Z 1202193d f i QNameDatatypeValidator.obj
 0001:00020959       ??1QNameDatatypeValidator@xercesc_3_1@@UAE@XZ 12021959 f   QNameDatatypeValidator.obj
 0001:00020964       ??0QNameDatatypeValidator@xercesc_3_1@@QAE@QAVDatatypeValidator@1@QAV?$RefHashTableOf@VKVStringPair@xercesc_3_1@@UStringHasher@2@@1@QAV?$RefArrayVectorOf@G@1@HQAVMemoryManager@1@@Z 12021964 f   QNameDatatypeValidator.obj
 0001:000209aa       ?newInstance@QNameDatatypeValidator@xercesc_3_1@@UAEPAVDatatypeValidator@2@QAV?$RefHashTableOf@VKVStringPair@xercesc_3_1@@UStringHasher@2@@2@QAV?$RefArrayVectorOf@G@2@HQAVMemoryManager@2@@Z 120219aa f   QNameDatatypeValidator.obj
 0001:000209f3       ?checkValueSpace@QNameDatatypeValidator@xercesc_3_1@@MAEXQBGQAVMemoryManager@2@@Z 120219f3 f   QNameDatatypeValidator.obj
 0001:00020a43       ?checkContent@QNameDatatypeValidator@xercesc_3_1@@MAEXQBGQAVValidationContext@2@_NQAVMemoryManager@2@@Z 12021a43 f   QNameDatatypeValidator.obj
 0001:00020cab       ?inspectFacetBase@QNameDatatypeValidator@xercesc_3_1@@MAEXQAVMemoryManager@2@@Z 12021cab f   QNameDatatypeValidator.obj
 0001:00020d17       ?createObject@QNameDatatypeValidator@xercesc_3_1@@SAPAVXSerializable@2@PAVMemoryManager@2@@Z 12021d17 f   QNameDatatypeValidator.obj
 0001:00020d34       ?getProtoType@QNameDatatypeValidator@xercesc_3_1@@UBEPAVXProtoType@2@XZ 12021d34 f   QNameDatatypeValidator.obj
 0001:00020d3a       ??0StringDatatypeValidator@xercesc_3_1@@QAE@QAVMemoryManager@1@@Z 12021d3a f   StringDatatypeValidator.obj
 0001:00020d59       ??0StringDatatypeValidator@xercesc_3_1@@QAE@QAVDatatypeValidator@1@QAV?$RefHashTableOf@VKVStringPair@xercesc_3_1@@UStringHasher@2@@1@QAV?$RefArrayVectorOf@G@1@HQAVMemoryManager@1@@Z 12021d59 f   StringDatatypeValidator.obj
 0001:00020da4       ?newInstance@StringDatatypeValidator@xercesc_3_1@@UAEPAVDatatypeValidator@2@QAV?$RefHashTableOf@VKVStringPair@xercesc_3_1@@UStringHasher@2@@2@QAV?$RefArrayVectorOf@G@2@HQAVMemoryManager@2@@Z 12021da4 f   StringDatatypeValidator.obj
 0001:00020ded       ??0StringDatatypeValidator@xercesc_3_1@@IAE@QAVDatatypeValidator@1@QAV?$RefHashTableOf@VKVStringPair@xercesc_3_1@@UStringHasher@2@@1@HW4ValidatorType@21@QAVMemoryManager@1@@Z 12021ded f   StringDatatypeValidator.obj
 0001:00020e10       ?assignAdditionalFacet@StringDatatypeValidator@xercesc_3_1@@MAEXQBG0QAVMemoryManager@2@@Z 12021e10 f   StringDatatypeValidator.obj
 0001:00020ebd       ?inheritAdditionalFacet@StringDatatypeValidator@xercesc_3_1@@MAEXXZ 12021ebd f   StringDatatypeValidator.obj
 0001:00020ee5       ?checkAdditionalFacetConstraints@StringDatatypeValidator@xercesc_3_1@@MBEXQAVMemoryManager@2@@Z 12021ee5 f   StringDatatypeValidator.obj
 0001:00020fac       ?checkAdditionalFacet@StringDatatypeValidator@xercesc_3_1@@MBEXQBGQAVMemoryManager@2@@Z 12021fac f   StringDatatypeValidator.obj
 0001:0002102b       ?createObject@StringDatatypeValidator@xercesc_3_1@@SAPAVXSerializable@2@PAVMemoryManager@2@@Z 1202202b f   StringDatatypeValidator.obj
 0001:00021048       ?getProtoType@StringDatatypeValidator@xercesc_3_1@@UBEPAVXProtoType@2@XZ 12022048 f   StringDatatypeValidator.obj
 0001:0002104e       ??0TimeDatatypeValidator@xercesc_3_1@@QAE@QAVMemoryManager@1@@Z 1202204e f   TimeDatatypeValidator.obj
 0001:0002106f       ??0TimeDatatypeValidator@xercesc_3_1@@QAE@QAVDatatypeValidator@1@QAV?$RefHashTableOf@VKVStringPair@xercesc_3_1@@UStringHasher@2@@1@QAV?$RefArrayVectorOf@G@1@HQAVMemoryManager@1@@Z 1202206f f   TimeDatatypeValidator.obj
 0001:000210b7       ?newInstance@TimeDatatypeValidator@xercesc_3_1@@UAEPAVDatatypeValidator@2@QAV?$RefHashTableOf@VKVStringPair@xercesc_3_1@@UStringHasher@2@@2@QAV?$RefArrayVectorOf@G@2@HQAVMemoryManager@2@@Z 120220b7 f   TimeDatatypeValidator.obj
 0001:00021100       ?parse@TimeDatatypeValidator@xercesc_3_1@@MAEPAVXMLDateTime@2@QBGQAVMemoryManager@2@@Z 12022100 f   TimeDatatypeValidator.obj
 0001:0002117d       ?parse@TimeDatatypeValidator@xercesc_3_1@@MAEXQAVXMLDateTime@2@@Z 1202217d f   TimeDatatypeValidator.obj
 0001:00021189       ?getCanonicalRepresentation@TimeDatatypeValidator@xercesc_3_1@@UBEPBGQBGQAVMemoryManager@2@_N@Z 12022189 f   TimeDatatypeValidator.obj
 0001:00021215       ?createObject@TimeDatatypeValidator@xercesc_3_1@@SAPAVXSerializable@2@PAVMemoryManager@2@@Z 12022215 f   TimeDatatypeValidator.obj
 0001:00021232       ?getProtoType@TimeDatatypeValidator@xercesc_3_1@@UBEPAVXProtoType@2@XZ 12022232 f   TimeDatatypeValidator.obj
 0001:00021238       ?newInstance@UnionDatatypeValidator@xercesc_3_1@@UAEPAVDatatypeValidator@2@QAV?$RefHashTableOf@VKVStringPair@xercesc_3_1@@UStringHasher@2@@2@QAV?$RefArrayVectorOf@G@2@HQAVMemoryManager@2@@Z 12022238 f i UnionDatatypeValidator.obj
 0001:00021286       ?validate@UnionDatatypeValidator@xercesc_3_1@@UAEXQBGQAVValidationContext@2@QAVMemoryManager@2@@Z 12022286 f i UnionDatatypeValidator.obj
 0001:00021286       ?validate@BooleanDatatypeValidator@xercesc_3_1@@UAEXQBGQAVValidationContext@2@QAVMemoryManager@2@@Z 12022286 f i BooleanDatatypeValidator.obj
 0001:0002129c       ?cleanUp@UnionDatatypeValidator@xercesc_3_1@@AAEXXZ 1202229c f i UnionDatatypeValidator.obj
 0001:000212c7       ?setEnumeration@UnionDatatypeValidator@xercesc_3_1@@AAEXPAV?$RefArrayVectorOf@G@2@_N@Z 120222c7 f i UnionDatatypeValidator.obj
 0001:000212ef       ?isAtomic@UnionDatatypeValidator@xercesc_3_1@@UBE_NXZ 120222ef f i UnionDatatypeValidator.obj
 0001:0002132c       ?isSubstitutableBy@UnionDatatypeValidator@xercesc_3_1@@UAE_NQBVDatatypeValidator@2@@Z 1202232c f i UnionDatatypeValidator.obj
 0001:00021394       ??0UnionDatatypeValidator@xercesc_3_1@@QAE@QAVMemoryManager@1@@Z 12022394 f   UnionDatatypeValidator.obj
 0001:000213bc       ??_EUnionDatatypeValidator@xercesc_3_1@@UAEPAXI@Z 120223bc f i UnionDatatypeValidator.obj
 0001:000213bc       ??_GUnionDatatypeValidator@xercesc_3_1@@UAEPAXI@Z 120223bc f i UnionDatatypeValidator.obj
 0001:000213d8       ??1UnionDatatypeValidator@xercesc_3_1@@UAE@XZ 120223d8 f   UnionDatatypeValidator.obj
 0001:00021410       ??0UnionDatatypeValidator@xercesc_3_1@@QAE@QAVDatatypeValidator@1@QAV?$RefHashTableOf@VKVStringPair@xercesc_3_1@@UStringHasher@2@@1@QAV?$RefArrayVectorOf@G@1@HQAVMemoryManager@1@QAV?$RefVectorOf@VDatatypeValidator@xercesc_3_1@@@1@_N@Z 12022410 f   UnionDatatypeValidator.obj
 0001:00021586       ?init@UnionDatatypeValidator@xercesc_3_1@@AAEXQAVDatatypeValidator@2@QAV?$RefHashTableOf@VKVStringPair@xercesc_3_1@@UStringHasher@2@@2@QAV?$RefArrayVectorOf@G@2@QAVMemoryManager@2@@Z 12022586 f   UnionDatatypeValidator.obj
 0001:0002170d       ?checkContent@UnionDatatypeValidator@xercesc_3_1@@EAEXQBGQAVValidationContext@2@_NQAVMemoryManager@2@@Z 1202270d f   UnionDatatypeValidator.obj
 0001:000218f6       ?compare@UnionDatatypeValidator@xercesc_3_1@@UAEHQBG0QAVMemoryManager@2@@Z 120228f6 f   UnionDatatypeValidator.obj
 0001:0002199e       ?getCanonicalRepresentation@UnionDatatypeValidator@xercesc_3_1@@UBEPBGQBGQAVMemoryManager@2@_N@Z 1202299e f   UnionDatatypeValidator.obj
 0001:00021a5c       ?createObject@UnionDatatypeValidator@xercesc_3_1@@SAPAVXSerializable@2@PAVMemoryManager@2@@Z 12022a5c f   UnionDatatypeValidator.obj
 0001:00021a79       ?getProtoType@UnionDatatypeValidator@xercesc_3_1@@UBEPAVXProtoType@2@XZ 12022a79 f   UnionDatatypeValidator.obj
 0001:00021a7f       ?serialize@UnionDatatypeValidator@xercesc_3_1@@UAEXAAVXSerializeEngine@2@@Z 12022a7f f   UnionDatatypeValidator.obj
 0001:00021b00       ??0YearDatatypeValidator@xercesc_3_1@@QAE@QAVMemoryManager@1@@Z 12022b00 f   YearDatatypeValidator.obj
 0001:00021b21       ??0YearDatatypeValidator@xercesc_3_1@@QAE@QAVDatatypeValidator@1@QAV?$RefHashTableOf@VKVStringPair@xercesc_3_1@@UStringHasher@2@@1@QAV?$RefArrayVectorOf@G@1@HQAVMemoryManager@1@@Z 12022b21 f   YearDatatypeValidator.obj
 0001:00021b69       ??1YearMonthDatatypeValidator@xercesc_3_1@@UAE@XZ 12022b69 f   YearMonthDatatypeValidator.obj
 0001:00021b69       ??1YearDatatypeValidator@xercesc_3_1@@UAE@XZ 12022b69 f   YearDatatypeValidator.obj
 0001:00021b69       ??1MonthDayDatatypeValidator@xercesc_3_1@@UAE@XZ 12022b69 f   MonthDayDatatypeValidator.obj
 0001:00021b69       ??1DateTimeDatatypeValidator@xercesc_3_1@@UAE@XZ 12022b69 f   DateTimeDatatypeValidator.obj
 0001:00021b69       ??1TimeDatatypeValidator@xercesc_3_1@@UAE@XZ 12022b69 f   TimeDatatypeValidator.obj
 0001:00021b69       ??1DayDatatypeValidator@xercesc_3_1@@UAE@XZ 12022b69 f   DayDatatypeValidator.obj
 0001:00021b69       ??1DateTimeValidator@xercesc_3_1@@UAE@XZ 12022b69 f   DateTimeValidator.obj
 0001:00021b69       ??1DateDatatypeValidator@xercesc_3_1@@UAE@XZ 12022b69 f   DateDatatypeValidator.obj
 0001:00021b69       ??1DurationDatatypeValidator@xercesc_3_1@@UAE@XZ 12022b69 f   DurationDatatypeValidator.obj
 0001:00021b69       ??1MonthDatatypeValidator@xercesc_3_1@@UAE@XZ 12022b69 f   MonthDatatypeValidator.obj
 0001:00021b74       ?newInstance@YearDatatypeValidator@xercesc_3_1@@UAEPAVDatatypeValidator@2@QAV?$RefHashTableOf@VKVStringPair@xercesc_3_1@@UStringHasher@2@@2@QAV?$RefArrayVectorOf@G@2@HQAVMemoryManager@2@@Z 12022b74 f   YearDatatypeValidator.obj
 0001:00021bbd       ?parse@YearDatatypeValidator@xercesc_3_1@@MAEPAVXMLDateTime@2@QBGQAVMemoryManager@2@@Z 12022bbd f   YearDatatypeValidator.obj
 0001:00021c3a       ?parse@YearDatatypeValidator@xercesc_3_1@@MAEXQAVXMLDateTime@2@@Z 12022c3a f   YearDatatypeValidator.obj
 0001:00021c46       ?createObject@YearDatatypeValidator@xercesc_3_1@@SAPAVXSerializable@2@PAVMemoryManager@2@@Z 12022c46 f   YearDatatypeValidator.obj
 0001:00021c63       ?getProtoType@YearDatatypeValidator@xercesc_3_1@@UBEPAVXProtoType@2@XZ 12022c63 f   YearDatatypeValidator.obj
 0001:00021c69       ??0YearMonthDatatypeValidator@xercesc_3_1@@QAE@QAVMemoryManager@1@@Z 12022c69 f   YearMonthDatatypeValidator.obj
 0001:00021c8a       ??_GDateTimeValidator@xercesc_3_1@@UAEPAXI@Z 12022c8a f i DateTimeValidator.obj
 0001:00021c8a       ??_GMonthDatatypeValidator@xercesc_3_1@@UAEPAXI@Z 12022c8a f i MonthDatatypeValidator.obj
 0001:00021c8a       ??_EDateTimeDatatypeValidator@xercesc_3_1@@UAEPAXI@Z 12022c8a f i DateTimeDatatypeValidator.obj
 0001:00021c8a       ??_EYearDatatypeValidator@xercesc_3_1@@UAEPAXI@Z 12022c8a f i YearDatatypeValidator.obj
 0001:00021c8a       ??_GDateTimeDatatypeValidator@xercesc_3_1@@UAEPAXI@Z 12022c8a f i DateTimeDatatypeValidator.obj
 0001:00021c8a       ??_GYearDatatypeValidator@xercesc_3_1@@UAEPAXI@Z 12022c8a f i YearDatatypeValidator.obj
 0001:00021c8a       ??_EDurationDatatypeValidator@xercesc_3_1@@UAEPAXI@Z 12022c8a f i DurationDatatypeValidator.obj
 0001:00021c8a       ??_GDurationDatatypeValidator@xercesc_3_1@@UAEPAXI@Z 12022c8a f i DurationDatatypeValidator.obj
 0001:00021c8a       ??_GMonthDayDatatypeValidator@xercesc_3_1@@UAEPAXI@Z 12022c8a f i MonthDayDatatypeValidator.obj
 0001:00021c8a       ??_EYearMonthDatatypeValidator@xercesc_3_1@@UAEPAXI@Z 12022c8a f i YearMonthDatatypeValidator.obj
 0001:00021c8a       ??_ETimeDatatypeValidator@xercesc_3_1@@UAEPAXI@Z 12022c8a f i TimeDatatypeValidator.obj
 0001:00021c8a       ??_EDayDatatypeValidator@xercesc_3_1@@UAEPAXI@Z 12022c8a f i DayDatatypeValidator.obj
 0001:00021c8a       ??_GDateDatatypeValidator@xercesc_3_1@@UAEPAXI@Z 12022c8a f i DateDatatypeValidator.obj
 0001:00021c8a       ??_GDayDatatypeValidator@xercesc_3_1@@UAEPAXI@Z 12022c8a f i DayDatatypeValidator.obj
 0001:00021c8a       ??_EMonthDayDatatypeValidator@xercesc_3_1@@UAEPAXI@Z 12022c8a f i MonthDayDatatypeValidator.obj
 0001:00021c8a       ??_EMonthDatatypeValidator@xercesc_3_1@@UAEPAXI@Z 12022c8a f i MonthDatatypeValidator.obj
 0001:00021c8a       ??_EDateTimeValidator@xercesc_3_1@@UAEPAXI@Z 12022c8a f i DateTimeValidator.obj
 0001:00021c8a       ??_EDateDatatypeValidator@xercesc_3_1@@UAEPAXI@Z 12022c8a f i DateDatatypeValidator.obj
 0001:00021c8a       ??_GYearMonthDatatypeValidator@xercesc_3_1@@UAEPAXI@Z 12022c8a f i YearMonthDatatypeValidator.obj
 0001:00021c8a       ??_GTimeDatatypeValidator@xercesc_3_1@@UAEPAXI@Z 12022c8a f i TimeDatatypeValidator.obj
 0001:00021ca6       ??0YearMonthDatatypeValidator@xercesc_3_1@@QAE@QAVDatatypeValidator@1@QAV?$RefHashTableOf@VKVStringPair@xercesc_3_1@@UStringHasher@2@@1@QAV?$RefArrayVectorOf@G@1@HQAVMemoryManager@1@@Z 12022ca6 f   YearMonthDatatypeValidator.obj
 0001:00021cee       ?newInstance@YearMonthDatatypeValidator@xercesc_3_1@@UAEPAVDatatypeValidator@2@QAV?$RefHashTableOf@VKVStringPair@xercesc_3_1@@UStringHasher@2@@2@QAV?$RefArrayVectorOf@G@2@HQAVMemoryManager@2@@Z 12022cee f   YearMonthDatatypeValidator.obj
 0001:00021d37       ?parse@YearMonthDatatypeValidator@xercesc_3_1@@MAEPAVXMLDateTime@2@QBGQAVMemoryManager@2@@Z 12022d37 f   YearMonthDatatypeValidator.obj
 0001:00021db4       ?parse@YearMonthDatatypeValidator@xercesc_3_1@@MAEXQAVXMLDateTime@2@@Z 12022db4 f   YearMonthDatatypeValidator.obj
 0001:00021dc0       ?createObject@YearMonthDatatypeValidator@xercesc_3_1@@SAPAVXSerializable@2@PAVMemoryManager@2@@Z 12022dc0 f   YearMonthDatatypeValidator.obj
 0001:00021ddd       ?getProtoType@YearMonthDatatypeValidator@xercesc_3_1@@UBEPAVXProtoType@2@XZ 12022ddd f   YearMonthDatatypeValidator.obj
 0001:00021de3       ?getFullName@DTDAttDef@xercesc_3_1@@UBEPBGXZ 12022de3 f i DTDAttDef.obj
 0001:00021de7       ??0DTDAttDef@xercesc_3_1@@QAE@QAVMemoryManager@1@@Z 12022de7 f   DTDAttDef.obj
 0001:00021e09       ??_GDTDAttDef@xercesc_3_1@@UAEPAXI@Z 12022e09 f i DTDAttDef.obj
 0001:00021e09       ??_EDTDAttDef@xercesc_3_1@@UAEPAXI@Z 12022e09 f i DTDAttDef.obj
 0001:00021e26       ??1DTDAttDef@xercesc_3_1@@UAE@XZ 12022e26 f   DTDAttDef.obj
 0001:00021e63       ?createObject@DTDAttDef@xercesc_3_1@@SAPAVXSerializable@2@PAVMemoryManager@2@@Z 12022e63 f   DTDAttDef.obj
 0001:00021e80       ?getProtoType@DTDAttDef@xercesc_3_1@@UBEPAVXProtoType@2@XZ 12022e80 f   DTDAttDef.obj
 0001:00021e86       ?serialize@DTDAttDef@xercesc_3_1@@UAEXAAVXSerializeEngine@2@@Z 12022e86 f   DTDAttDef.obj
 0001:00021ecc       ??0DTDAttDefList@xercesc_3_1@@QAE@QAV?$RefHashTableOf@VDTDAttDef@xercesc_3_1@@UStringHasher@2@@1@QAVMemoryManager@1@@Z 12022ecc f   DTDAttDefList.obj
 0001:00021f4f       ??_GDTDAttDefList@xercesc_3_1@@UAEPAXI@Z 12022f4f f i DTDAttDefList.obj
 0001:00021f4f       ??_EDTDAttDefList@xercesc_3_1@@UAEPAXI@Z 12022f4f f i DTDAttDefList.obj
 0001:00021f6c       ??1DTDAttDefList@xercesc_3_1@@UAE@XZ 12022f6c f   DTDAttDefList.obj
 0001:00021fb1       ?isEmpty@DTDAttDefList@xercesc_3_1@@UBE_NXZ 12022fb1 f   DTDAttDefList.obj
 0001:00021fbf       ?findAttDef@DTDAttDefList@xercesc_3_1@@UBEPBVXMLAttDef@2@QBG0@Z 12022fbf f   DTDAttDefList.obj
 0001:00021fbf       ?findAttDef@DTDAttDefList@xercesc_3_1@@UAEPAVXMLAttDef@2@IQBG@Z 12022fbf f   DTDAttDefList.obj
 0001:00021fbf       ?findAttDef@DTDAttDefList@xercesc_3_1@@UBEPBVXMLAttDef@2@IQBG@Z 12022fbf f   DTDAttDefList.obj
 0001:00021fbf       ?findAttDef@DTDAttDefList@xercesc_3_1@@UAEPAVXMLAttDef@2@QBG0@Z 12022fbf f   DTDAttDefList.obj
 0001:00021fce       ?getAttDef@DTDAttDefList@xercesc_3_1@@UAEAAVXMLAttDef@2@K@Z 12022fce f   DTDAttDefList.obj
 0001:0002200b       ?getAttDef@DTDAttDefList@xercesc_3_1@@UBEABVXMLAttDef@2@K@Z 1202300b f   DTDAttDefList.obj
 0001:00022048       ?createObject@DTDAttDefList@xercesc_3_1@@SAPAVXSerializable@2@PAVMemoryManager@2@@Z 12023048 f   DTDAttDefList.obj
 0001:00022065       ?getProtoType@DTDAttDefList@xercesc_3_1@@UBEPAVXProtoType@2@XZ 12023065 f   DTDAttDefList.obj
 0001:0002206b       ?serialize@DTDAttDefList@xercesc_3_1@@UAEXAAVXSerializeEngine@2@@Z 1202306b f   DTDAttDefList.obj
 0001:00022154       ??0DTDAttDefList@xercesc_3_1@@QAE@QAVMemoryManager@1@@Z 12023154 f   DTDAttDefList.obj
 0001:0002216f       ??0SimpleContentModel@xercesc_3_1@@QAE@_NQAVQName@1@1W4NodeTypes@ContentSpecNode@1@QAVMemoryManager@1@@Z 1202316f f i DTDElementDecl.obj
 0001:0002223d       ??_ESimpleContentModel@xercesc_3_1@@UAEPAXI@Z 1202323d f i DTDElementDecl.obj
 0001:0002223d       ??_GSimpleContentModel@xercesc_3_1@@UAEPAXI@Z 1202323d f i DTDElementDecl.obj
 0001:0002225a       ??1SimpleContentModel@xercesc_3_1@@UAE@XZ 1202325a f i DTDElementDecl.obj
 0001:000222a1       ?handleRepetitions@MixedContentModel@xercesc_3_1@@UBE_NQBVQName@2@IIAAI1KPAVSubstitutionGroupComparator@2@@Z 120232a1 f i MixedContentModel.obj
 0001:000222a1       ?handleRepetitions@SimpleContentModel@xercesc_3_1@@UBE_NQBVQName@2@IIAAI1KPAVSubstitutionGroupComparator@2@@Z 120232a1 f i DTDElementDecl.obj
 0001:000222a1       ?handleRepetitions@AllContentModel@xercesc_3_1@@UBE_NQBVQName@2@IIAAI1KPAVSubstitutionGroupComparator@2@@Z 120232a1 f i AllContentModel.obj
 0001:000222a6       ?getContentSpec@DTDElementDecl@xercesc_3_1@@UAEPAVContentSpecNode@2@XZ 120232a6 f i DTDElementDecl.obj
 0001:000222a6       ?getContentSpec@DTDElementDecl@xercesc_3_1@@UBEPBVContentSpecNode@2@XZ 120232a6 f i DTDElementDecl.obj
 0001:000222aa       ?getContentModel@DTDElementDecl@xercesc_3_1@@UAEPAVXMLContentModel@2@XZ 120232aa f i DTDElementDecl.obj
 0001:000222c0       ?setContentModel@DTDElementDecl@xercesc_3_1@@UAEXQAVXMLContentModel@2@@Z 120232c0 f i DTDElementDecl.obj
 0001:000222ef       ??5xercesc_3_1@@YAAAVXSerializeEngine@0@AAV10@AAPAVDTDAttDefList@0@@Z 120232ef f i DTDElementDecl.obj
 0001:00022308       ??0DTDElementDecl@xercesc_3_1@@QAE@QAVMemoryManager@1@@Z 12023308 f   DTDElementDecl.obj
 0001:0002232c       ??_GDTDElementDecl@xercesc_3_1@@UAEPAXI@Z 1202332c f i DTDElementDecl.obj
 0001:0002232c       ??_EDTDElementDecl@xercesc_3_1@@UAEPAXI@Z 1202332c f i DTDElementDecl.obj
 0001:00022349       ??0DTDElementDecl@xercesc_3_1@@QAE@QBGIW4ModelTypes@01@QAVMemoryManager@1@@Z 12023349 f   DTDElementDecl.obj
 0001:0002239a       ??1DTDElementDecl@xercesc_3_1@@UAE@XZ 1202339a f   DTDElementDecl.obj
 0001:0002240d       ?getAttDefList@DTDElementDecl@xercesc_3_1@@UBEAAVXMLAttDefList@2@XZ 1202340d f   DTDElementDecl.obj
 0001:00022467       ?getCharDataOpts@DTDElementDecl@xercesc_3_1@@UBE?AW4CharDataOpts@XMLElementDecl@2@XZ 12023467 f   DTDElementDecl.obj
 0001:0002247d       ?hasAttDefs@DTDElementDecl@xercesc_3_1@@UBE_NXZ 1202347d f   DTDElementDecl.obj
 0001:00022492       ?setContentSpec@DTDElementDecl@xercesc_3_1@@UAEXPAVContentSpecNode@2@@Z 12023492 f   DTDElementDecl.obj
 0001:000224b6       ?getFormattedContentModel@DTDElementDecl@xercesc_3_1@@UBEPBGXZ 120234b6 f   DTDElementDecl.obj
 0001:000224cc       ?formatContentModel@DTDElementDecl@xercesc_3_1@@ABEPAGXZ 120234cc f   DTDElementDecl.obj
 0001:00022563       ?makeContentModel@DTDElementDecl@xercesc_3_1@@AAEPAVXMLContentModel@2@XZ 12023563 f   DTDElementDecl.obj
 0001:000225ed       ?createChildModel@DTDElementDecl@xercesc_3_1@@AAEPAVXMLContentModel@2@XZ 120235ed f   DTDElementDecl.obj
 0001:00022772       ?faultInAttDefList@DTDElementDecl@xercesc_3_1@@ABEXXZ 12023772 f   DTDElementDecl.obj
 0001:000227b4       ?createObject@DTDElementDecl@xercesc_3_1@@SAPAVXSerializable@2@PAVMemoryManager@2@@Z 120237b4 f   DTDElementDecl.obj
 0001:000227d1       ?getProtoType@DTDElementDecl@xercesc_3_1@@UBEPAVXProtoType@2@XZ 120237d1 f   DTDElementDecl.obj
 0001:000227d7       ?serialize@DTDElementDecl@xercesc_3_1@@UAEXAAVXSerializeEngine@2@@Z 120237d7 f   DTDElementDecl.obj
 0001:0002285e       ?createObject@DTDEntityDecl@xercesc_3_1@@SAPAVXSerializable@2@PAVMemoryManager@2@@Z 1202385e f   DTDEntityDecl.obj
 0001:0002287b       ?getProtoType@DTDEntityDecl@xercesc_3_1@@UBEPAVXProtoType@2@XZ 1202387b f   DTDEntityDecl.obj
 0001:00022881       ?serialize@DTDEntityDecl@xercesc_3_1@@UAEXAAVXSerializeEngine@2@@Z 12023881 f   DTDEntityDecl.obj
 0001:000228e4       ?getTargetNamespace@DTDGrammar@xercesc_3_1@@UBEPBGXZ 120238e4 f i DTDGrammar.obj
 0001:000228ea       ?getElemId@DTDGrammar@xercesc_3_1@@UBEKIQBG0I@Z 120238ea f i DTDGrammar.obj
 0001:00022905       ?getElemDecl@DTDGrammar@xercesc_3_1@@UBEPBVXMLElementDecl@2@IQBG0I@Z 12023905 f i DTDGrammar.obj
 0001:00022905       ?getElemDecl@DTDGrammar@xercesc_3_1@@UAEPAVXMLElementDecl@2@IQBG0I@Z 12023905 f i DTDGrammar.obj
 0001:0002292e       ?getElemDecl@DTDGrammar@xercesc_3_1@@UBEPBVXMLElementDecl@2@I@Z 1202392e f i DTDGrammar.obj
 0001:0002292e       ?getElemDecl@DTDGrammar@xercesc_3_1@@UAEPAVXMLElementDecl@2@I@Z 1202392e f i DTDGrammar.obj
 0001:0002293f       ?putElemDecl@DTDGrammar@xercesc_3_1@@UAEKQAVXMLElementDecl@2@_N@Z 1202393f f i DTDGrammar.obj
 0001:000229aa       ?getNotationDecl@DTDGrammar@xercesc_3_1@@UBEPBVXMLNotationDecl@2@QBG@Z 120239aa f i DTDGrammar.obj
 0001:000229aa       ?getNotationDecl@SchemaGrammar@xercesc_3_1@@UAEPAVXMLNotationDecl@2@QBG@Z 120239aa f i SchemaGrammar.obj
 0001:000229aa       ?getNotationDecl@SchemaGrammar@xercesc_3_1@@UBEPBVXMLNotationDecl@2@QBG@Z 120239aa f i SchemaGrammar.obj
 0001:000229aa       ?getNotationDecl@DTDGrammar@xercesc_3_1@@UAEPAVXMLNotationDecl@2@QBG@Z 120239aa f i DTDGrammar.obj
 0001:000229b2       ?getValidated@DTDGrammar@xercesc_3_1@@UBE_NXZ 120239b2 f i DTDGrammar.obj
 0001:000229b6       ?setValidated@DTDGrammar@xercesc_3_1@@UAEX_N@Z 120239b6 f i DTDGrammar.obj
 0001:000229c0       ??0DTDGrammar@xercesc_3_1@@QAE@QAVMemoryManager@1@@Z 120239c0 f   DTDGrammar.obj
 0001:00022abe       ??_GDTDGrammar@xercesc_3_1@@UAEPAXI@Z 12023abe f i DTDGrammar.obj
 0001:00022abe       ??_EDTDGrammar@xercesc_3_1@@UAEPAXI@Z 12023abe f i DTDGrammar.obj
 0001:00022ada       ??1DTDGrammar@xercesc_3_1@@UAE@XZ 12023ada f   DTDGrammar.obj
 0001:00022b51       ??_G?$NameIdPool@VDTDEntityDecl@xercesc_3_1@@@xercesc_3_1@@QAEPAXI@Z 12023b51 f i DTDGrammar.obj
 0001:00022b51       ??_G?$NameIdPool@VXMLNotationDecl@xercesc_3_1@@@xercesc_3_1@@QAEPAXI@Z 12023b51 f i DTDGrammar.obj
 0001:00022b51       ??_G?$NameIdPool@VDTDElementDecl@xercesc_3_1@@@xercesc_3_1@@QAEPAXI@Z 12023b51 f i DGXMLScanner.obj
 0001:00022b71       ?findOrAddElemDecl@DTDGrammar@xercesc_3_1@@UAEPAVXMLElementDecl@2@IQBG00IAA_N@Z 12023b71 f   DTDGrammar.obj
 0001:00022c31       ?putElemDecl@DTDGrammar@xercesc_3_1@@UAEPAVXMLElementDecl@2@IQBG00I_N@Z 12023c31 f   DTDGrammar.obj
 0001:00022cdf       ?reset@DTDGrammar@xercesc_3_1@@UAEXXZ 12023cdf f   DTDGrammar.obj
 0001:00022d0e       ?setGrammarDescription@DTDGrammar@xercesc_3_1@@UAEXPAVXMLGrammarDescription@2@@Z 12023d0e f   DTDGrammar.obj
 0001:00022d3a       ?createObject@DTDGrammar@xercesc_3_1@@SAPAVXSerializable@2@PAVMemoryManager@2@@Z 12023d3a f   DTDGrammar.obj
 0001:00022d75       ?getProtoType@DTDGrammar@xercesc_3_1@@UBEPAVXProtoType@2@XZ 12023d75 f   DTDGrammar.obj
 0001:00022d7b       ?serialize@DTDGrammar@xercesc_3_1@@UAEXAAVXSerializeEngine@2@@Z 12023d7b f   DTDGrammar.obj
 0001:00022e0a       ?getById@?$NameIdPool@VDTDElementDecl@xercesc_3_1@@@xercesc_3_1@@QAEPAVDTDElementDecl@2@K@Z 12023e0a f i DTDGrammar.obj
 0001:00022e46       ??1?$NameIdPool@VXMLNotationDecl@xercesc_3_1@@@xercesc_3_1@@QAE@XZ 12023e46 f i DTDGrammar.obj
 0001:00022e46       ??1?$NameIdPool@VDTDElementDecl@xercesc_3_1@@@xercesc_3_1@@QAE@XZ 12023e46 f i DGXMLScanner.obj
 0001:00022e46       ??1?$NameIdPool@VDTDEntityDecl@xercesc_3_1@@@xercesc_3_1@@QAE@XZ 12023e46 f i DTDGrammar.obj
 0001:00022e7d       ?getByKey@?$NameIdPool@VDTDElementDecl@xercesc_3_1@@@xercesc_3_1@@QAEPAVDTDElementDecl@2@QBG@Z 12023e7d f i DGXMLScanner.obj
 0001:00022e7d       ?getByKey@?$NameIdPool@VXMLNotationDecl@xercesc_3_1@@@xercesc_3_1@@QAEPAVXMLNotationDecl@2@QBG@Z 12023e7d f i DTDGrammar.obj
 0001:00022e97       ??0ContentSpecNode@xercesc_3_1@@QAE@W4NodeTypes@01@QAV01@1_N2QAVMemoryManager@1@@Z 12023e97 f i DTDScanner.obj
 0001:00022ed6       ?setSecond@ContentSpecNode@xercesc_3_1@@QAEXQAV12@@Z 12023ed6 f i DTDScanner.obj
 0001:00022ef3       ??0XMLDTDDescriptionImpl@xercesc_3_1@@QAE@QBGQAVMemoryManager@1@@Z 12023ef3 f   XMLDTDDescriptionImpl.obj
 0001:00022f3b       ??_GXMLDTDDescriptionImpl@xercesc_3_1@@UAEPAXI@Z 12023f3b f i XMLDTDDescriptionImpl.obj
 0001:00022f3b       ??_EXMLDTDDescriptionImpl@xercesc_3_1@@UAEPAXI@Z 12023f3b f i XMLDTDDescriptionImpl.obj
 0001:00022f58       ??1XMLDTDDescriptionImpl@xercesc_3_1@@UAE@XZ 12023f58 f   XMLDTDDescriptionImpl.obj
 0001:00022fa5       ?getGrammarKey@XMLDTDDescriptionImpl@xercesc_3_1@@UBEPBGXZ 12023fa5 f   XMLDTDDescriptionImpl.obj
 0001:00022fa5       ?getGrammarKey@XMLSchemaDescriptionImpl@xercesc_3_1@@UBEPBGXZ 12023fa5 f   XMLSchemaDescriptionImpl.obj
 0001:00022faa       ?setRootName@XMLDTDDescriptionImpl@xercesc_3_1@@UAEXQBG@Z 12023faa f   XMLDTDDescriptionImpl.obj
 0001:00022fde       ?setSystemId@XMLDTDDescriptionImpl@xercesc_3_1@@UAEXQBG@Z 12023fde f   XMLDTDDescriptionImpl.obj
 0001:00023012       ?createObject@XMLDTDDescriptionImpl@xercesc_3_1@@SAPAVXSerializable@2@PAVMemoryManager@2@@Z 12024012 f   XMLDTDDescriptionImpl.obj
 0001:0002303a       ?getProtoType@XMLDTDDescriptionImpl@xercesc_3_1@@UBEPAVXProtoType@2@XZ 1202403a f   XMLDTDDescriptionImpl.obj
 0001:00023040       ?serialize@XMLDTDDescriptionImpl@xercesc_3_1@@UAEXAAVXSerializeEngine@2@@Z 12024040 f   XMLDTDDescriptionImpl.obj
 0001:0002309c       ??5xercesc_3_1@@YAAAVXSerializeEngine@0@AAV10@AAPAVSchemaAttDefList@0@@Z 1202409c f i ComplexTypeInfo.obj
 0001:000230b5       ?setFirst@ContentSpecNode@xercesc_3_1@@QAEXQAV12@@Z 120240b5 f i ComplexTypeInfo.obj
 0001:000230d2       ??0ComplexTypeInfo@xercesc_3_1@@QAE@QAVMemoryManager@1@@Z 120240d2 f   ComplexTypeInfo.obj
 0001:000231b7       ??_EComplexTypeInfo@xercesc_3_1@@UAEPAXI@Z 120241b7 f i ComplexTypeInfo.obj
 0001:000231b7       ??_GComplexTypeInfo@xercesc_3_1@@UAEPAXI@Z 120241b7 f i ComplexTypeInfo.obj
 0001:000231d4       ??1ComplexTypeInfo@xercesc_3_1@@UAE@XZ 120241d4 f   ComplexTypeInfo.obj
 0001:00023299       ?getFormattedContentModel@ComplexTypeInfo@xercesc_3_1@@QBEPBGXZ 12024299 f   ComplexTypeInfo.obj
 0001:000232af       ?formatContentModel@ComplexTypeInfo@xercesc_3_1@@ABEPAGXZ 120242af f   ComplexTypeInfo.obj
 0001:0002334b       ?useRepeatingLeafNodes@ComplexTypeInfo@xercesc_3_1@@AAE_NPAVContentSpecNode@2@@Z 1202434b f   ComplexTypeInfo.obj
 0001:000233e9       ?makeContentModel@ComplexTypeInfo@xercesc_3_1@@AAEPAVXMLContentModel@2@_N@Z 120243e9 f   ComplexTypeInfo.obj
 0001:0002371f       ?convertContentSpecTree@ComplexTypeInfo@xercesc_3_1@@AAEPAVContentSpecNode@2@QAV32@_N1@Z 1202471f f   ComplexTypeInfo.obj
 0001:00023852       ?expandContentModel@ComplexTypeInfo@xercesc_3_1@@AAEPAVContentSpecNode@2@QAV32@HH_N@Z 12024852 f   ComplexTypeInfo.obj
 0001:00023b7e       ?resizeContentSpecOrgURI@ComplexTypeInfo@xercesc_3_1@@AAEXXZ 12024b7e f   ComplexTypeInfo.obj
 0001:00023bd7       ?createObject@ComplexTypeInfo@xercesc_3_1@@SAPAVXSerializable@2@PAVMemoryManager@2@@Z 12024bd7 f   ComplexTypeInfo.obj
 0001:00023c12       ?getProtoType@ComplexTypeInfo@xercesc_3_1@@UBEPAVXProtoType@2@XZ 12024c12 f   ComplexTypeInfo.obj
 0001:00023c18       ?serialize@ComplexTypeInfo@xercesc_3_1@@UAEXAAVXSerializeEngine@2@@Z 12024c18 f   ComplexTypeInfo.obj
 0001:00023e47       ?getFullName@SchemaAttDef@xercesc_3_1@@UBEPBGXZ 12024e47 f   SchemaAttDef.obj
 0001:00023e52       ??0SchemaAttDef@xercesc_3_1@@QAE@QAVMemoryManager@1@@Z 12024e52 f   SchemaAttDef.obj
 0001:00023e80       ??_GSchemaAttDef@xercesc_3_1@@UAEPAXI@Z 12024e80 f i SchemaAttDef.obj
 0001:00023e80       ??_ESchemaAttDef@xercesc_3_1@@UAEPAXI@Z 12024e80 f i SchemaAttDef.obj
 0001:00023e9c       ??1SchemaAttDef@xercesc_3_1@@UAE@XZ 12024e9c f   SchemaAttDef.obj
 0001:00023eeb       ??_G?$ValueVectorOf@PAVSchemaElementDecl@xercesc_3_1@@@xercesc_3_1@@QAEPAXI@Z 12024eeb f i XTemplateSerializer.obj
 0001:00023eeb       ??_G?$ValueVectorOf@I@xercesc_3_1@@QAEPAXI@Z 12024eeb f i SchemaAttDef.obj
 0001:00023f0b       ?createObject@SchemaAttDef@xercesc_3_1@@SAPAVXSerializable@2@PAVMemoryManager@2@@Z 12024f0b f   SchemaAttDef.obj
 0001:00023f28       ?getProtoType@SchemaAttDef@xercesc_3_1@@UBEPAVXProtoType@2@XZ 12024f28 f   SchemaAttDef.obj
 0001:00023f2e       ?serialize@SchemaAttDef@xercesc_3_1@@UAEXAAVXSerializeEngine@2@@Z 12024f2e f   SchemaAttDef.obj
 0001:00023fdf       ??0SchemaAttDefList@xercesc_3_1@@QAE@QAV?$RefHash2KeysTableOf@VSchemaAttDef@xercesc_3_1@@UStringHasher@2@@1@QAVMemoryManager@1@@Z 12024fdf f   SchemaAttDefList.obj
 0001:00024064       ??_GSchemaAttDefList@xercesc_3_1@@UAEPAXI@Z 12025064 f i SchemaAttDefList.obj
 0001:00024064       ??_ESchemaAttDefList@xercesc_3_1@@UAEPAXI@Z 12025064 f i SchemaAttDefList.obj
 0001:00024081       ??1SchemaAttDefList@xercesc_3_1@@UAE@XZ 12025081 f   SchemaAttDefList.obj
 0001:000240c6       ?isEmpty@SchemaAttDefList@xercesc_3_1@@UBE_NXZ 120250c6 f   SchemaAttDefList.obj
 0001:000240d4       ?findAttDef@SchemaAttDefList@xercesc_3_1@@UAEPAVXMLAttDef@2@IQBG@Z 120250d4 f   SchemaAttDefList.obj
 0001:000240d4       ?findAttDef@SchemaAttDefList@xercesc_3_1@@UBEPBVXMLAttDef@2@IQBG@Z 120250d4 f   SchemaAttDefList.obj
 0001:000240fe       ?findAttDef@SchemaAttDefList@xercesc_3_1@@UAEPAVXMLAttDef@2@QBG0@Z 120250fe f   SchemaAttDefList.obj
 0001:0002412a       ?findAttDef@SchemaAttDefList@xercesc_3_1@@UBEPBVXMLAttDef@2@QBG0@Z 1202512a f   SchemaAttDefList.obj
 0001:00024156       ?getAttDef@SchemaAttDefList@xercesc_3_1@@UAEAAVXMLAttDef@2@K@Z 12025156 f   SchemaAttDefList.obj
 0001:00024193       ?getAttDef@SchemaAttDefList@xercesc_3_1@@UBEABVXMLAttDef@2@K@Z 12025193 f   SchemaAttDefList.obj
 0001:000241d3       ?createObject@SchemaAttDefList@xercesc_3_1@@SAPAVXSerializable@2@PAVMemoryManager@2@@Z 120251d3 f   SchemaAttDefList.obj
 0001:000241f0       ?getProtoType@SchemaAttDefList@xercesc_3_1@@UBEPAVXProtoType@2@XZ 120251f0 f   SchemaAttDefList.obj
 0001:000241f6       ?serialize@SchemaAttDefList@xercesc_3_1@@UAEXAAVXSerializeEngine@2@@Z 120251f6 f   SchemaAttDefList.obj
 0001:000242d4       ??0SchemaAttDefList@xercesc_3_1@@QAE@QAVMemoryManager@1@@Z 120252d4 f   SchemaAttDefList.obj
 0001:000242ef       ?getContentSpec@SchemaElementDecl@xercesc_3_1@@UBEPBVContentSpecNode@2@XZ 120252ef f i SchemaElementDecl.obj
 0001:000242ef       ?getContentSpec@SchemaElementDecl@xercesc_3_1@@UAEPAVContentSpecNode@2@XZ 120252ef f i SchemaElementDecl.obj
 0001:000242fd       ?getContentModel@SchemaElementDecl@xercesc_3_1@@UAEPAVXMLContentModel@2@XZ 120252fd f i SchemaElementDecl.obj
 0001:0002430f       ?isGlobalDecl@SchemaElementDecl@xercesc_3_1@@UBE_NXZ 1202530f f i SchemaElementDecl.obj
 0001:00024319       ??0SchemaElementDecl@xercesc_3_1@@QAE@QAVMemoryManager@1@@Z 12025319 f   SchemaElementDecl.obj
 0001:00024356       ??_ESchemaElementDecl@xercesc_3_1@@UAEPAXI@Z 12025356 f i SchemaElementDecl.obj
 0001:00024356       ??_GSchemaElementDecl@xercesc_3_1@@UAEPAXI@Z 12025356 f i SchemaElementDecl.obj
 0001:00024373       ??0SchemaElementDecl@xercesc_3_1@@QAE@QBG0HW4ModelTypes@01@IQAVMemoryManager@1@@Z 12025373 f   SchemaElementDecl.obj
 0001:000243df       ??1SchemaElementDecl@xercesc_3_1@@UAE@XZ 120253df f   SchemaElementDecl.obj
 0001:00024445       ?getAttDefList@SchemaElementDecl@xercesc_3_1@@UBEAAVXMLAttDefList@2@XZ 12025445 f   SchemaElementDecl.obj
 0001:0002447e       ?getCharDataOpts@SchemaElementDecl@xercesc_3_1@@UBE?AW4CharDataOpts@XMLElementDecl@2@XZ 1202547e f   SchemaElementDecl.obj
 0001:000244a4       ?hasAttDefs@SchemaElementDecl@xercesc_3_1@@UBE_NXZ 120254a4 f   SchemaElementDecl.obj
 0001:000244bc       ?getFormattedContentModel@SchemaElementDecl@xercesc_3_1@@UBEPBGXZ 120254bc f   SchemaElementDecl.obj
 0001:000244cb       ?createObject@SchemaElementDecl@xercesc_3_1@@SAPAVXSerializable@2@PAVMemoryManager@2@@Z 120254cb f   SchemaElementDecl.obj
 0001:000244e8       ?getProtoType@SchemaElementDecl@xercesc_3_1@@UBEPAVXProtoType@2@XZ 120254e8 f   SchemaElementDecl.obj
 0001:000244ee       ?serialize@SchemaElementDecl@xercesc_3_1@@UAEXAAVXSerializeEngine@2@@Z 120254ee f   SchemaElementDecl.obj
 0001:00024647       ?getGrammarDescription@SchemaGrammar@xercesc_3_1@@UBEPAVXMLGrammarDescription@2@XZ 12025647 f i SchemaGrammar.obj
 0001:0002464b       ?getElemId@SchemaGrammar@xercesc_3_1@@UBEKIQBG0I@Z 1202564b f i SchemaGrammar.obj
 0001:00024688       ?getElemDecl@SchemaGrammar@xercesc_3_1@@UAEPAVXMLElementDecl@2@IQBG0I@Z 12025688 f i SchemaGrammar.obj
 0001:00024688       ?getElemDecl@SchemaGrammar@xercesc_3_1@@UBEPBVXMLElementDecl@2@IQBG0I@Z 12025688 f i SchemaGrammar.obj
 0001:000246d3       ?getElemDecl@SchemaGrammar@xercesc_3_1@@UBEPBVXMLElementDecl@2@I@Z 120256d3 f i SchemaGrammar.obj
 0001:000246d3       ?getElemDecl@SchemaGrammar@xercesc_3_1@@UAEPAVXMLElementDecl@2@I@Z 120256d3 f i SchemaGrammar.obj
 0001:000246f6       ?putElemDecl@SchemaGrammar@xercesc_3_1@@UAEKQAVXMLElementDecl@2@_N@Z 120256f6 f i SchemaGrammar.obj
 0001:0002477f       ?putNotationDecl@DTDGrammar@xercesc_3_1@@UBEKQAVXMLNotationDecl@2@@Z 1202577f f i DTDGrammar.obj
 0001:0002477f       ?putNotationDecl@SchemaGrammar@xercesc_3_1@@UBEKQAVXMLNotationDecl@2@@Z 1202577f f i SchemaGrammar.obj
 0001:00024790       ?getValidated@SchemaGrammar@xercesc_3_1@@UBE_NXZ 12025790 f i SchemaGrammar.obj
 0001:00024794       ?setValidated@SchemaGrammar@xercesc_3_1@@UAEX_N@Z 12025794 f i SchemaGrammar.obj
 0001:0002479e       ??0SchemaGrammar@xercesc_3_1@@QAE@QAVMemoryManager@1@@Z 1202579e f   SchemaGrammar.obj
 0001:0002494a       ??_GSchemaGrammar@xercesc_3_1@@UAEPAXI@Z 1202594a f i SchemaGrammar.obj
 0001:0002494a       ??_ESchemaGrammar@xercesc_3_1@@UAEPAXI@Z 1202594a f i SchemaGrammar.obj
 0001:00024966       ??1SchemaGrammar@xercesc_3_1@@UAE@XZ 12025966 f   SchemaGrammar.obj
 0001:000249a9       ?findOrAddElemDecl@SchemaGrammar@xercesc_3_1@@UAEPAVXMLElementDecl@2@IQBG00IAA_N@Z 120259a9 f   SchemaGrammar.obj
 0001:00024a81       ?putElemDecl@SchemaGrammar@xercesc_3_1@@UAEPAVXMLElementDecl@2@IQBG00I_N@Z 12025a81 f   SchemaGrammar.obj
 0001:00024b3a       ?reset@SchemaGrammar@xercesc_3_1@@UAEXXZ 12025b3a f   SchemaGrammar.obj
 0001:00024b73       ?cleanUp@SchemaGrammar@xercesc_3_1@@AAEXXZ 12025b73 f   SchemaGrammar.obj
 0001:00024c20       ?setGrammarDescription@SchemaGrammar@xercesc_3_1@@UAEXPAVXMLGrammarDescription@2@@Z 12025c20 f   SchemaGrammar.obj
 0001:00024c4d       ?createObject@SchemaGrammar@xercesc_3_1@@SAPAVXSerializable@2@PAVMemoryManager@2@@Z 12025c4d f   SchemaGrammar.obj
 0001:00024c87       ?getProtoType@SchemaGrammar@xercesc_3_1@@UBEPAVXProtoType@2@XZ 12025c87 f   SchemaGrammar.obj
 0001:00024c8d       ?serialize@SchemaGrammar@xercesc_3_1@@UAEXAAVXSerializeEngine@2@@Z 12025c8d f   SchemaGrammar.obj
 0001:00024dc4       ?getById@?$RefHash3KeysIdPool@VSchemaElementDecl@xercesc_3_1@@UStringHasher@2@@xercesc_3_1@@QAEPAVSchemaElementDecl@2@I@Z 12025dc4 f i SchemaGrammar.obj
 0001:00024e03       ?isEquivalentTo@SubstitutionGroupComparator@xercesc_3_1@@QAE_NQBVQName@2@0@Z 12025e03 f   SubstitutionGroupComparator.obj
 0001:00024f81       ?isAllowedByWildcard@SubstitutionGroupComparator@xercesc_3_1@@QAE_NQAVSchemaGrammar@2@QAVQName@2@I_N@Z 12025f81 f   SubstitutionGroupComparator.obj
 0001:0002502e       ??0XercesAttGroupInfo@xercesc_3_1@@QAE@QAVMemoryManager@1@@Z 1202602e f   XercesAttGroupInfo.obj
 0001:00025052       ??_GXercesAttGroupInfo@xercesc_3_1@@UAEPAXI@Z 12026052 f i XercesAttGroupInfo.obj
 0001:00025052       ??_EXercesAttGroupInfo@xercesc_3_1@@UAEPAXI@Z 12026052 f i XercesAttGroupInfo.obj
 0001:0002506f       ??1XercesAttGroupInfo@xercesc_3_1@@UAE@XZ 1202606f f   XercesAttGroupInfo.obj
 0001:000250c3       ?createObject@XercesAttGroupInfo@xercesc_3_1@@SAPAVXSerializable@2@PAVMemoryManager@2@@Z 120260c3 f   XercesAttGroupInfo.obj
 0001:000250e0       ?getProtoType@XercesAttGroupInfo@xercesc_3_1@@UBEPAVXProtoType@2@XZ 120260e0 f   XercesAttGroupInfo.obj
 0001:000250e6       ?serialize@XercesAttGroupInfo@xercesc_3_1@@UAEXAAVXSerializeEngine@2@@Z 120260e6 f   XercesAttGroupInfo.obj
 0001:00025186       ?conflict@XercesElementWildcard@xercesc_3_1@@SA_NQAVSchemaGrammar@2@W4NodeTypes@ContentSpecNode@2@PAVQName@2@12PAVSubstitutionGroupComparator@2@@Z 12026186 f   XercesElementWildcard.obj
 0001:000251e8       ?uriInWildcard@XercesElementWildcard@xercesc_3_1@@CA_NQAVSchemaGrammar@2@PAVQName@2@IW4NodeTypes@ContentSpecNode@2@PAVSubstitutionGroupComparator@2@@Z 120261e8 f   XercesElementWildcard.obj
 0001:00025210       ?wildcardIntersect@XercesElementWildcard@xercesc_3_1@@CA_NW4NodeTypes@ContentSpecNode@2@I0I@Z 12026210 f   XercesElementWildcard.obj
 0001:0002526d       ??0XercesGroupInfo@xercesc_3_1@@QAE@QAVMemoryManager@1@@Z 1202626d f   XercesGroupInfo.obj
 0001:000252eb       ??_EXercesGroupInfo@xercesc_3_1@@UAEPAXI@Z 120262eb f i XercesGroupInfo.obj
 0001:000252eb       ??_GXercesGroupInfo@xercesc_3_1@@UAEPAXI@Z 120262eb f i XercesGroupInfo.obj
 0001:00025308       ??1XercesGroupInfo@xercesc_3_1@@UAE@XZ 12026308 f   XercesGroupInfo.obj
 0001:0002535c       ?createObject@XercesGroupInfo@xercesc_3_1@@SAPAVXSerializable@2@PAVMemoryManager@2@@Z 1202635c f   XercesGroupInfo.obj
 0001:00025396       ?getProtoType@XercesGroupInfo@xercesc_3_1@@UBEPAVXProtoType@2@XZ 12026396 f   XercesGroupInfo.obj
 0001:0002539c       ?serialize@XercesGroupInfo@xercesc_3_1@@UAEXAAVXSerializeEngine@2@@Z 1202639c f   XercesGroupInfo.obj
 0001:00025451       ??5xercesc_3_1@@YAAAVXSerializeEngine@0@AAV10@AAPAVXMLAttDef@0@@Z 12026451 f i XMLSchemaDescriptionImpl.obj
 0001:0002546a       ??0XMLSchemaDescriptionImpl@xercesc_3_1@@QAE@QBGQAVMemoryManager@1@@Z 1202646a f   XMLSchemaDescriptionImpl.obj
 0001:000254f4       ??_GXMLSchemaDescriptionImpl@xercesc_3_1@@UAEPAXI@Z 120264f4 f i XMLSchemaDescriptionImpl.obj
 0001:000254f4       ??_EXMLSchemaDescriptionImpl@xercesc_3_1@@UAEPAXI@Z 120264f4 f i XMLSchemaDescriptionImpl.obj
 0001:00025511       ??1XMLSchemaDescriptionImpl@xercesc_3_1@@UAE@XZ 12026511 f   XMLSchemaDescriptionImpl.obj
 0001:00025575       ?getSystemId@XMLDTDDescriptionImpl@xercesc_3_1@@UBEPBGXZ 12026575 f   XMLDTDDescriptionImpl.obj
 0001:00025575       ?getContextType@XMLSchemaDescriptionImpl@xercesc_3_1@@UBE?AW4ContextType@XMLSchemaDescription@2@XZ 12026575 f   XMLSchemaDescriptionImpl.obj
 0001:00025579       ?setContextType@XMLSchemaDescriptionImpl@xercesc_3_1@@UAEXW4ContextType@XMLSchemaDescription@2@@Z 12026579 f   XMLSchemaDescriptionImpl.obj
 0001:00025583       ?setTargetNamespace@XMLSchemaDescriptionImpl@xercesc_3_1@@UAEXQBG@Z 12026583 f   XMLSchemaDescriptionImpl.obj
 0001:000255b0       ?setLocationHints@XMLSchemaDescriptionImpl@xercesc_3_1@@UAEXQBG@Z 120265b0 f   XMLSchemaDescriptionImpl.obj
 0001:000255cf       ?setTriggeringComponent@XMLSchemaDescriptionImpl@xercesc_3_1@@UAEXQAVQName@2@@Z 120265cf f   XMLSchemaDescriptionImpl.obj
 0001:00025626       ?setEnclosingElementName@XMLSchemaDescriptionImpl@xercesc_3_1@@UAEXQAVQName@2@@Z 12026626 f   XMLSchemaDescriptionImpl.obj
 0001:0002567d       ?setAttributes@XMLSchemaDescriptionImpl@xercesc_3_1@@UAEXQAVXMLAttDef@2@@Z 1202667d f   XMLSchemaDescriptionImpl.obj
 0001:00025687       ?createObject@XMLSchemaDescriptionImpl@xercesc_3_1@@SAPAVXSerializable@2@PAVMemoryManager@2@@Z 12026687 f   XMLSchemaDescriptionImpl.obj
 0001:000256a4       ?getProtoType@XMLSchemaDescriptionImpl@xercesc_3_1@@UBEPAVXProtoType@2@XZ 120266a4 f   XMLSchemaDescriptionImpl.obj
 0001:000256aa       ?serialize@XMLSchemaDescriptionImpl@xercesc_3_1@@UAEXAAVXSerializeEngine@2@@Z 120266aa f   XMLSchemaDescriptionImpl.obj
 0001:0002576c       ??0XMLSchemaDescriptionImpl@xercesc_3_1@@QAE@QAVMemoryManager@1@@Z 1202676c f   XMLSchemaDescriptionImpl.obj
 0001:0002578e       ??5xercesc_3_1@@YAAAVXSerializeEngine@0@AAV10@AAPAVXercesXPath@0@@Z 1202678e f i IC_Field.obj
 0001:000257a7       ??_GIC_Field@xercesc_3_1@@UAEPAXI@Z 120267a7 f i IC_Field.obj
 0001:000257a7       ??_EIC_Field@xercesc_3_1@@UAEPAXI@Z 120267a7 f i IC_Field.obj
 0001:000257c4       ??1IC_Field@xercesc_3_1@@UAE@XZ 120267c4 f   IC_Field.obj
 0001:000257fe       ?createObject@IC_Field@xercesc_3_1@@SAPAVXSerializable@2@PAVMemoryManager@2@@Z 120267fe f   IC_Field.obj
 0001:00025822       ?getProtoType@IC_Field@xercesc_3_1@@UBEPAVXProtoType@2@XZ 12026822 f   IC_Field.obj
 0001:00025828       ?serialize@IC_Field@xercesc_3_1@@UAEXAAVXSerializeEngine@2@@Z 12026828 f   IC_Field.obj
 0001:00025828       ?serialize@IC_Selector@xercesc_3_1@@UAEXAAVXSerializeEngine@2@@Z 12026828 f   IC_Selector.obj
 0001:00025865       ?getType@IC_Key@xercesc_3_1@@UBEFXZ 12026865 f i IC_Key.obj
 0001:0002586a       ??_GIC_Key@xercesc_3_1@@UAEPAXI@Z 1202686a f i IC_Key.obj
 0001:0002586a       ??_EIC_Key@xercesc_3_1@@UAEPAXI@Z 1202686a f i IC_Key.obj
 0001:00025886       ??1IC_Key@xercesc_3_1@@UAE@XZ 12026886 f   IC_Key.obj
 0001:00025891       ?createObject@IC_Key@xercesc_3_1@@SAPAVXSerializable@2@PAVMemoryManager@2@@Z 12026891 f   IC_Key.obj
 0001:000258cb       ?getProtoType@IC_Key@xercesc_3_1@@UBEPAVXProtoType@2@XZ 120268cb f   IC_Key.obj
 0001:000258d1       ??0IC_Key@xercesc_3_1@@QAE@QAVMemoryManager@1@@Z 120268d1 f   IC_Key.obj
 0001:000258e4       ?getType@IC_KeyRef@xercesc_3_1@@UBEFXZ 120268e4 f i IC_KeyRef.obj
 0001:000258e9       ??_EIC_KeyRef@xercesc_3_1@@UAEPAXI@Z 120268e9 f i IC_KeyRef.obj
 0001:000258e9       ??_GIC_KeyRef@xercesc_3_1@@UAEPAXI@Z 120268e9 f i IC_KeyRef.obj
 0001:00025905       ??1IC_KeyRef@xercesc_3_1@@UAE@XZ 12026905 f   IC_KeyRef.obj
 0001:00025910       ?createObject@IC_KeyRef@xercesc_3_1@@SAPAVXSerializable@2@PAVMemoryManager@2@@Z 12026910 f   IC_KeyRef.obj
 0001:0002594a       ?getProtoType@IC_KeyRef@xercesc_3_1@@UBEPAVXProtoType@2@XZ 1202694a f   IC_KeyRef.obj
 0001:00025950       ?serialize@IC_KeyRef@xercesc_3_1@@UAEXAAVXSerializeEngine@2@@Z 12026950 f   IC_KeyRef.obj
 0001:0002597d       ??0IC_KeyRef@xercesc_3_1@@QAE@QAVMemoryManager@1@@Z 1202697d f   IC_KeyRef.obj
 0001:00025994       ??_EIC_Selector@xercesc_3_1@@UAEPAXI@Z 12026994 f i IC_Selector.obj
 0001:00025994       ??_GIC_Selector@xercesc_3_1@@UAEPAXI@Z 12026994 f i IC_Selector.obj
 0001:000259b1       ??1IC_Selector@xercesc_3_1@@UAE@XZ 120269b1 f   IC_Selector.obj
 0001:000259eb       ?createObject@IC_Selector@xercesc_3_1@@SAPAVXSerializable@2@PAVMemoryManager@2@@Z 120269eb f   IC_Selector.obj
 0001:00025a0f       ?getProtoType@IC_Selector@xercesc_3_1@@UBEPAVXProtoType@2@XZ 12026a0f f   IC_Selector.obj
 0001:00025a15       ?getType@IC_Unique@xercesc_3_1@@UBEFXZ 12026a15 f i IC_Unique.obj
 0001:00025a19       ??_GIC_Unique@xercesc_3_1@@UAEPAXI@Z 12026a19 f i IC_Unique.obj
 0001:00025a19       ??_EIC_Unique@xercesc_3_1@@UAEPAXI@Z 12026a19 f i IC_Unique.obj
 0001:00025a35       ??1IC_Unique@xercesc_3_1@@UAE@XZ 12026a35 f   IC_Unique.obj
 0001:00025a40       ?createObject@IC_Unique@xercesc_3_1@@SAPAVXSerializable@2@PAVMemoryManager@2@@Z 12026a40 f   IC_Unique.obj
 0001:00025a7a       ?getProtoType@IC_Unique@xercesc_3_1@@UBEPAVXProtoType@2@XZ 12026a7a f   IC_Unique.obj
 0001:00025a80       ?serialize@IC_Unique@xercesc_3_1@@UAEXAAVXSerializeEngine@2@@Z 12026a80 f   IC_Unique.obj
 0001:00025a80       ?serialize@IC_Key@xercesc_3_1@@UAEXAAVXSerializeEngine@2@@Z 12026a80 f   IC_Key.obj
 0001:00025a85       ??0IC_Unique@xercesc_3_1@@QAE@QAVMemoryManager@1@@Z 12026a85 f   IC_Unique.obj
 0001:00025a98       ??5xercesc_3_1@@YAAAVXSerializeEngine@0@AAV10@AAPAVIC_Selector@0@@Z 12026a98 f i IdentityConstraint.obj
 0001:00025ab1       ??5xercesc_3_1@@YAAAVXSerializeEngine@0@AAV10@AAPAVIC_Unique@0@@Z 12026ab1 f i IdentityConstraint.obj
 0001:00025aca       ??5xercesc_3_1@@YAAAVXSerializeEngine@0@AAV10@AAPAVIC_Key@0@@Z 12026aca f i IdentityConstraint.obj
 0001:00025ae3       ??5xercesc_3_1@@YAAAVXSerializeEngine@0@AAV10@AAPAVIC_KeyRef@0@@Z 12026ae3 f i IdentityConstraint.obj
 0001:00025afc       ??0IdentityConstraint@xercesc_3_1@@IAE@QBG0QAVMemoryManager@1@@Z 12026afc f   IdentityConstraint.obj
 0001:00025b98       ??_GIdentityConstraint@xercesc_3_1@@UAEPAXI@Z 12026b98 f i IdentityConstraint.obj
 0001:00025b98       ??_EIdentityConstraint@xercesc_3_1@@UAEPAXI@Z 12026b98 f i IdentityConstraint.obj
 0001:00025bb4       ??1IdentityConstraint@xercesc_3_1@@UAE@XZ 12026bb4 f   IdentityConstraint.obj
 0001:00025be7       ?cleanUp@IdentityConstraint@xercesc_3_1@@AAEXXZ 12026be7 f   IdentityConstraint.obj
 0001:00025c1c       ?getProtoType@IdentityConstraint@xercesc_3_1@@UBEPAVXProtoType@2@XZ 12026c1c f   IdentityConstraint.obj
 0001:00025c22       ?serialize@IdentityConstraint@xercesc_3_1@@UAEXAAVXSerializeEngine@2@@Z 12026c22 f   IdentityConstraint.obj
 0001:00025ca4       ?storeIC@IdentityConstraint@xercesc_3_1@@SAXAAVXSerializeEngine@2@QAV12@@Z 12026ca4 f   IdentityConstraint.obj
 0001:00025cd3       ?loadIC@IdentityConstraint@xercesc_3_1@@SAPAV12@AAVXSerializeEngine@2@@Z 12026cd3 f   IdentityConstraint.obj
 0001:00025d1e       ??1XercesNodeTest@xercesc_3_1@@UAE@XZ 12026d1e f i XercesXPath.obj
 0001:00025d58       ??5xercesc_3_1@@YAAAVXSerializeEngine@0@AAV10@AAPAVXercesNodeTest@0@@Z 12026d58 f i XercesXPath.obj
 0001:00025d71       ??_EXercesNodeTest@xercesc_3_1@@UAEPAXI@Z 12026d71 f i XercesXPath.obj
 0001:00025d71       ??_GXercesNodeTest@xercesc_3_1@@UAEPAXI@Z 12026d71 f i XercesXPath.obj
 0001:00025d8e       ??1XercesStep@xercesc_3_1@@UAE@XZ 12026d8e f i XercesXPath.obj
 0001:00025dc8       ??_EXercesStep@xercesc_3_1@@UAEPAXI@Z 12026dc8 f i XercesXPath.obj
 0001:00025dc8       ??_GXercesStep@xercesc_3_1@@UAEPAXI@Z 12026dc8 f i XercesXPath.obj
 0001:00025de5       ??1XercesLocationPath@xercesc_3_1@@UAE@XZ 12026de5 f i XercesXPath.obj
 0001:00025e1f       ??_GXercesLocationPath@xercesc_3_1@@UAEPAXI@Z 12026e1f f i XercesXPath.obj
 0001:00025e1f       ??_EXercesLocationPath@xercesc_3_1@@UAEPAXI@Z 12026e1f f i XercesXPath.obj
 0001:00025e3c       ?createObject@XercesNodeTest@xercesc_3_1@@SAPAVXSerializable@2@PAVMemoryManager@2@@Z 12026e3c f   XercesXPath.obj
 0001:00025e62       ?getProtoType@XercesNodeTest@xercesc_3_1@@UBEPAVXProtoType@2@XZ 12026e62 f   XercesXPath.obj
 0001:00025e68       ?serialize@XercesNodeTest@xercesc_3_1@@UAEXAAVXSerializeEngine@2@@Z 12026e68 f   XercesXPath.obj
 0001:00025eac       ?createObject@XercesStep@xercesc_3_1@@SAPAVXSerializable@2@PAVMemoryManager@2@@Z 12026eac f   XercesXPath.obj
 0001:00025ed2       ?getProtoType@XercesStep@xercesc_3_1@@UBEPAVXProtoType@2@XZ 12026ed2 f   XercesXPath.obj
 0001:00025ed8       ?serialize@XercesStep@xercesc_3_1@@UAEXAAVXSerializeEngine@2@@Z 12026ed8 f   XercesXPath.obj
 0001:00025f25       ?createObject@XercesLocationPath@xercesc_3_1@@SAPAVXSerializable@2@PAVMemoryManager@2@@Z 12026f25 f   XercesXPath.obj
 0001:00025f45       ?getProtoType@XercesLocationPath@xercesc_3_1@@UBEPAVXProtoType@2@XZ 12026f45 f   XercesXPath.obj
 0001:00025f4b       ?serialize@XercesLocationPath@xercesc_3_1@@UAEXAAVXSerializeEngine@2@@Z 12026f4b f   XercesXPath.obj
 0001:00025f74       ??_EXercesXPath@xercesc_3_1@@UAEPAXI@Z 12026f74 f i XercesXPath.obj
 0001:00025f74       ??_GXercesXPath@xercesc_3_1@@UAEPAXI@Z 12026f74 f i XercesXPath.obj
 0001:00025f91       ??1XercesXPath@xercesc_3_1@@UAE@XZ 12026f91 f   XercesXPath.obj
 0001:00025fc5       ?cleanUp@XercesXPath@xercesc_3_1@@AAEXXZ 12026fc5 f   XercesXPath.obj
 0001:00025fe2       ?createObject@XercesXPath@xercesc_3_1@@SAPAVXSerializable@2@PAVMemoryManager@2@@Z 12026fe2 f   XercesXPath.obj
 0001:00025fff       ?getProtoType@XercesXPath@xercesc_3_1@@UBEPAVXProtoType@2@XZ 12026fff f   XercesXPath.obj
 0001:00026005       ?serialize@XercesXPath@xercesc_3_1@@UAEXAAVXSerializeEngine@2@@Z 12027005 f   XercesXPath.obj
 0001:0002605e       ??0XercesXPath@xercesc_3_1@@QAE@QAVMemoryManager@1@@Z 1202705e f   XercesXPath.obj
 0001:00026079       ??_EDOMTypeInfo@xercesc_3_1@@UAEPAXI@Z 12027079 f i DOMTypeInfoImpl.obj
 0001:00026079       ??_GDOMTypeInfo@xercesc_3_1@@UAEPAXI@Z 12027079 f i DOMTypeInfoImpl.obj
 0001:00026096       ??_GDOMPSVITypeInfo@xercesc_3_1@@UAEPAXI@Z 12027096 f i DOMTypeInfoImpl.obj
 0001:00026096       ??_EDOMPSVITypeInfo@xercesc_3_1@@UAEPAXI@Z 12027096 f i DOMTypeInfoImpl.obj
 0001:000260b3       ??1DOMTypeInfoImpl@xercesc_3_1@@UAE@XZ 120270b3 f i DOMTypeInfoImpl.obj
 0001:000260cb       ??0DOMTypeInfoImpl@xercesc_3_1@@QAE@PBG0@Z 120270cb f   DOMTypeInfoImpl.obj
 0001:000260fd       ??_EDOMTypeInfoImpl@xercesc_3_1@@UAEPAXI@Z 120270fd f i DOMTypeInfoImpl.obj
 0001:000260fd       ??_GDOMTypeInfoImpl@xercesc_3_1@@UAEPAXI@Z 120270fd f i DOMTypeInfoImpl.obj
 0001:0002611b       ?getTypeName@DOMTypeInfoImpl@xercesc_3_1@@UBEPBGXZ 1202711b f   DOMTypeInfoImpl.obj
 0001:00026149       ?getTypeNamespace@DOMTypeInfoImpl@xercesc_3_1@@UBEPBGXZ 12027149 f   DOMTypeInfoImpl.obj
 0001:0002617b       ?isDerivedFrom@DOMTypeInfoImpl@xercesc_3_1@@UBE_NPBG0W4DerivationMethods@DOMTypeInfo@2@@Z 1202717b f   DOMTypeInfoImpl.obj
 0001:000261c2       ?getStringProperty@DOMTypeInfoImpl@xercesc_3_1@@UBEPBGW4PSVIProperty@DOMPSVITypeInfo@2@@Z 120271c2 f   DOMTypeInfoImpl.obj
 0001:00026200       ?getNumericProperty@DOMTypeInfoImpl@xercesc_3_1@@UBEHW4PSVIProperty@DOMPSVITypeInfo@2@@Z 12027200 f   DOMTypeInfoImpl.obj
 0001:00026267       ?setStringProperty@DOMTypeInfoImpl@xercesc_3_1@@UAEXW4PSVIProperty@DOMPSVITypeInfo@2@PBG@Z 12027267 f   DOMTypeInfoImpl.obj
 0001:000262b6       ?setNumericProperty@DOMTypeInfoImpl@xercesc_3_1@@UAEXW4PSVIProperty@DOMPSVITypeInfo@2@H@Z 120272b6 f   DOMTypeInfoImpl.obj
 0001:00026336       ??_EDOMTypeInfoImpl@xercesc_3_1@@W3AEPAXI@Z 12027336 f i DOMTypeInfoImpl.obj
 0001:0002633e       ??3@YAXPAX@Z               1202733e f   MSVCRT:MSVCR71.dll
 0001:00026344       ??2@YAPAXI@Z               12027344 f   MSVCRT:MSVCR71.dll
 0001:0002634a       __purecall                 1202734a f   MSVCRT:MSVCR71.dll
 0001:00026350       _memcpy                    12027350 f   MSVCRT:MSVCR71.dll
 0001:00026356       _memset                    12027356 f   MSVCRT:MSVCR71.dll
 0001:0002635c       ??_V@YAXPAX@Z              1202735c f   MSVCRT:MSVCR71.dll
 0001:00026362       ??_Etype_info@@UAEPAXI@Z   12027362 f i MSVCRT:ti_inst.obj
 0001:000263ae       _abs                       120273ae f   MSVCRT:MSVCR71.dll
 0001:000263b4       _strlen                    120273b4 f   MSVCRT:MSVCR71.dll
 0001:000263ba       __onexit                   120273ba f   MSVCRT:atonexit.obj
 0001:000263e0       _atexit                    120273e0 f   MSVCRT:atonexit.obj
 0001:000263f2       _log                       120273f2 f   MSVCRT:MSVCR71.dll
 0001:000263f8       __CRT_INIT@12              120273f8 f   MSVCRT:crtdll.obj
 0001:000264b6       __DllMainCRTStartup@12     120274b6 f   MSVCRT:crtdll.obj
 0001:0002659a       ?__ArrayUnwind@@YGXPAXIHP6EX0@Z@Z 1202759a f   MSVCRT:ehvecdtr.obj
 0001:000265f8       ??_M@YGXPAXIHP6EX0@Z@Z     120275f8 f   MSVCRT:ehvecdtr.obj
 0001:00026658       ??1type_info@@UAE@XZ       12027658 f   MSVCRT:MSVCR71.dll
 0001:0002665e       ___dllonexit               1202765e f   MSVCRT:MSVCR71.dll
 0001:00026664       __initterm                 12027664 f   MSVCRT:MSVCR71.dll
 0001:0002666a       __RTC_Initialize           1202766a f   MSVCRT:initsect.obj
 0001:000266ae       __RTC_Terminate            120276ae f   MSVCRT:initsect.obj
 0001:000266f2       ___CppXcptFilter           120276f2 f   MSVCRT:MSVCR71.dll
 0001:000266f8       _DllMain@12                120276f8 f   MSVCRT:dllmain.obj
 0001:00026718       __SEH_prolog               12027718 f   MSVCRT:sehprolg.obj
 0001:00026753       __SEH_epilog               12027753 f   MSVCRT:sehprolg.obj
 0001:00026764       __except_handler3          12027764 f   MSVCRT:MSVCR71.dll
 0001:0002676a       ?terminate@@YAXXZ          1202776a f   MSVCRT:MSVCR71.dll
 0001:00026770       __ftol2                    12027770 f   MSVCRT:ftol2.obj
 0001:000267e6       ___CxxFrameHandler         120277e6 f   MSVCRT:MSVCR71.dll
 0001:000267ec       __EH_prolog                120277ec f   MSVCRT:ehprolog.obj
 0001:0002683c       @__security_check_cookie@4 1202783c f   MSVCRT:secchk.obj
 0001:00026850       __chkstk                   12027850 f   MSVCRT:chkstk.obj
 0001:00026850       __alloca_probe             12027850     MSVCRT:chkstk.obj
 0001:0002688e       __CxxThrowException@8      1202788e f   MSVCRT:MSVCR71.dll
 0001:00026894       ___security_init_cookie    12027894 f   MSVCRT:seccinit.obj
 0001:000268fa       ___security_error_handler  120278fa f   MSVCRT:MSVCR71.dll
 0002:00000000       __imp__GetCurrentProcessId@0 12029000     kernel32:KERNEL32.dll
 0002:00000004       __imp__GetCurrentThreadId@0 12029004     kernel32:KERNEL32.dll
 0002:00000008       __imp__GetTickCount@0      12029008     kernel32:KERNEL32.dll
 0002:0000000c       __imp__QueryPerformanceCounter@4 1202900c     kernel32:KERNEL32.dll
 0002:00000010       __imp__ExitProcess@4       12029010     kernel32:KERNEL32.dll
 0002:00000014       __imp__DisableThreadLibraryCalls@4 12029014     kernel32:KERNEL32.dll
 0002:00000018       __imp__GetSystemTimeAsFileTime@4 12029018     kernel32:KERNEL32.dll
 0002:0000001c       \177KERNEL32_NULL_THUNK_DATA 1202901c     kernel32:KERNEL32.dll
 0002:00000020       __imp__memset              12029020     MSVCRT:MSVCR71.dll
 0002:00000024       __imp_??_V@YAXPAX@Z        12029024     MSVCRT:MSVCR71.dll
 0002:00000028       __imp__strtod              12029028     MSVCRT:MSVCR71.dll
 0002:0000002c       __imp__strchr              1202902c     MSVCRT:MSVCR71.dll
 0002:00000030       __imp___errno              12029030     MSVCRT:MSVCR71.dll
 0002:00000034       __imp__div                 12029034     MSVCRT:MSVCR71.dll
 0002:00000038       __imp__abs                 12029038     MSVCRT:MSVCR71.dll
 0002:0000003c       __imp__strlen              1202903c     MSVCRT:MSVCR71.dll
 0002:00000040       __imp__strtol              12029040     MSVCRT:MSVCR71.dll
 0002:00000044       __imp__strtoul             12029044     MSVCRT:MSVCR71.dll
 0002:00000048       __imp__log                 12029048     MSVCRT:MSVCR71.dll
 0002:0000004c       __imp__sprintf             1202904c     MSVCRT:MSVCR71.dll
 0002:00000050       __imp_??1type_info@@UAE@XZ 12029050     MSVCRT:MSVCR71.dll
 0002:00000054       __imp____dllonexit         12029054     MSVCRT:MSVCR71.dll
 0002:00000058       __imp___onexit             12029058     MSVCRT:MSVCR71.dll
 0002:0000005c       __imp__free                1202905c     MSVCRT:MSVCR71.dll
 0002:00000060       __imp___initterm           12029060     MSVCRT:MSVCR71.dll
 0002:00000064       __imp__malloc              12029064     MSVCRT:MSVCR71.dll
 0002:00000068       __imp___adjust_fdiv        12029068     MSVCRT:MSVCR71.dll
 0002:0000006c       __imp____CppXcptFilter     1202906c     MSVCRT:MSVCR71.dll
 0002:00000070       __imp___except_handler3    12029070     MSVCRT:MSVCR71.dll
 0002:00000074       __imp_?terminate@@YAXXZ    12029074     MSVCRT:MSVCR71.dll
 0002:00000078       __imp____CxxFrameHandler   12029078     MSVCRT:MSVCR71.dll
 0002:0000007c       __imp___CxxThrowException@8 1202907c     MSVCRT:MSVCR71.dll
 0002:00000080       __imp____security_error_handler 12029080     MSVCRT:MSVCR71.dll
 0002:00000084       __imp__memcpy              12029084     MSVCRT:MSVCR71.dll
 0002:00000088       __imp___purecall           12029088     MSVCRT:MSVCR71.dll
 0002:0000008c       __imp_??2@YAPAXI@Z         1202908c     MSVCRT:MSVCR71.dll
 0002:00000090       __imp_??3@YAXPAX@Z         12029090     MSVCRT:MSVCR71.dll
 0002:00000094       __imp__localeconv          12029094     MSVCRT:MSVCR71.dll
 0002:00000098       \177MSVCR71_NULL_THUNK_DATA 12029098     MSVCRT:MSVCR71.dll
 0002:000000c0       ??_7type_info@@6B@         120290c0     MSVCRT:ti_inst.obj
 0002:00000118       ?base64Alphabet@Base64@xercesc_3_1@@0QBEB 12029118     Base64.obj
 0002:00000160       ?base64Inverse@Base64@xercesc_3_1@@0QBEB 12029160     Base64.obj
 0002:0000025f       ?base64Padding@Base64@xercesc_3_1@@0EB 1202925f     Base64.obj
 0002:00000260       ?quadsPerLine@Base64@xercesc_3_1@@0IB 12029260     Base64.obj
 0002:00011eb0       ?hexNumberTable@HexBin@xercesc_3_1@@0QBEB 1203aeb0     HexBin.obj
 0002:00011fc8       ?fgPsvColon@PSVIUni@xercesc_3_1@@2QBGB 1203afc8     PSVIUni.obj
 0002:00011fd4       ?fgAllDeclarationsProcessed@PSVIUni@xercesc_3_1@@2QBGB 1203afd4     PSVIUni.obj
 0002:00012008       ?fgAttribute@PSVIUni@xercesc_3_1@@2QBGB 1203b008     PSVIUni.obj
 0002:0001201c       ?fgAttributes@PSVIUni@xercesc_3_1@@2QBGB 1203b01c     PSVIUni.obj
 0002:00012034       ?fgAttributeType@PSVIUni@xercesc_3_1@@2QBGB 1203b034     PSVIUni.obj
 0002:00012050       ?fgBaseURI@PSVIUni@xercesc_3_1@@2QBGB 1203b050     PSVIUni.obj
 0002:00012060       ?fgCanonicalRepresentation@PSVIUni@xercesc_3_1@@2QBGB 1203b060     PSVIUni.obj
 0002:00012084       ?fgCharacter@PSVIUni@xercesc_3_1@@2QBGB 1203b084     PSVIUni.obj
 0002:00012098       ?fgCharacterEncodingScheme@PSVIUni@xercesc_3_1@@2QBGB 1203b098     PSVIUni.obj
 0002:000120c8       ?fgChildren@PSVIUni@xercesc_3_1@@2QBGB 1203b0c8     PSVIUni.obj
 0002:000120dc       ?fgComment@PSVIUni@xercesc_3_1@@2QBGB 1203b0dc     PSVIUni.obj
 0002:000120ec       ?fgContent@PSVIUni@xercesc_3_1@@2QBGB 1203b0ec     PSVIUni.obj
 0002:000120fc       ?fgDocument@PSVIUni@xercesc_3_1@@2QBGB 1203b0fc     PSVIUni.obj
 0002:00012110       ?fgDocTypeDeclaration@PSVIUni@xercesc_3_1@@2QBGB 1203b110     PSVIUni.obj
 0002:00012138       ?fgDocumentElement@PSVIUni@xercesc_3_1@@2QBGB 1203b138     PSVIUni.obj
 0002:00012158       ?fgElement@PSVIUni@xercesc_3_1@@2QBGB 1203b158     PSVIUni.obj
 0002:00012168       ?fgInScopeNamespaces@PSVIUni@xercesc_3_1@@2QBGB 1203b168     PSVIUni.obj
 0002:0001218c       ?fgLocalName@PSVIUni@xercesc_3_1@@2QBGB 1203b18c     PSVIUni.obj
 0002:000121a0       ?fgNamespace@PSVIUni@xercesc_3_1@@2QBGB 1203b1a0     PSVIUni.obj
 0002:000121b4       ?fgNamespaceAttributes@PSVIUni@xercesc_3_1@@2QBGB 1203b1b4     PSVIUni.obj
 0002:000121dc       ?fgNamespaceName@PSVIUni@xercesc_3_1@@2QBGB 1203b1dc     PSVIUni.obj
 0002:000121f8       ?fgNormalizedValue@PSVIUni@xercesc_3_1@@2QBGB 1203b1f8     PSVIUni.obj
 0002:00012218       ?fgNotations@PSVIUni@xercesc_3_1@@2QBGB 1203b218     PSVIUni.obj
 0002:0001222c       ?fgPrefix@PSVIUni@xercesc_3_1@@2QBGB 1203b22c     PSVIUni.obj
 0002:0001223c       ?fgProcessingInstruction@PSVIUni@xercesc_3_1@@2QBGB 1203b23c     PSVIUni.obj
 0002:00012268       ?fgReferences@PSVIUni@xercesc_3_1@@2QBGB 1203b268     PSVIUni.obj
 0002:00012280       ?fgSpecified@PSVIUni@xercesc_3_1@@2QBGB 1203b280     PSVIUni.obj
 0002:00012294       ?fgStandalone@PSVIUni@xercesc_3_1@@2QBGB 1203b294     PSVIUni.obj
 0002:000122ac       ?fgTarget@PSVIUni@xercesc_3_1@@2QBGB 1203b2ac     PSVIUni.obj
 0002:000122bc       ?fgText@PSVIUni@xercesc_3_1@@2QBGB 1203b2bc     PSVIUni.obj
 0002:000122c8       ?fgTextContent@PSVIUni@xercesc_3_1@@2QBGB 1203b2c8     PSVIUni.obj
 0002:000122e0       ?fgUnparsedEntities@PSVIUni@xercesc_3_1@@2QBGB 1203b2e0     PSVIUni.obj
 0002:00012304       ?fgVersion@PSVIUni@xercesc_3_1@@2QBGB 1203b304     PSVIUni.obj
 0002:00012314       ?fgAbstract@PSVIUni@xercesc_3_1@@2QBGB 1203b314     PSVIUni.obj
 0002:00012330       ?fgAnnotation@PSVIUni@xercesc_3_1@@2QBGB 1203b330     PSVIUni.obj
 0002:00012350       ?fgAnnotations@PSVIUni@xercesc_3_1@@2QBGB 1203b350     PSVIUni.obj
 0002:00012370       ?fgApplicationInformation@PSVIUni@xercesc_3_1@@2QBGB 1203b370     PSVIUni.obj
 0002:000123a8       ?fgAttributeDeclaration@PSVIUni@xercesc_3_1@@2QBGB 1203b3a8     PSVIUni.obj
 0002:000123dc       ?fgAttributeGroupDefinition@PSVIUni@xercesc_3_1@@2QBGB 1203b3dc     PSVIUni.obj
 0002:00012418       ?fgAttributeUse@PSVIUni@xercesc_3_1@@2QBGB 1203b418     PSVIUni.obj
 0002:0001243c       ?fgAttributeUses@PSVIUni@xercesc_3_1@@2QBGB 1203b43c     PSVIUni.obj
 0002:00012460       ?fgAttributeWildcard@PSVIUni@xercesc_3_1@@2QBGB 1203b460     PSVIUni.obj
 0002:0001248c       ?fgBaseTypeDefinition@PSVIUni@xercesc_3_1@@2QBGB 1203b48c     PSVIUni.obj
 0002:000124bc       ?fgComplexTypeDefinition@PSVIUni@xercesc_3_1@@2QBGB 1203b4bc     PSVIUni.obj
 0002:000124f0       ?fgCompositor@PSVIUni@xercesc_3_1@@2QBGB 1203b4f0     PSVIUni.obj
 0002:00012510       ?fgContentType@PSVIUni@xercesc_3_1@@2QBGB 1203b510     PSVIUni.obj
 0002:00012530       ?fgDeclaration@PSVIUni@xercesc_3_1@@2QBGB 1203b530     PSVIUni.obj
 0002:00012550       ?fgDerivationMethod@PSVIUni@xercesc_3_1@@2QBGB 1203b550     PSVIUni.obj
 0002:0001257c       ?fgDisallowedSubstitutions@PSVIUni@xercesc_3_1@@2QBGB 1203b57c     PSVIUni.obj
 0002:000125b4       ?fgDocumentLocation@PSVIUni@xercesc_3_1@@2QBGB 1203b5b4     PSVIUni.obj
 0002:000125e0       ?fgPsvDocument@PSVIUni@xercesc_3_1@@2QBGB 1203b5e0     PSVIUni.obj
 0002:000125fc       ?fgElementDeclaration@PSVIUni@xercesc_3_1@@2QBGB 1203b5fc     PSVIUni.obj
 0002:0001262c       ?fgFacetFixed@PSVIUni@xercesc_3_1@@2QBGB 1203b62c     PSVIUni.obj
 0002:00012640       ?fgFacets@PSVIUni@xercesc_3_1@@2QBGB 1203b640     PSVIUni.obj
 0002:00012658       ?fgFields@PSVIUni@xercesc_3_1@@2QBGB 1203b658     PSVIUni.obj
 0002:00012670       ?fgFinal@PSVIUni@xercesc_3_1@@2QBGB 1203b670     PSVIUni.obj
 0002:00012684       ?fgFundamentalFacets@PSVIUni@xercesc_3_1@@2QBGB 1203b684     PSVIUni.obj
 0002:000126b0       ?fgIdentityConstraintCategory@PSVIUni@xercesc_3_1@@2QBGB 1203b6b0     PSVIUni.obj
 0002:000126f0       ?fgIdentityConstraintDefinition@PSVIUni@xercesc_3_1@@2QBGB 1203b6f0     PSVIUni.obj
 0002:00012738       ?fgIdentityConstraintDefinitions@PSVIUni@xercesc_3_1@@2QBGB 1203b738     PSVIUni.obj
 0002:0001277c       ?fgIdentityConstraintTable@PSVIUni@xercesc_3_1@@2QBGB 1203b77c     PSVIUni.obj
 0002:000127b4       ?fgIdIdrefTable@PSVIUni@xercesc_3_1@@2QBGB 1203b7b4     PSVIUni.obj
 0002:000127d8       ?fgItemTypeDefinition@PSVIUni@xercesc_3_1@@2QBGB 1203b7d8     PSVIUni.obj
 0002:00012808       ?fgMaxOccurs@PSVIUni@xercesc_3_1@@2QBGB 1203b808     PSVIUni.obj
 0002:00012824       ?fgMemberTypeDefinition@PSVIUni@xercesc_3_1@@2QBGB 1203b824     PSVIUni.obj
 0002:00012858       ?fgMemberTypeDefinitions@PSVIUni@xercesc_3_1@@2QBGB 1203b858     PSVIUni.obj
 0002:0001288c       ?fgMinOccurs@PSVIUni@xercesc_3_1@@2QBGB 1203b88c     PSVIUni.obj
 0002:000128a8       ?fgModelGroup@PSVIUni@xercesc_3_1@@2QBGB 1203b8a8     PSVIUni.obj
 0002:000128c8       ?fgModelGroupDefinition@PSVIUni@xercesc_3_1@@2QBGB 1203b8c8     PSVIUni.obj
 0002:000128fc       ?fgName@PSVIUni@xercesc_3_1@@2QBGB 1203b8fc     PSVIUni.obj
 0002:00012910       ?fgNamespaceConstraint@PSVIUni@xercesc_3_1@@2QBGB 1203b910     PSVIUni.obj
 0002:00012940       ?fgNamespaces@PSVIUni@xercesc_3_1@@2QBGB 1203b940     PSVIUni.obj
 0002:00012960       ?fgNamespaceSchemaInformation@PSVIUni@xercesc_3_1@@2QBGB 1203b960     PSVIUni.obj
 0002:000129a0       ?fgNil@PSVIUni@xercesc_3_1@@2QBGB 1203b9a0     PSVIUni.obj
 0002:000129b0       ?fgNillable@PSVIUni@xercesc_3_1@@2QBGB 1203b9b0     PSVIUni.obj
 0002:000129cc       ?fgNotation@PSVIUni@xercesc_3_1@@2QBGB 1203b9cc     PSVIUni.obj
 0002:000129e8       ?fgNotationDeclaration@PSVIUni@xercesc_3_1@@2QBGB 1203b9e8     PSVIUni.obj
 0002:00012a18       ?fgParticle@PSVIUni@xercesc_3_1@@2QBGB 1203ba18     PSVIUni.obj
 0002:00012a34       ?fgParticles@PSVIUni@xercesc_3_1@@2QBGB 1203ba34     PSVIUni.obj
 0002:00012a50       ?fgPrimitiveTypeDefinition@PSVIUni@xercesc_3_1@@2QBGB 1203ba50     PSVIUni.obj
 0002:00012a88       ?fgProcessContents@PSVIUni@xercesc_3_1@@2QBGB 1203ba88     PSVIUni.obj
 0002:00012ab0       ?fgProhibitedSubstitutions@PSVIUni@xercesc_3_1@@2QBGB 1203bab0     PSVIUni.obj
 0002:00012ae8       ?fgPublicIdentifier@PSVIUni@xercesc_3_1@@2QBGB 1203bae8     PSVIUni.obj
 0002:00012b14       ?fgReferencedKey@PSVIUni@xercesc_3_1@@2QBGB 1203bb14     PSVIUni.obj
 0002:00012b38       ?fgRequired@PSVIUni@xercesc_3_1@@2QBGB 1203bb38     PSVIUni.obj
 0002:00012b54       ?fgSchemaAnnotations@PSVIUni@xercesc_3_1@@2QBGB 1203bb54     PSVIUni.obj
 0002:00012b80       ?fgSchemaComponents@PSVIUni@xercesc_3_1@@2QBGB 1203bb80     PSVIUni.obj
 0002:00012bac       ?fgSchemaDefault@PSVIUni@xercesc_3_1@@2QBGB 1203bbac     PSVIUni.obj
 0002:00012bd0       ?fgSchemaDocument@PSVIUni@xercesc_3_1@@2QBGB 1203bbd0     PSVIUni.obj
 0002:00012bf8       ?fgSchemaDocuments@PSVIUni@xercesc_3_1@@2QBGB 1203bbf8     PSVIUni.obj
 0002:00012c20       ?fgSchemaErrorCode@PSVIUni@xercesc_3_1@@2QBGB 1203bc20     PSVIUni.obj
 0002:00012c48       ?fgSchemaInformation@PSVIUni@xercesc_3_1@@2QBGB 1203bc48     PSVIUni.obj
 0002:00012c74       ?fgSchemaNamespace@PSVIUni@xercesc_3_1@@2QBGB 1203bc74     PSVIUni.obj
 0002:00012c9c       ?fgSchemaNormalizedValue@PSVIUni@xercesc_3_1@@2QBGB 1203bc9c     PSVIUni.obj
 0002:00012cd0       ?fgSchemaSpecified@PSVIUni@xercesc_3_1@@2QBGB 1203bcd0     PSVIUni.obj
 0002:00012cf8       ?fgScope@PSVIUni@xercesc_3_1@@2QBGB 1203bcf8     PSVIUni.obj
 0002:00012d0c       ?fgSelector@PSVIUni@xercesc_3_1@@2QBGB 1203bd0c     PSVIUni.obj
 0002:00012d28       ?fgSimpleTypeDefinition@PSVIUni@xercesc_3_1@@2QBGB 1203bd28     PSVIUni.obj
 0002:00012d60       ?fgSubstitutionGroupAffiliation@PSVIUni@xercesc_3_1@@2QBGB 1203bd60     PSVIUni.obj
 0002:00012da8       ?fgSubstitutionGroupExclusions@PSVIUni@xercesc_3_1@@2QBGB 1203bda8     PSVIUni.obj
 0002:00012de8       ?fgSystemIdentifier@PSVIUni@xercesc_3_1@@2QBGB 1203bde8     PSVIUni.obj
 0002:00012e14       ?fgTargetNamespace@PSVIUni@xercesc_3_1@@2QBGB 1203be14     PSVIUni.obj
 0002:00012e3c       ?fgTerm@PSVIUni@xercesc_3_1@@2QBGB 1203be3c     PSVIUni.obj
 0002:00012e50       ?fgTypeDefinition@PSVIUni@xercesc_3_1@@2QBGB 1203be50     PSVIUni.obj
 0002:00012e78       ?fgUserInformation@PSVIUni@xercesc_3_1@@2QBGB 1203be78     PSVIUni.obj
 0002:00012ea0       ?fgValidationAttempted@PSVIUni@xercesc_3_1@@2QBGB 1203bea0     PSVIUni.obj
 0002:00012ed0       ?fgValidationContext@PSVIUni@xercesc_3_1@@2QBGB 1203bed0     PSVIUni.obj
 0002:00012efc       ?fgValidity@PSVIUni@xercesc_3_1@@2QBGB 1203befc     PSVIUni.obj
 0002:00012f18       ?fgValue@PSVIUni@xercesc_3_1@@2QBGB 1203bf18     PSVIUni.obj
 0002:00012f2c       ?fgValueConstraint@PSVIUni@xercesc_3_1@@2QBGB 1203bf2c     PSVIUni.obj
 0002:00012f54       ?fgVariety@PSVIUni@xercesc_3_1@@2QBGB 1203bf54     PSVIUni.obj
 0002:00012f6c       ?fgWildcard@PSVIUni@xercesc_3_1@@2QBGB 1203bf6c     PSVIUni.obj
 0002:00012f88       ?fgXpath@PSVIUni@xercesc_3_1@@2QBGB 1203bf88     PSVIUni.obj
 0002:00012f9c       ?fgAll@PSVIUni@xercesc_3_1@@2QBGB 1203bf9c     PSVIUni.obj
 0002:00012fa4       ?fgAny@PSVIUni@xercesc_3_1@@2QBGB 1203bfa4     PSVIUni.obj
 0002:00012fac       ?fgAppinfo@PSVIUni@xercesc_3_1@@2QBGB 1203bfac     PSVIUni.obj
 0002:00012fbc       ?fgAtomic@PSVIUni@xercesc_3_1@@2QBGB 1203bfbc     PSVIUni.obj
 0002:00012fcc       ?fgChoice@PSVIUni@xercesc_3_1@@2QBGB 1203bfcc     PSVIUni.obj
 0002:00012fdc       ?fgDefault@PSVIUni@xercesc_3_1@@2QBGB 1203bfdc     PSVIUni.obj
 0002:00012fec       ?fgDocumentation@PSVIUni@xercesc_3_1@@2QBGB 1203bfec     PSVIUni.obj
 0002:00013008       ?fgElementOnly@PSVIUni@xercesc_3_1@@2QBGB 1203c008     PSVIUni.obj
 0002:00013020       ?fgEmpty@PSVIUni@xercesc_3_1@@2QBGB 1203c020     PSVIUni.obj
 0002:0001302c       ?fgExtension@PSVIUni@xercesc_3_1@@2QBGB 1203c02c     PSVIUni.obj
 0002:00013040       ?fgFalse@PSVIUni@xercesc_3_1@@2QBGB 1203c040     PSVIUni.obj
 0002:0001304c       ?fgFull@PSVIUni@xercesc_3_1@@2QBGB 1203c04c     PSVIUni.obj
 0002:00013058       ?fgGlobal@PSVIUni@xercesc_3_1@@2QBGB 1203c058     PSVIUni.obj
 0002:00013068       ?fgInfoset@PSVIUni@xercesc_3_1@@2QBGB 1203c068     PSVIUni.obj
 0002:00013078       ?fgInvalid@PSVIUni@xercesc_3_1@@2QBGB 1203c078     PSVIUni.obj
 0002:00013088       ?fgKey@PSVIUni@xercesc_3_1@@2QBGB 1203c088     PSVIUni.obj
 0002:00013090       ?fgKeyref@PSVIUni@xercesc_3_1@@2QBGB 1203c090     PSVIUni.obj
 0002:000130a0       ?fgLax@PSVIUni@xercesc_3_1@@2QBGB 1203c0a0     PSVIUni.obj
 0002:000130a8       ?fgList@PSVIUni@xercesc_3_1@@2QBGB 1203c0a8     PSVIUni.obj
 0002:000130b4       ?fgLocal@PSVIUni@xercesc_3_1@@2QBGB 1203c0b4     PSVIUni.obj
 0002:000130c0       ?fgMixed@PSVIUni@xercesc_3_1@@2QBGB 1203c0c0     PSVIUni.obj
 0002:000130cc       ?fgNone@PSVIUni@xercesc_3_1@@2QBGB 1203c0cc     PSVIUni.obj
 0002:000130d8       ?fgNotKnown@PSVIUni@xercesc_3_1@@2QBGB 1203c0d8     PSVIUni.obj
 0002:000130ec       ?fgNsNamespace@PSVIUni@xercesc_3_1@@2QBGB 1203c0ec     PSVIUni.obj
 0002:00013104       ?fgOnePointZero@PSVIUni@xercesc_3_1@@2QBGB 1203c104     PSVIUni.obj
 0002:0001310c       ?fgPartial@PSVIUni@xercesc_3_1@@2QBGB 1203c10c     PSVIUni.obj
 0002:0001311c       ?fgRestrict@PSVIUni@xercesc_3_1@@2QBGB 1203c11c     PSVIUni.obj
 0002:00013130       ?fgRestriction@PSVIUni@xercesc_3_1@@2QBGB 1203c130     PSVIUni.obj
 0002:00013148       ?fgSchema@PSVIUni@xercesc_3_1@@2QBGB 1203c148     PSVIUni.obj
 0002:00013158       ?fgSequence@PSVIUni@xercesc_3_1@@2QBGB 1203c158     PSVIUni.obj
 0002:0001316c       ?fgSimple@PSVIUni@xercesc_3_1@@2QBGB 1203c16c     PSVIUni.obj
 0002:0001317c       ?fgSkip@PSVIUni@xercesc_3_1@@2QBGB 1203c17c     PSVIUni.obj
 0002:00013188       ?fgStrict@PSVIUni@xercesc_3_1@@2QBGB 1203c188     PSVIUni.obj
 0002:00013198       ?fgSubstitution@PSVIUni@xercesc_3_1@@2QBGB 1203c198     PSVIUni.obj
 0002:000131b4       ?fgTotal@PSVIUni@xercesc_3_1@@2QBGB 1203c1b4     PSVIUni.obj
 0002:000131c0       ?fgTrue@PSVIUni@xercesc_3_1@@2QBGB 1203c1c0     PSVIUni.obj
 0002:000131cc       ?fgUnbounded@PSVIUni@xercesc_3_1@@2QBGB 1203c1cc     PSVIUni.obj
 0002:000131e0       ?fgUnion@PSVIUni@xercesc_3_1@@2QBGB 1203c1e0     PSVIUni.obj
 0002:000131ec       ?fgUnique@PSVIUni@xercesc_3_1@@2QBGB 1203c1ec     PSVIUni.obj
 0002:000131fc       ?fgUnknown@PSVIUni@xercesc_3_1@@2QBGB 1203c1fc     PSVIUni.obj
 0002:0001320c       ?fgValid@PSVIUni@xercesc_3_1@@2QBGB 1203c20c     PSVIUni.obj
 0002:00013218       ?fgVCFixed@PSVIUni@xercesc_3_1@@2QBGB 1203c218     PSVIUni.obj
 0002:00013224       ?fgXMLChNull@PSVIUni@xercesc_3_1@@2QBGB 1203c224     PSVIUni.obj
 0002:00013228       ?fgAg@PSVIUni@xercesc_3_1@@2QBGB 1203c228     PSVIUni.obj
 0002:00013230       ?fgAnnot@PSVIUni@xercesc_3_1@@2QBGB 1203c230     PSVIUni.obj
 0002:0001323c       ?fgAttr@PSVIUni@xercesc_3_1@@2QBGB 1203c23c     PSVIUni.obj
 0002:00013248       ?fgAu@PSVIUni@xercesc_3_1@@2QBGB 1203c248     PSVIUni.obj
 0002:00013250       ?fgElt@PSVIUni@xercesc_3_1@@2QBGB 1203c250     PSVIUni.obj
 0002:00013258       ?fgIdc@PSVIUni@xercesc_3_1@@2QBGB 1203c258     PSVIUni.obj
 0002:00013260       ?fgMg@PSVIUni@xercesc_3_1@@2QBGB 1203c260     PSVIUni.obj
 0002:00013268       ?fgNot@PSVIUni@xercesc_3_1@@2QBGB 1203c268     PSVIUni.obj
 0002:00013270       ?fgType@PSVIUni@xercesc_3_1@@2QBGB 1203c270     PSVIUni.obj
 0002:0001327c       ?fgBounded@PSVIUni@xercesc_3_1@@2QBGB 1203c27c     PSVIUni.obj
 0002:00013294       ?fgCardinality@PSVIUni@xercesc_3_1@@2QBGB 1203c294     PSVIUni.obj
 0002:000132b4       ?fgEnumeration@PSVIUni@xercesc_3_1@@2QBGB 1203c2b4     PSVIUni.obj
 0002:000132d4       ?fgFractionDigits@PSVIUni@xercesc_3_1@@2QBGB 1203c2d4     PSVIUni.obj
 0002:000132fc       ?fgLength@PSVIUni@xercesc_3_1@@2QBGB 1203c2fc     PSVIUni.obj
 0002:00013314       ?fgMaxExclusive@PSVIUni@xercesc_3_1@@2QBGB 1203c314     PSVIUni.obj
 0002:00013338       ?fgMaxInclusive@PSVIUni@xercesc_3_1@@2QBGB 1203c338     PSVIUni.obj
 0002:0001335c       ?fgMaxLength@PSVIUni@xercesc_3_1@@2QBGB 1203c35c     PSVIUni.obj
 0002:00013378       ?fgMinExclusive@PSVIUni@xercesc_3_1@@2QBGB 1203c378     PSVIUni.obj
 0002:0001339c       ?fgMinInclusive@PSVIUni@xercesc_3_1@@2QBGB 1203c39c     PSVIUni.obj
 0002:000133c0       ?fgMinLength@PSVIUni@xercesc_3_1@@2QBGB 1203c3c0     PSVIUni.obj
 0002:000133dc       ?fgNumeric@PSVIUni@xercesc_3_1@@2QBGB 1203c3dc     PSVIUni.obj
 0002:000133f4       ?fgOrdered@PSVIUni@xercesc_3_1@@2QBGB 1203c3f4     PSVIUni.obj
 0002:0001340c       ?fgPattern@PSVIUni@xercesc_3_1@@2QBGB 1203c40c     PSVIUni.obj
 0002:00013424       ?fgTotalDigits@PSVIUni@xercesc_3_1@@2QBGB 1203c424     PSVIUni.obj
 0002:00013444       ?fgWhiteSpace@PSVIUni@xercesc_3_1@@2QBGB 1203c444     PSVIUni.obj
 0002:00013468       ?fgNamespaceInfoset@PSVIUni@xercesc_3_1@@2QBGB 1203c468     PSVIUni.obj
 0002:000134b4       ?fgXsi@PSVIUni@xercesc_3_1@@2QBGB 1203c4b4     PSVIUni.obj
 0002:000134c0       ?fgNamespaceInstance@PSVIUni@xercesc_3_1@@2QBGB 1203c4c0     PSVIUni.obj
 0002:00013514       ?fgPsv@PSVIUni@xercesc_3_1@@2QBGB 1203c514     PSVIUni.obj
 0002:00013520       ?fgNamespacePsvi@PSVIUni@xercesc_3_1@@2QBGB 1203c520     PSVIUni.obj
 0002:00013580       ?fgXml@PSVIUni@xercesc_3_1@@2QBGB 1203c580     PSVIUni.obj
 0002:00013588       ?fgNamespaceXmlSchema@PSVIUni@xercesc_3_1@@2QBGB 1203c588     PSVIUni.obj
 0002:00014d60       ?fgAnyString@XMLUni@xercesc_3_1@@2QBGB 1203dd60     XMLUni.obj
 0002:00014d68       ?fgAttListString@XMLUni@xercesc_3_1@@2QBGB 1203dd68     XMLUni.obj
 0002:00014d78       ?fgCommentString@XMLUni@xercesc_3_1@@2QBGB 1203dd78     XMLUni.obj
 0002:00014d84       ?fgCDATAString@XMLUni@xercesc_3_1@@2QBGB 1203dd84     XMLUni.obj
 0002:00014d90       ?fgDefaultString@XMLUni@xercesc_3_1@@2QBGB 1203dd90     XMLUni.obj
 0002:00014da4       ?fgDocTypeString@XMLUni@xercesc_3_1@@2QBGB 1203dda4     XMLUni.obj
 0002:00014db8       ?fgEBCDICEncodingString@XMLUni@xercesc_3_1@@2QBGB 1203ddb8     XMLUni.obj
 0002:00014dc8       ?fgElemString@XMLUni@xercesc_3_1@@2QBGB 1203ddc8     XMLUni.obj
 0002:00014dd8       ?fgEmptyString@XMLUni@xercesc_3_1@@2QBGB 1203ddd8     XMLUni.obj
 0002:00014de4       ?fgEncodingString@XMLUni@xercesc_3_1@@2QBGB 1203dde4     XMLUni.obj
 0002:00014df8       ?fgEntitString@XMLUni@xercesc_3_1@@2QBGB 1203ddf8     XMLUni.obj
 0002:00014e04       ?fgEntityString@XMLUni@xercesc_3_1@@2QBGB 1203de04     XMLUni.obj
 0002:00014e14       ?fgEntitiesString@XMLUni@xercesc_3_1@@2QBGB 1203de14     XMLUni.obj
 0002:00014e28       ?fgEnumerationString@XMLUni@xercesc_3_1@@2QBGB 1203de28     XMLUni.obj
 0002:00014e40       ?fgExceptDomain@XMLUni@xercesc_3_1@@2QBGB 1203de40     XMLUni.obj
 0002:00014e98       ?fgFixedString@XMLUni@xercesc_3_1@@2QBGB 1203de98     XMLUni.obj
 0002:00014ea8       ?fgIBM037EncodingString@XMLUni@xercesc_3_1@@2QBGB 1203dea8     XMLUni.obj
 0002:00014ec4       ?fgIBM037EncodingString2@XMLUni@xercesc_3_1@@2QBGB 1203dec4     XMLUni.obj
 0002:00014ed4       ?fgIBM1047EncodingString@XMLUni@xercesc_3_1@@2QBGB 1203ded4     XMLUni.obj
 0002:00014ee4       ?fgIBM1047EncodingString2@XMLUni@xercesc_3_1@@2QBGB 1203dee4     XMLUni.obj
 0002:00014ef8       ?fgIBM1140EncodingString@XMLUni@xercesc_3_1@@2QBGB 1203def8     XMLUni.obj
 0002:00014f08       ?fgIBM1140EncodingString2@XMLUni@xercesc_3_1@@2QBGB 1203df08     XMLUni.obj
 0002:00014f1c       ?fgIBM1140EncodingString3@XMLUni@xercesc_3_1@@2QBGB 1203df1c     XMLUni.obj
 0002:00014f34       ?fgIBM1140EncodingString4@XMLUni@xercesc_3_1@@2QBGB 1203df34     XMLUni.obj
 0002:00014f44       ?fgIESString@XMLUni@xercesc_3_1@@2QBGB 1203df44     XMLUni.obj
 0002:00014f4c       ?fgIDString@XMLUni@xercesc_3_1@@2QBGB 1203df4c     XMLUni.obj
 0002:00014f54       ?fgIDRefString@XMLUni@xercesc_3_1@@2QBGB 1203df54     XMLUni.obj
 0002:00014f60       ?fgIDRefsString@XMLUni@xercesc_3_1@@2QBGB 1203df60     XMLUni.obj
 0002:00014f70       ?fgImpliedString@XMLUni@xercesc_3_1@@2QBGB 1203df70     XMLUni.obj
 0002:00014f84       ?fgIgnoreString@XMLUni@xercesc_3_1@@2QBGB 1203df84     XMLUni.obj
 0002:00014f94       ?fgIncludeString@XMLUni@xercesc_3_1@@2QBGB 1203df94     XMLUni.obj
 0002:00014fa4       ?fgISO88591EncodingString@XMLUni@xercesc_3_1@@2QBGB 1203dfa4     XMLUni.obj
 0002:00014fb8       ?fgISO88591EncodingString2@XMLUni@xercesc_3_1@@2QBGB 1203dfb8     XMLUni.obj
 0002:00014fd0       ?fgISO88591EncodingString3@XMLUni@xercesc_3_1@@2QBGB 1203dfd0     XMLUni.obj
 0002:00014fe8       ?fgISO88591EncodingString4@XMLUni@xercesc_3_1@@2QBGB 1203dfe8     XMLUni.obj
 0002:00014ff8       ?fgISO88591EncodingString5@XMLUni@xercesc_3_1@@2QBGB 1203dff8     XMLUni.obj
 0002:00015008       ?fgISO88591EncodingString6@XMLUni@xercesc_3_1@@2QBGB 1203e008     XMLUni.obj
 0002:00015018       ?fgISO88591EncodingString7@XMLUni@xercesc_3_1@@2QBGB 1203e018     XMLUni.obj
 0002:00015028       ?fgISO88591EncodingString8@XMLUni@xercesc_3_1@@2QBGB 1203e028     XMLUni.obj
 0002:00015038       ?fgISO88591EncodingString9@XMLUni@xercesc_3_1@@2QBGB 1203e038     XMLUni.obj
 0002:00015044       ?fgISO88591EncodingString10@XMLUni@xercesc_3_1@@2QBGB 1203e044     XMLUni.obj
 0002:0001505c       ?fgISO88591EncodingString11@XMLUni@xercesc_3_1@@2QBGB 1203e05c     XMLUni.obj
 0002:00015074       ?fgISO88591EncodingString12@XMLUni@xercesc_3_1@@2QBGB 1203e074     XMLUni.obj
 0002:0001507c       ?fgLocalHostString@XMLUni@xercesc_3_1@@2QBGB 1203e07c     XMLUni.obj
 0002:00015090       ?fgNoString@XMLUni@xercesc_3_1@@2QBGB 1203e090     XMLUni.obj
 0002:00015098       ?fgNotationString@XMLUni@xercesc_3_1@@2QBGB 1203e098     XMLUni.obj
 0002:000150ac       ?fgNDATAString@XMLUni@xercesc_3_1@@2QBGB 1203e0ac     XMLUni.obj
 0002:000150b8       ?fgNmTokenString@XMLUni@xercesc_3_1@@2QBGB 1203e0b8     XMLUni.obj
 0002:000150c8       ?fgNmTokensString@XMLUni@xercesc_3_1@@2QBGB 1203e0c8     XMLUni.obj
 0002:000150dc       ?fgPCDATAString@XMLUni@xercesc_3_1@@2QBGB 1203e0dc     XMLUni.obj
 0002:000150ec       ?fgPIString@XMLUni@xercesc_3_1@@2QBGB 1203e0ec     XMLUni.obj
 0002:000150f4       ?fgPubIDString@XMLUni@xercesc_3_1@@2QBGB 1203e0f4     XMLUni.obj
 0002:00015104       ?fgRefString@XMLUni@xercesc_3_1@@2QBGB 1203e104     XMLUni.obj
 0002:0001510c       ?fgRequiredString@XMLUni@xercesc_3_1@@2QBGB 1203e10c     XMLUni.obj
 0002:00015120       ?fgStandaloneString@XMLUni@xercesc_3_1@@2QBGB 1203e120     XMLUni.obj
 0002:00015138       ?fgVersion1@XMLUni@xercesc_3_1@@2QBGB 1203e138     XMLUni.obj
 0002:00015140       ?fgVersion1_0@XMLUni@xercesc_3_1@@2QBGB 1203e140     XMLUni.obj
 0002:00015148       ?fgVersion1_1@XMLUni@xercesc_3_1@@2QBGB 1203e148     XMLUni.obj
 0002:00015150       ?fgSysIDString@XMLUni@xercesc_3_1@@2QBGB 1203e150     XMLUni.obj
 0002:00015160       ?fgUnknownURIName@XMLUni@xercesc_3_1@@2QBGB 1203e160     XMLUni.obj
 0002:000151a0       ?fgUCS4EncodingString@XMLUni@xercesc_3_1@@2QBGB 1203e1a0     XMLUni.obj
 0002:000151ac       ?fgUCS4EncodingString2@XMLUni@xercesc_3_1@@2QBGB 1203e1ac     XMLUni.obj
 0002:000151b8       ?fgUCS4EncodingString3@XMLUni@xercesc_3_1@@2QBGB 1203e1b8     XMLUni.obj
 0002:000151c4       ?fgUCS4EncodingString4@XMLUni@xercesc_3_1@@2QBGB 1203e1c4     XMLUni.obj
 0002:000151d4       ?fgUCS4EncodingString5@XMLUni@xercesc_3_1@@2QBGB 1203e1d4     XMLUni.obj
 0002:000151f4       ?fgUCS4BEncodingString@XMLUni@xercesc_3_1@@2QBGB 1203e1f4     XMLUni.obj
 0002:0001520c       ?fgUCS4BEncodingString2@XMLUni@xercesc_3_1@@2QBGB 1203e20c     XMLUni.obj
 0002:0001521c       ?fgUCS4LEncodingString@XMLUni@xercesc_3_1@@2QBGB 1203e21c     XMLUni.obj
 0002:00015234       ?fgUCS4LEncodingString2@XMLUni@xercesc_3_1@@2QBGB 1203e234     XMLUni.obj
 0002:00015244       ?fgUSASCIIEncodingString@XMLUni@xercesc_3_1@@2QBGB 1203e244     XMLUni.obj
 0002:00015258       ?fgUSASCIIEncodingString2@XMLUni@xercesc_3_1@@2QBGB 1203e258     XMLUni.obj
 0002:00015268       ?fgUSASCIIEncodingString3@XMLUni@xercesc_3_1@@2QBGB 1203e268     XMLUni.obj
 0002:00015274       ?fgUSASCIIEncodingString4@XMLUni@xercesc_3_1@@2QBGB 1203e274     XMLUni.obj
 0002:00015288       ?fgUTF8EncodingString@XMLUni@xercesc_3_1@@2QBGB 1203e288     XMLUni.obj
 0002:00015294       ?fgUTF8EncodingString2@XMLUni@xercesc_3_1@@2QBGB 1203e294     XMLUni.obj
 0002:000152a0       ?fgUTF16EncodingString@XMLUni@xercesc_3_1@@2QBGB 1203e2a0     XMLUni.obj
 0002:000152b0       ?fgUTF16EncodingString2@XMLUni@xercesc_3_1@@2QBGB 1203e2b0     XMLUni.obj
 0002:000152bc       ?fgUTF16EncodingString3@XMLUni@xercesc_3_1@@2QBGB 1203e2bc     XMLUni.obj
 0002:000152cc       ?fgUTF16EncodingString4@XMLUni@xercesc_3_1@@2QBGB 1203e2cc     XMLUni.obj
 0002:000152e0       ?fgUTF16EncodingString5@XMLUni@xercesc_3_1@@2QBGB 1203e2e0     XMLUni.obj
 0002:000152ec       ?fgUTF16EncodingString6@XMLUni@xercesc_3_1@@2QBGB 1203e2ec     XMLUni.obj
 0002:000152f8       ?fgUTF16EncodingString7@XMLUni@xercesc_3_1@@2QBGB 1203e2f8     XMLUni.obj
 0002:00015318       ?fgUTF16BEncodingString@XMLUni@xercesc_3_1@@2QBGB 1203e318     XMLUni.obj
 0002:00015330       ?fgUTF16BEncodingString2@XMLUni@xercesc_3_1@@2QBGB 1203e330     XMLUni.obj
 0002:00015344       ?fgUTF16LEncodingString@XMLUni@xercesc_3_1@@2QBGB 1203e344     XMLUni.obj
 0002:0001535c       ?fgUTF16LEncodingString2@XMLUni@xercesc_3_1@@2QBGB 1203e35c     XMLUni.obj
 0002:00015370       ?fgVersionString@XMLUni@xercesc_3_1@@2QBGB 1203e370     XMLUni.obj
 0002:00015380       ?fgValidityDomain@XMLUni@xercesc_3_1@@2QBGB 1203e380     XMLUni.obj
 0002:000153d8       ?fgWin1252EncodingString@XMLUni@xercesc_3_1@@2QBGB 1203e3d8     XMLUni.obj
 0002:000153f4       ?fgXMLChEncodingString@XMLUni@xercesc_3_1@@2QBGB 1203e3f4     XMLUni.obj
 0002:00015410       ?fgXMLString@XMLUni@xercesc_3_1@@2QBGB 1203e410     XMLUni.obj
 0002:00015418       ?fgXMLStringSpace@XMLUni@xercesc_3_1@@2QBGB 1203e418     XMLUni.obj
 0002:00015424       ?fgXMLStringHTab@XMLUni@xercesc_3_1@@2QBGB 1203e424     XMLUni.obj
 0002:00015430       ?fgXMLStringCR@XMLUni@xercesc_3_1@@2QBGB 1203e430     XMLUni.obj
 0002:0001543c       ?fgXMLStringLF@XMLUni@xercesc_3_1@@2QBGB 1203e43c     XMLUni.obj
 0002:00015448       ?fgXMLStringSpaceU@XMLUni@xercesc_3_1@@2QBGB 1203e448     XMLUni.obj
 0002:00015454       ?fgXMLStringHTabU@XMLUni@xercesc_3_1@@2QBGB 1203e454     XMLUni.obj
 0002:00015460       ?fgXMLStringCRU@XMLUni@xercesc_3_1@@2QBGB 1203e460     XMLUni.obj
 0002:0001546c       ?fgXMLStringLFU@XMLUni@xercesc_3_1@@2QBGB 1203e46c     XMLUni.obj
 0002:00015478       ?fgXMLDeclString@XMLUni@xercesc_3_1@@2QBGB 1203e478     XMLUni.obj
 0002:00015484       ?fgXMLDeclStringSpace@XMLUni@xercesc_3_1@@2QBGB 1203e484     XMLUni.obj
 0002:00015494       ?fgXMLDeclStringHTab@XMLUni@xercesc_3_1@@2QBGB 1203e494     XMLUni.obj
 0002:000154a4       ?fgXMLDeclStringLF@XMLUni@xercesc_3_1@@2QBGB 1203e4a4     XMLUni.obj
 0002:000154b4       ?fgXMLDeclStringCR@XMLUni@xercesc_3_1@@2QBGB 1203e4b4     XMLUni.obj
 0002:000154c4       ?fgXMLDeclStringSpaceU@XMLUni@xercesc_3_1@@2QBGB 1203e4c4     XMLUni.obj
 0002:000154d4       ?fgXMLDeclStringHTabU@XMLUni@xercesc_3_1@@2QBGB 1203e4d4     XMLUni.obj
 0002:000154e4       ?fgXMLDeclStringLFU@XMLUni@xercesc_3_1@@2QBGB 1203e4e4     XMLUni.obj
 0002:000154f4       ?fgXMLDeclStringCRU@XMLUni@xercesc_3_1@@2QBGB 1203e4f4     XMLUni.obj
 0002:00015504       ?fgXMLNSString@XMLUni@xercesc_3_1@@2QBGB 1203e504     XMLUni.obj
 0002:00015510       ?fgXMLNSColonString@XMLUni@xercesc_3_1@@2QBGB 1203e510     XMLUni.obj
 0002:00015520       ?fgXMLNSURIName@XMLUni@xercesc_3_1@@2QBGB 1203e520     XMLUni.obj
 0002:00015560       ?fgXMLErrDomain@XMLUni@xercesc_3_1@@2QBGB 1203e560     XMLUni.obj
 0002:000155b8       ?fgXMLURIName@XMLUni@xercesc_3_1@@2QBGB 1203e5b8     XMLUni.obj
 0002:00015604       ?fgInfosetURIName@XMLUni@xercesc_3_1@@2QBGB 1203e604     XMLUni.obj
 0002:00015640       ?fgYesString@XMLUni@xercesc_3_1@@2QBGB 1203e640     XMLUni.obj
 0002:00015648       ?fgZeroLenString@XMLUni@xercesc_3_1@@2QBGB 1203e648     XMLUni.obj
 0002:0001564c       ?fgDTDEntityString@XMLUni@xercesc_3_1@@2QBGB 1203e64c     XMLUni.obj
 0002:00015658       ?fgAmp@XMLUni@xercesc_3_1@@2QBGB 1203e658     XMLUni.obj
 0002:00015660       ?fgLT@XMLUni@xercesc_3_1@@2QBGB 1203e660     XMLUni.obj
 0002:00015668       ?fgGT@XMLUni@xercesc_3_1@@2QBGB 1203e668     XMLUni.obj
 0002:00015670       ?fgQuot@XMLUni@xercesc_3_1@@2QBGB 1203e670     XMLUni.obj
 0002:0001567c       ?fgApos@XMLUni@xercesc_3_1@@2QBGB 1203e67c     XMLUni.obj
 0002:00015688       ?fgWFXMLScanner@XMLUni@xercesc_3_1@@2QBGB 1203e688     XMLUni.obj
 0002:000156a4       ?fgIGXMLScanner@XMLUni@xercesc_3_1@@2QBGB 1203e6a4     XMLUni.obj
 0002:000156c0       ?fgSGXMLScanner@XMLUni@xercesc_3_1@@2QBGB 1203e6c0     XMLUni.obj
 0002:000156dc       ?fgDGXMLScanner@XMLUni@xercesc_3_1@@2QBGB 1203e6dc     XMLUni.obj
 0002:000156f8       ?fgXSAXMLScanner@XMLUni@xercesc_3_1@@2QBGB 1203e6f8     XMLUni.obj
 0002:00015714       ?fgCDataStart@XMLUni@xercesc_3_1@@2QBGB 1203e714     XMLUni.obj
 0002:00015728       ?fgCDataEnd@XMLUni@xercesc_3_1@@2QBGB 1203e728     XMLUni.obj
 0002:00015730       ?fgArrayIndexOutOfBoundsException_Name@XMLUni@xercesc_3_1@@2QBGB 1203e730     XMLUni.obj
 0002:00015770       ?fgEmptyStackException_Name@XMLUni@xercesc_3_1@@2QBGB 1203e770     XMLUni.obj
 0002:00015798       ?fgIllegalArgumentException_Name@XMLUni@xercesc_3_1@@2QBGB 1203e798     XMLUni.obj
 0002:000157cc       ?fgInvalidCastException_Name@XMLUni@xercesc_3_1@@2QBGB 1203e7cc     XMLUni.obj
 0002:000157f8       ?fgIOException_Name@XMLUni@xercesc_3_1@@2QBGB 1203e7f8     XMLUni.obj
 0002:00015810       ?fgNoSuchElementException_Name@XMLUni@xercesc_3_1@@2QBGB 1203e810     XMLUni.obj
 0002:00015840       ?fgNullPointerException_Name@XMLUni@xercesc_3_1@@2QBGB 1203e840     XMLUni.obj
 0002:0001586c       ?fgXMLPlatformUtilsException_Name@XMLUni@xercesc_3_1@@2QBGB 1203e86c     XMLUni.obj
 0002:00015898       ?fgRuntimeException_Name@XMLUni@xercesc_3_1@@2QBGB 1203e898     XMLUni.obj
 0002:000158bc       ?fgTranscodingException_Name@XMLUni@xercesc_3_1@@2QBGB 1203e8bc     XMLUni.obj
 0002:000158e8       ?fgUnexpectedEOFException_Name@XMLUni@xercesc_3_1@@2QBGB 1203e8e8     XMLUni.obj
 0002:00015918       ?fgUnsupportedEncodingException_Name@XMLUni@xercesc_3_1@@2QBGB 1203e918     XMLUni.obj
 0002:00015954       ?fgUTFDataFormatException_Name@XMLUni@xercesc_3_1@@2QBGB 1203e954     XMLUni.obj
 0002:00015984       ?fgNetAccessorException_Name@XMLUni@xercesc_3_1@@2QBGB 1203e984     XMLUni.obj
 0002:000159b0       ?fgMalformedURLException_Name@XMLUni@xercesc_3_1@@2QBGB 1203e9b0     XMLUni.obj
 0002:000159dc       ?fgNumberFormatException_Name@XMLUni@xercesc_3_1@@2QBGB 1203e9dc     XMLUni.obj
 0002:00015a08       ?fgParseException_Name@XMLUni@xercesc_3_1@@2QBGB 1203ea08     XMLUni.obj
 0002:00015a28       ?fgInvalidDatatypeFacetException_Name@XMLUni@xercesc_3_1@@2QBGB 1203ea28     XMLUni.obj
 0002:00015a64       ?fgInvalidDatatypeValueException_Name@XMLUni@xercesc_3_1@@2QBGB 1203ea64     XMLUni.obj
 0002:00015aa0       ?fgSchemaDateTimeException_Name@XMLUni@xercesc_3_1@@2QBGB 1203eaa0     XMLUni.obj
 0002:00015ad0       ?fgXPathException_Name@XMLUni@xercesc_3_1@@2QBGB 1203ead0     XMLUni.obj
 0002:00015af0       ?fgXSerializationException_Name@XMLUni@xercesc_3_1@@2QBGB 1203eaf0     XMLUni.obj
 0002:00015b20       ?fgXMLXIncludeException_Name@XMLUni@xercesc_3_1@@2QBGB 1203eb20     XMLUni.obj
 0002:00015b4c       ?fgNegINFString@XMLUni@xercesc_3_1@@2QBGB 1203eb4c     XMLUni.obj
 0002:00015b58       ?fgNegZeroString@XMLUni@xercesc_3_1@@2QBGB 1203eb58     XMLUni.obj
 0002:00015b60       ?fgPosZeroString@XMLUni@xercesc_3_1@@2QBGB 1203eb60     XMLUni.obj
 0002:00015b64       ?fgPosINFString@XMLUni@xercesc_3_1@@2QBGB 1203eb64     XMLUni.obj
 0002:00015b6c       ?fgNaNString@XMLUni@xercesc_3_1@@2QBGB 1203eb6c     XMLUni.obj
 0002:00015b74       ?fgEString@XMLUni@xercesc_3_1@@2QBGB 1203eb74     XMLUni.obj
 0002:00015b78       ?fgZeroString@XMLUni@xercesc_3_1@@2QBGB 1203eb78     XMLUni.obj
 0002:00015b7c       ?fgNullString@XMLUni@xercesc_3_1@@2QBGB 1203eb7c     XMLUni.obj
 0002:00015b88       ?fgSAX2CoreValidation@XMLUni@xercesc_3_1@@2QBGB 1203eb88     XMLUni.obj
 0002:00015bd8       ?fgSAX2CoreNameSpaces@XMLUni@xercesc_3_1@@2QBGB 1203ebd8     XMLUni.obj
 0002:00015c28       ?fgSAX2CoreNameSpacePrefixes@XMLUni@xercesc_3_1@@2QBGB 1203ec28     XMLUni.obj
 0002:00015c88       ?fgXercesDynamic@XMLUni@xercesc_3_1@@2QBGB 1203ec88     XMLUni.obj
 0002:00015cf0       ?fgXercesSchema@XMLUni@xercesc_3_1@@2QBGB 1203ecf0     XMLUni.obj
 0002:00015d58       ?fgXercesSchemaFullChecking@XMLUni@xercesc_3_1@@2QBGB 1203ed58     XMLUni.obj
 0002:00015dd8       ?fgXercesLoadSchema@XMLUni@xercesc_3_1@@2QBGB 1203edd8     XMLUni.obj
 0002:00015e48       ?fgXercesIdentityConstraintChecking@XMLUni@xercesc_3_1@@2QBGB 1203ee48     XMLUni.obj
 0002:00015ed8       ?fgXercesLoadExternalDTD@XMLUni@xercesc_3_1@@2QBGB 1203eed8     XMLUni.obj
 0002:00015f58       ?fgXercesContinueAfterFatalError@XMLUni@xercesc_3_1@@2QBGB 1203ef58     XMLUni.obj
 0002:00015fd0       ?fgXercesValidationErrorAsFatal@XMLUni@xercesc_3_1@@2QBGB 1203efd0     XMLUni.obj
 0002:00016048       ?fgXercesCalculateSrcOfs@XMLUni@xercesc_3_1@@2QBGB 1203f048     XMLUni.obj
 0002:000160b0       ?fgXercesStandardUriConformant@XMLUni@xercesc_3_1@@2QBGB 1203f0b0     XMLUni.obj
 0002:00016120       ?fgXercesDOMHasPSVIInfo@XMLUni@xercesc_3_1@@2QBGB 1203f120     XMLUni.obj
 0002:00016188       ?fgXercesGenerateSyntheticAnnotations@XMLUni@xercesc_3_1@@2QBGB 1203f188     XMLUni.obj
 0002:00016208       ?fgXercesValidateAnnotations@XMLUni@xercesc_3_1@@2QBGB 1203f208     XMLUni.obj
 0002:00016270       ?fgXercesSchemaExternalSchemaLocation@XMLUni@xercesc_3_1@@2QBGB 1203f270     XMLUni.obj
 0002:000162f0       ?fgXercesSecurityManager@XMLUni@xercesc_3_1@@2QBGB 1203f2f0     XMLUni.obj
 0002:00016358       ?fgXercesSchemaExternalNoNameSpaceSchemaLocation@XMLUni@xercesc_3_1@@2QBGB 1203f358     XMLUni.obj
 0002:000163f0       ?fgXercesScannerName@XMLUni@xercesc_3_1@@2QBGB 1203f3f0     XMLUni.obj
 0002:00016450       ?fgXercesParserUseDocumentFromImplementation@XMLUni@xercesc_3_1@@2QBGB 1203f450     XMLUni.obj
 0002:000164d8       ?fgXercesEntityResolver@XMLUni@xercesc_3_1@@2QBGB 1203f4d8     XMLUni.obj
 0002:00016538       ?fgXercesUserAdoptsDOMDocument@XMLUni@xercesc_3_1@@2QBGB 1203f538     XMLUni.obj
 0002:000165b0       ?fgXercesCacheGrammarFromParse@XMLUni@xercesc_3_1@@2QBGB 1203f5b0     XMLUni.obj
 0002:00016638       ?fgXercesUseCachedGrammarInParse@XMLUni@xercesc_3_1@@2QBGB 1203f638     XMLUni.obj
 0002:000166c0       ?fgXercesIgnoreCachedDTD@XMLUni@xercesc_3_1@@2QBGB 1203f6c0     XMLUni.obj
 0002:00016738       ?fgXercesIgnoreAnnotations@XMLUni@xercesc_3_1@@2QBGB 1203f738     XMLUni.obj
 0002:000167b0       ?fgXercesDisableDefaultEntityResolution@XMLUni@xercesc_3_1@@2QBGB 1203f7b0     XMLUni.obj
 0002:00016838       ?fgXercesSkipDTDValidation@XMLUni@xercesc_3_1@@2QBGB 1203f838     XMLUni.obj
 0002:000168c8       ?fgXercesHandleMultipleImports@XMLUni@xercesc_3_1@@2QBGB 1203f8c8     XMLUni.obj
 0002:00016960       ?fgXercesLowWaterMark@XMLUni@xercesc_3_1@@2QBGB 1203f960     XMLUni.obj
 0002:000169c0       ?fgDOMCanonicalForm@XMLUni@xercesc_3_1@@2QBGB 1203f9c0     XMLUni.obj
 0002:000169e0       ?fgDOMCDATASections@XMLUni@xercesc_3_1@@2QBGB 1203f9e0     XMLUni.obj
 0002:00016a00       ?fgDOMComments@XMLUni@xercesc_3_1@@2QBGB 1203fa00     XMLUni.obj
 0002:00016a14       ?fgDOMCharsetOverridesXMLEncoding@XMLUni@xercesc_3_1@@2QBGB 1203fa14     XMLUni.obj
 0002:00016a54       ?fgDOMCheckCharacterNormalization@XMLUni@xercesc_3_1@@2QBGB 1203fa54     XMLUni.obj
 0002:00016a90       ?fgDOMDatatypeNormalization@XMLUni@xercesc_3_1@@2QBGB 1203fa90     XMLUni.obj
 0002:00016ac0       ?fgDOMDisallowDoctype@XMLUni@xercesc_3_1@@2QBGB 1203fac0     XMLUni.obj
 0002:00016ae0       ?fgDOMElementContentWhitespace@XMLUni@xercesc_3_1@@2QBGB 1203fae0     XMLUni.obj
 0002:00016b18       ?fgDOMEntities@XMLUni@xercesc_3_1@@2QBGB 1203fb18     XMLUni.obj
 0002:00016b2c       ?fgDOMErrorHandler@XMLUni@xercesc_3_1@@2QBGB 1203fb2c     XMLUni.obj
 0002:00016b48       ?fgDOMInfoset@XMLUni@xercesc_3_1@@2QBGB 1203fb48     XMLUni.obj
 0002:00016b58       ?fgDOMIgnoreUnknownCharacterDenormalization@XMLUni@xercesc_3_1@@2QBGB 1203fb58     XMLUni.obj
 0002:00016bac       ?fgDOMNamespaces@XMLUni@xercesc_3_1@@2QBGB 1203fbac     XMLUni.obj
 0002:00016bc4       ?fgDOMNamespaceDeclarations@XMLUni@xercesc_3_1@@2QBGB 1203fbc4     XMLUni.obj
 0002:00016bf4       ?fgDOMNormalizeCharacters@XMLUni@xercesc_3_1@@2QBGB 1203fbf4     XMLUni.obj
 0002:00016c20       ?fgDOMResourceResolver@XMLUni@xercesc_3_1@@2QBGB 1203fc20     XMLUni.obj
 0002:00016c44       ?fgDOMSchemaLocation@XMLUni@xercesc_3_1@@2QBGB 1203fc44     XMLUni.obj
 0002:00016c64       ?fgDOMSchemaType@XMLUni@xercesc_3_1@@2QBGB 1203fc64     XMLUni.obj
 0002:00016c7c       ?fgDOMSplitCDATASections@XMLUni@xercesc_3_1@@2QBGB 1203fc7c     XMLUni.obj
 0002:00016ca8       ?fgDOMSupportedMediatypesOnly@XMLUni@xercesc_3_1@@2QBGB 1203fca8     XMLUni.obj
 0002:00016ce0       ?fgDOMValidate@XMLUni@xercesc_3_1@@2QBGB 1203fce0     XMLUni.obj
 0002:00016cf4       ?fgDOMValidateIfSchema@XMLUni@xercesc_3_1@@2QBGB 1203fcf4     XMLUni.obj
 0002:00016d1c       ?fgDOMWellFormed@XMLUni@xercesc_3_1@@2QBGB 1203fd1c     XMLUni.obj
 0002:00016d38       ?fgDOMXMLSchemaType@XMLUni@xercesc_3_1@@2QBGB 1203fd38     XMLUni.obj
 0002:00016d7c       ?fgDOMDTDType@XMLUni@xercesc_3_1@@2QBGB 1203fd7c     XMLUni.obj
 0002:00016db8       ?fgDOMWRTCanonicalForm@XMLUni@xercesc_3_1@@2QBGB 1203fdb8     XMLUni.obj
 0002:00016dd8       ?fgDOMWRTDiscardDefaultContent@XMLUni@xercesc_3_1@@2QBGB 1203fdd8     XMLUni.obj
 0002:00016e0c       ?fgDOMWRTEntities@XMLUni@xercesc_3_1@@2QBGB 1203fe0c     XMLUni.obj
 0002:00016e20       ?fgDOMWRTFormatPrettyPrint@XMLUni@xercesc_3_1@@2QBGB 1203fe20     XMLUni.obj
 0002:00016e48       ?fgDOMWRTNormalizeCharacters@XMLUni@xercesc_3_1@@2QBGB 1203fe48     XMLUni.obj
 0002:00016e74       ?fgDOMWRTSplitCdataSections@XMLUni@xercesc_3_1@@2QBGB 1203fe74     XMLUni.obj
 0002:00016ea0       ?fgDOMWRTValidation@XMLUni@xercesc_3_1@@2QBGB 1203fea0     XMLUni.obj
 0002:00016eb8       ?fgDOMWRTWhitespaceInElementContent@XMLUni@xercesc_3_1@@2QBGB 1203feb8     XMLUni.obj
 0002:00016ef8       ?fgDOMWRTBOM@XMLUni@xercesc_3_1@@2QBGB 1203fef8     XMLUni.obj
 0002:00016f60       ?fgDOMXMLDeclaration@XMLUni@xercesc_3_1@@2QBGB 1203ff60     XMLUni.obj
 0002:00016f80       ?fgDOMWRTXercesPrettyPrint@XMLUni@xercesc_3_1@@2QBGB 1203ff80     XMLUni.obj
 0002:00017010       ?fgXercescInterfacePSVITypeInfo@XMLUni@xercesc_3_1@@2QBGB 12040010     XMLUni.obj
 0002:00017030       ?fgXercescInterfaceDOMDocumentTypeImpl@XMLUni@xercesc_3_1@@2QBGB 12040030     XMLUni.obj
 0002:00017058       ?fgXercescInterfaceDOMDocumentImpl@XMLUni@xercesc_3_1@@2QBGB 12040058     XMLUni.obj
 0002:00017078       ?fgXercescInterfaceDOMMemoryManager@XMLUni@xercesc_3_1@@2QBGB 12040078     XMLUni.obj
 0002:0001709c       ?fgXercescDefaultLocale@XMLUni@xercesc_3_1@@2QBDB 1204009c     XMLUni.obj
 0002:000170a8       ?fgXMLDOMMsgDomain@XMLUni@xercesc_3_1@@2QBGB 120400a8     XMLUni.obj
 0002:000170fc       ?fgDefErrMsg@XMLUni@xercesc_3_1@@2QBGB 120400fc     XMLUni.obj
 0002:0001712c       ?fgValueZero@XMLUni@xercesc_3_1@@2QBGB 1204012c     XMLUni.obj
 0002:00017130       ?fgNegOne@XMLUni@xercesc_3_1@@2QBGB 12040130     XMLUni.obj
 0002:00017138       ?fgValueOne@XMLUni@xercesc_3_1@@2QBGB 12040138     XMLUni.obj
 0002:0001713c       ?fgLongMaxInc@XMLUni@xercesc_3_1@@2QBGB 1204013c     XMLUni.obj
 0002:00017164       ?fgLongMinInc@XMLUni@xercesc_3_1@@2QBGB 12040164     XMLUni.obj
 0002:00017190       ?fgIntMaxInc@XMLUni@xercesc_3_1@@2QBGB 12040190     XMLUni.obj
 0002:000171a8       ?fgIntMinInc@XMLUni@xercesc_3_1@@2QBGB 120401a8     XMLUni.obj
 0002:000171c0       ?fgShortMaxInc@XMLUni@xercesc_3_1@@2QBGB 120401c0     XMLUni.obj
 0002:000171cc       ?fgShortMinInc@XMLUni@xercesc_3_1@@2QBGB 120401cc     XMLUni.obj
 0002:000171dc       ?fgByteMaxInc@XMLUni@xercesc_3_1@@2QBGB 120401dc     XMLUni.obj
 0002:000171e4       ?fgByteMinInc@XMLUni@xercesc_3_1@@2QBGB 120401e4     XMLUni.obj
 0002:000171f0       ?fgULongMaxInc@XMLUni@xercesc_3_1@@2QBGB 120401f0     XMLUni.obj
 0002:0001721c       ?fgUIntMaxInc@XMLUni@xercesc_3_1@@2QBGB 1204021c     XMLUni.obj
 0002:00017234       ?fgUShortMaxInc@XMLUni@xercesc_3_1@@2QBGB 12040234     XMLUni.obj
 0002:00017240       ?fgUByteMaxInc@XMLUni@xercesc_3_1@@2QBGB 12040240     XMLUni.obj
 0002:00017248       ?fgLangPattern@XMLUni@xercesc_3_1@@2QBGB 12040248     XMLUni.obj
 0002:00017290       ?fgBooleanValueSpace@XMLUni@xercesc_3_1@@2QAY07$$CBGA 12040290     XMLUni.obj
 0002:000172d0       ?fgXercesDoXInclude@XMLUni@xercesc_3_1@@2QBGB 120402d0     XMLUni.obj
 0002:000172dc       ?fgBooleanValueSpaceArraySize@XMLUni@xercesc_3_1@@2KB 120402dc     XMLUni.obj
 0002:000172f8       ?RESERVED_CHARACTERS@XMLUri@xercesc_3_1@@0QBGB 120402f8     XMLUri.obj
 0002:00017314       ?MARK_CHARACTERS@XMLUri@xercesc_3_1@@0QBGB 12040314     XMLUri.obj
 0002:00017328       ?MARK_OR_RESERVED_CHARACTERS@XMLUri@xercesc_3_1@@0QBGB 12040328     XMLUri.obj
 0002:00017354       ?SCHEME_CHARACTERS@XMLUri@xercesc_3_1@@0QBGB 12040354     XMLUri.obj
 0002:0001735c       ?USERINFO_CHARACTERS@XMLUri@xercesc_3_1@@0QBGB 1204035c     XMLUri.obj
 0002:0001736c       ?REG_NAME_CHARACTERS@XMLUri@xercesc_3_1@@0QBGB 1204036c     XMLUri.obj
 0002:00017380       ?PATH_CHARACTERS@XMLUri@xercesc_3_1@@0QBGB 12040380     XMLUri.obj
 0002:00017d7c       ?fgMyName@WinSockNetAccessor@xercesc_3_1@@0QBGB 12040d7c     WinSockNetAccessor.obj
 0002:0001a5dc       ?MAPSIZE@RangeToken@xercesc_3_1@@2HB 120435dc     RangeToken.obj
 0002:0001a5e0       ?INITIALSIZE@RangeToken@xercesc_3_1@@2IB 120435e0     RangeToken.obj
 0002:0001a7c8       ?IGNORE_CASE@RegularExpression@xercesc_3_1@@2IB 120437c8     RegularExpression.obj
 0002:0001a7cc       ?SINGLE_LINE@RegularExpression@xercesc_3_1@@2IB 120437cc     RegularExpression.obj
 0002:0001a7d0       ?MULTIPLE_LINE@RegularExpression@xercesc_3_1@@2IB 120437d0     RegularExpression.obj
 0002:0001a7d4       ?EXTENDED_COMMENT@RegularExpression@xercesc_3_1@@2IB 120437d4     RegularExpression.obj
 0002:0001a7d8       ?PROHIBIT_HEAD_CHARACTER_OPTIMIZATION@RegularExpression@xercesc_3_1@@2IB 120437d8     RegularExpression.obj
 0002:0001a7dc       ?PROHIBIT_FIXED_STRING_OPTIMIZATION@RegularExpression@xercesc_3_1@@2IB 120437dc     RegularExpression.obj
 0002:0001a7e0       ?XMLSCHEMA_MODE@RegularExpression@xercesc_3_1@@2IB 120437e0     RegularExpression.obj
 0002:0001a868       ?UTF16_MAX@Token@xercesc_3_1@@2HB 12043868     Token.obj
 0002:0001a9b8       ?INITIALSIZE@UnionToken@xercesc_3_1@@0GB 120439b8     UnionToken.obj
 0002:0002af74       ?fgInvalidAttrId@XMLAttDef@xercesc_3_1@@2IB 12053f74     XMLAttDef.obj
 0002:0002af90       ?gInvalidTrans@XMLContentModel@xercesc_3_1@@2IB 12053f90     XMLContentModel.obj
 0002:0002af94       ?gEOCFakeId@XMLContentModel@xercesc_3_1@@2IB 12053f94     XMLContentModel.obj
 0002:0002af98       ?gEpsilonFakeId@XMLContentModel@xercesc_3_1@@2IB 12053f98     XMLContentModel.obj
 0002:0002af9c       ?fgInvalidElemId@XMLElementDecl@xercesc_3_1@@2IB 12053f9c     XMLElementDecl.obj
 0002:0002afa0       ?fgPCDataElemId@XMLElementDecl@xercesc_3_1@@2IB 12053fa0     XMLElementDecl.obj
 0002:0002afa4       ?fgPCDataElemName@XMLElementDecl@xercesc_3_1@@2QBGB 12053fa4     XMLElementDecl.obj
 0002:0002b078       ?fgASCIIPre@XMLRecognizer@xercesc_3_1@@2QBDB 12054078     XMLRecognizer.obj
 0002:0002b080       ?fgASCIIPreLen@XMLRecognizer@xercesc_3_1@@2KB 12054080     XMLRecognizer.obj
 0002:0002b084       ?fgEBCDICPre@XMLRecognizer@xercesc_3_1@@2QBEB 12054084     XMLRecognizer.obj
 0002:0002b08c       ?fgEBCDICPreLen@XMLRecognizer@xercesc_3_1@@2KB 1205408c     XMLRecognizer.obj
 0002:0002b090       ?fgUTF16BPre@XMLRecognizer@xercesc_3_1@@2QBEB 12054090     XMLRecognizer.obj
 0002:0002b09c       ?fgUTF16LPre@XMLRecognizer@xercesc_3_1@@2QBEB 1205409c     XMLRecognizer.obj
 0002:0002b0a8       ?fgUTF16PreLen@XMLRecognizer@xercesc_3_1@@2KB 120540a8     XMLRecognizer.obj
 0002:0002b0ac       ?fgUCS4BPre@XMLRecognizer@xercesc_3_1@@2QBEB 120540ac     XMLRecognizer.obj
 0002:0002b0c4       ?fgUCS4LPre@XMLRecognizer@xercesc_3_1@@2QBEB 120540c4     XMLRecognizer.obj
 0002:0002b0dc       ?fgUCS4PreLen@XMLRecognizer@xercesc_3_1@@2KB 120540dc     XMLRecognizer.obj
 0002:0002b0e0       ?fgUTF8BOM@XMLRecognizer@xercesc_3_1@@2QBDB 120540e0     XMLRecognizer.obj
 0002:0002b0e4       ?fgUTF8BOMLen@XMLRecognizer@xercesc_3_1@@2KB 120540e4     XMLRecognizer.obj
 0002:0002b100       ?inGroup@XSValue@xercesc_3_1@@0QBW4DataGroup@12@B 12054100     XSValue.obj
 0002:0002b1b0       ?numericSign@XSValue@xercesc_3_1@@0QB_NB 120541b0     XSValue.obj
 0002:0002b2bc       ?toWriteBufferLen@XSerializeEngine@xercesc_3_1@@2_NB 120542bc     XSerializeEngine.obj
 0002:0002b2bd       ?toReadBufferLen@XSerializeEngine@xercesc_3_1@@2_NB 120542bd     XSerializeEngine.obj
 0002:0002b344       ?INDETERMINATE@AbstractNumericFacetValidator@xercesc_3_1@@1HB 12054344     AbstractNumericFacetValidator.obj
 0002:0002b4d4       ?fgATT_ABSTRACT@SchemaSymbols@xercesc_3_1@@2QBGB 120544d4     SchemaSymbols.obj
 0002:0002b4e8       ?fgATT_ATTRIBUTEFORMDEFAULT@SchemaSymbols@xercesc_3_1@@2QBGB 120544e8     SchemaSymbols.obj
 0002:0002b514       ?fgATT_BASE@SchemaSymbols@xercesc_3_1@@2QBGB 12054514     SchemaSymbols.obj
 0002:0002b520       ?fgATT_BLOCK@SchemaSymbols@xercesc_3_1@@2QBGB 12054520     SchemaSymbols.obj
 0002:0002b52c       ?fgATT_BLOCKDEFAULT@SchemaSymbols@xercesc_3_1@@2QBGB 1205452c     SchemaSymbols.obj
 0002:0002b548       ?fgATT_DEFAULT@SchemaSymbols@xercesc_3_1@@2QBGB 12054548     SchemaSymbols.obj
 0002:0002b558       ?fgATT_ELEMENTFORMDEFAULT@SchemaSymbols@xercesc_3_1@@2QBGB 12054558     SchemaSymbols.obj
 0002:0002b580       ?fgATT_FINAL@SchemaSymbols@xercesc_3_1@@2QBGB 12054580     SchemaSymbols.obj
 0002:0002b58c       ?fgATT_FINALDEFAULT@SchemaSymbols@xercesc_3_1@@2QBGB 1205458c     SchemaSymbols.obj
 0002:0002b5a8       ?fgATT_FIXED@SchemaSymbols@xercesc_3_1@@2QBGB 120545a8     SchemaSymbols.obj
 0002:0002b5b4       ?fgATT_FORM@SchemaSymbols@xercesc_3_1@@2QBGB 120545b4     SchemaSymbols.obj
 0002:0002b5c0       ?fgATT_ID@SchemaSymbols@xercesc_3_1@@2QBGB 120545c0     SchemaSymbols.obj
 0002:0002b5c8       ?fgATT_ITEMTYPE@SchemaSymbols@xercesc_3_1@@2QBGB 120545c8     SchemaSymbols.obj
 0002:0002b5dc       ?fgATT_MAXOCCURS@SchemaSymbols@xercesc_3_1@@2QBGB 120545dc     SchemaSymbols.obj
 0002:0002b5f0       ?fgATT_MEMBERTYPES@SchemaSymbols@xercesc_3_1@@2QBGB 120545f0     SchemaSymbols.obj
 0002:0002b608       ?fgATT_MINOCCURS@SchemaSymbols@xercesc_3_1@@2QBGB 12054608     SchemaSymbols.obj
 0002:0002b61c       ?fgATT_MIXED@SchemaSymbols@xercesc_3_1@@2QBGB 1205461c     SchemaSymbols.obj
 0002:0002b628       ?fgATT_NAME@SchemaSymbols@xercesc_3_1@@2QBGB 12054628     SchemaSymbols.obj
 0002:0002b634       ?fgATT_NAMESPACE@SchemaSymbols@xercesc_3_1@@2QBGB 12054634     SchemaSymbols.obj
 0002:0002b648       ?fgATT_NILLABLE@SchemaSymbols@xercesc_3_1@@2QBGB 12054648     SchemaSymbols.obj
 0002:0002b65c       ?fgATT_PROCESSCONTENTS@SchemaSymbols@xercesc_3_1@@2QBGB 1205465c     SchemaSymbols.obj
 0002:0002b67c       ?fgATT_PUBLIC@SchemaSymbols@xercesc_3_1@@2QBGB 1205467c     SchemaSymbols.obj
 0002:0002b68c       ?fgATT_REF@SchemaSymbols@xercesc_3_1@@2QBGB 1205468c     SchemaSymbols.obj
 0002:0002b694       ?fgATT_REFER@SchemaSymbols@xercesc_3_1@@2QBGB 12054694     SchemaSymbols.obj
 0002:0002b6a0       ?fgATT_SCHEMALOCATION@SchemaSymbols@xercesc_3_1@@2QBGB 120546a0     SchemaSymbols.obj
 0002:0002b6c0       ?fgATT_SOURCE@SchemaSymbols@xercesc_3_1@@2QBGB 120546c0     SchemaSymbols.obj
 0002:0002b6d0       ?fgATT_SUBSTITUTIONGROUP@SchemaSymbols@xercesc_3_1@@2QBGB 120546d0     SchemaSymbols.obj
 0002:0002b6f4       ?fgATT_SYSTEM@SchemaSymbols@xercesc_3_1@@2QBGB 120546f4     SchemaSymbols.obj
 0002:0002b704       ?fgATT_TARGETNAMESPACE@SchemaSymbols@xercesc_3_1@@2QBGB 12054704     SchemaSymbols.obj
 0002:0002b724       ?fgATT_TYPE@SchemaSymbols@xercesc_3_1@@2QBGB 12054724     SchemaSymbols.obj
 0002:0002b730       ?fgATT_USE@SchemaSymbols@xercesc_3_1@@2QBGB 12054730     SchemaSymbols.obj
 0002:0002b738       ?fgATT_VALUE@SchemaSymbols@xercesc_3_1@@2QBGB 12054738     SchemaSymbols.obj
 0002:0002b744       ?fgATT_VERSION@SchemaSymbols@xercesc_3_1@@2QBGB 12054744     SchemaSymbols.obj
 0002:0002b754       ?fgATT_XPATH@SchemaSymbols@xercesc_3_1@@2QBGB 12054754     SchemaSymbols.obj
 0002:0002b7b0       ?fgURI_XSI@SchemaSymbols@xercesc_3_1@@2QBGB 120547b0     SchemaSymbols.obj
 0002:0002b808       ?fgURI_SCHEMAFORSCHEMA@SchemaSymbols@xercesc_3_1@@2QBGB 12054808     SchemaSymbols.obj
 0002:0002b84c       ?fgXSI_SCHEMALOCACTION@SchemaSymbols@xercesc_3_1@@2QBGB 1205484c     SchemaSymbols.obj
 0002:0002b86c       ?fgXSI_NONAMESPACESCHEMALOCACTION@SchemaSymbols@xercesc_3_1@@2QBGB 1205486c     SchemaSymbols.obj
 0002:0002b8a0       ?fgXSI_SCHEMALOCATION@SchemaSymbols@xercesc_3_1@@2QBGB 120548a0     SchemaSymbols.obj
 0002:0002b8c0       ?fgXSI_NONAMESPACESCHEMALOCATION@SchemaSymbols@xercesc_3_1@@2QBGB 120548c0     SchemaSymbols.obj
 0002:0002b8f4       ?fgXSI_TYPE@SchemaSymbols@xercesc_3_1@@2QBGB 120548f4     SchemaSymbols.obj
 0002:0002b900       ?fgELT_ALL@SchemaSymbols@xercesc_3_1@@2QBGB 12054900     SchemaSymbols.obj
 0002:0002b908       ?fgELT_ANNOTATION@SchemaSymbols@xercesc_3_1@@2QBGB 12054908     SchemaSymbols.obj
 0002:0002b920       ?fgELT_ANY@SchemaSymbols@xercesc_3_1@@2QBGB 12054920     SchemaSymbols.obj
 0002:0002b928       ?fgELT_WILDCARD@SchemaSymbols@xercesc_3_1@@2QBGB 12054928     SchemaSymbols.obj
 0002:0002b930       ?fgELT_ANYATTRIBUTE@SchemaSymbols@xercesc_3_1@@2QBGB 12054930     SchemaSymbols.obj
 0002:0002b94c       ?fgELT_APPINFO@SchemaSymbols@xercesc_3_1@@2QBGB 1205494c     SchemaSymbols.obj
 0002:0002b95c       ?fgELT_ATTRIBUTE@SchemaSymbols@xercesc_3_1@@2QBGB 1205495c     SchemaSymbols.obj
 0002:0002b970       ?fgELT_ATTRIBUTEGROUP@SchemaSymbols@xercesc_3_1@@2QBGB 12054970     SchemaSymbols.obj
 0002:0002b990       ?fgELT_CHOICE@SchemaSymbols@xercesc_3_1@@2QBGB 12054990     SchemaSymbols.obj
 0002:0002b9a0       ?fgELT_COMPLEXTYPE@SchemaSymbols@xercesc_3_1@@2QBGB 120549a0     SchemaSymbols.obj
 0002:0002b9b8       ?fgELT_CONTENT@SchemaSymbols@xercesc_3_1@@2QBGB 120549b8     SchemaSymbols.obj
 0002:0002b9c8       ?fgELT_DOCUMENTATION@SchemaSymbols@xercesc_3_1@@2QBGB 120549c8     SchemaSymbols.obj
 0002:0002b9e4       ?fgELT_DURATION@SchemaSymbols@xercesc_3_1@@2QBGB 120549e4     SchemaSymbols.obj
 0002:0002b9f8       ?fgELT_ELEMENT@SchemaSymbols@xercesc_3_1@@2QBGB 120549f8     SchemaSymbols.obj
 0002:0002ba08       ?fgELT_ENCODING@SchemaSymbols@xercesc_3_1@@2QBGB 12054a08     SchemaSymbols.obj
 0002:0002ba1c       ?fgELT_ENUMERATION@SchemaSymbols@xercesc_3_1@@2QBGB 12054a1c     SchemaSymbols.obj
 0002:0002ba34       ?fgELT_FIELD@SchemaSymbols@xercesc_3_1@@2QBGB 12054a34     SchemaSymbols.obj
 0002:0002ba40       ?fgELT_WHITESPACE@SchemaSymbols@xercesc_3_1@@2QBGB 12054a40     SchemaSymbols.obj
 0002:0002ba58       ?fgELT_GROUP@SchemaSymbols@xercesc_3_1@@2QBGB 12054a58     SchemaSymbols.obj
 0002:0002ba64       ?fgELT_IMPORT@SchemaSymbols@xercesc_3_1@@2QBGB 12054a64     SchemaSymbols.obj
 0002:0002ba74       ?fgELT_INCLUDE@SchemaSymbols@xercesc_3_1@@2QBGB 12054a74     SchemaSymbols.obj
 0002:0002ba84       ?fgELT_REDEFINE@SchemaSymbols@xercesc_3_1@@2QBGB 12054a84     SchemaSymbols.obj
 0002:0002ba98       ?fgELT_KEY@SchemaSymbols@xercesc_3_1@@2QBGB 12054a98     SchemaSymbols.obj
 0002:0002baa0       ?fgELT_KEYREF@SchemaSymbols@xercesc_3_1@@2QBGB 12054aa0     SchemaSymbols.obj
 0002:0002bab0       ?fgELT_LENGTH@SchemaSymbols@xercesc_3_1@@2QBGB 12054ab0     SchemaSymbols.obj
 0002:0002bac0       ?fgELT_MAXEXCLUSIVE@SchemaSymbols@xercesc_3_1@@2QBGB 12054ac0     SchemaSymbols.obj
 0002:0002badc       ?fgELT_MAXINCLUSIVE@SchemaSymbols@xercesc_3_1@@2QBGB 12054adc     SchemaSymbols.obj
 0002:0002baf8       ?fgELT_MAXLENGTH@SchemaSymbols@xercesc_3_1@@2QBGB 12054af8     SchemaSymbols.obj
 0002:0002bb0c       ?fgELT_MINEXCLUSIVE@SchemaSymbols@xercesc_3_1@@2QBGB 12054b0c     SchemaSymbols.obj
 0002:0002bb28       ?fgELT_MININCLUSIVE@SchemaSymbols@xercesc_3_1@@2QBGB 12054b28     SchemaSymbols.obj
 0002:0002bb44       ?fgELT_MINLENGTH@SchemaSymbols@xercesc_3_1@@2QBGB 12054b44     SchemaSymbols.obj
 0002:0002bb58       ?fgELT_NOTATION@SchemaSymbols@xercesc_3_1@@2QBGB 12054b58     SchemaSymbols.obj
 0002:0002bb6c       ?fgELT_PATTERN@SchemaSymbols@xercesc_3_1@@2QBGB 12054b6c     SchemaSymbols.obj
 0002:0002bb7c       ?fgELT_PERIOD@SchemaSymbols@xercesc_3_1@@2QBGB 12054b7c     SchemaSymbols.obj
 0002:0002bb8c       ?fgELT_TOTALDIGITS@SchemaSymbols@xercesc_3_1@@2QBGB 12054b8c     SchemaSymbols.obj
 0002:0002bba4       ?fgELT_FRACTIONDIGITS@SchemaSymbols@xercesc_3_1@@2QBGB 12054ba4     SchemaSymbols.obj
 0002:0002bbc4       ?fgELT_SCHEMA@SchemaSymbols@xercesc_3_1@@2QBGB 12054bc4     SchemaSymbols.obj
 0002:0002bbd4       ?fgELT_SELECTOR@SchemaSymbols@xercesc_3_1@@2QBGB 12054bd4     SchemaSymbols.obj
 0002:0002bbe8       ?fgELT_SEQUENCE@SchemaSymbols@xercesc_3_1@@2QBGB 12054be8     SchemaSymbols.obj
 0002:0002bbfc       ?fgELT_SIMPLETYPE@SchemaSymbols@xercesc_3_1@@2QBGB 12054bfc     SchemaSymbols.obj
 0002:0002bc14       ?fgELT_UNION@SchemaSymbols@xercesc_3_1@@2QBGB 12054c14     SchemaSymbols.obj
 0002:0002bc20       ?fgELT_LIST@SchemaSymbols@xercesc_3_1@@2QBGB 12054c20     SchemaSymbols.obj
 0002:0002bc2c       ?fgELT_UNIQUE@SchemaSymbols@xercesc_3_1@@2QBGB 12054c2c     SchemaSymbols.obj
 0002:0002bc3c       ?fgELT_COMPLEXCONTENT@SchemaSymbols@xercesc_3_1@@2QBGB 12054c3c     SchemaSymbols.obj
 0002:0002bc5c       ?fgELT_SIMPLECONTENT@SchemaSymbols@xercesc_3_1@@2QBGB 12054c5c     SchemaSymbols.obj
 0002:0002bc78       ?fgELT_RESTRICTION@SchemaSymbols@xercesc_3_1@@2QBGB 12054c78     SchemaSymbols.obj
 0002:0002bc90       ?fgELT_EXTENSION@SchemaSymbols@xercesc_3_1@@2QBGB 12054c90     SchemaSymbols.obj
 0002:0002bca4       ?fgATT_NILL@SchemaSymbols@xercesc_3_1@@2QBGB 12054ca4     SchemaSymbols.obj
 0002:0002bcac       ?fgATTVAL_TWOPOUNDANY@SchemaSymbols@xercesc_3_1@@2QBGB 12054cac     SchemaSymbols.obj
 0002:0002bcb8       ?fgATTVAL_TWOPOUNDLOCAL@SchemaSymbols@xercesc_3_1@@2QBGB 12054cb8     SchemaSymbols.obj
 0002:0002bcc8       ?fgATTVAL_TWOPOUNDOTHER@SchemaSymbols@xercesc_3_1@@2QBGB 12054cc8     SchemaSymbols.obj
 0002:0002bcd8       ?fgATTVAL_TWOPOUNDTRAGETNAMESPACE@SchemaSymbols@xercesc_3_1@@2QBGB 12054cd8     SchemaSymbols.obj
 0002:0002bcfc       ?fgATTVAL_POUNDALL@SchemaSymbols@xercesc_3_1@@2QBGB 12054cfc     SchemaSymbols.obj
 0002:0002bd08       ?fgATTVAL_BASE64@SchemaSymbols@xercesc_3_1@@2QBGB 12054d08     SchemaSymbols.obj
 0002:0002bd18       ?fgATTVAL_BOOLEAN@SchemaSymbols@xercesc_3_1@@2QBGB 12054d18     SchemaSymbols.obj
 0002:0002bd28       ?fgATTVAL_DEFAULT@SchemaSymbols@xercesc_3_1@@2QBGB 12054d28     SchemaSymbols.obj
 0002:0002bd38       ?fgATTVAL_ELEMENTONLY@SchemaSymbols@xercesc_3_1@@2QBGB 12054d38     SchemaSymbols.obj
 0002:0002bd50       ?fgATTVAL_EMPTY@SchemaSymbols@xercesc_3_1@@2QBGB 12054d50     SchemaSymbols.obj
 0002:0002bd5c       ?fgATTVAL_EXTENSION@SchemaSymbols@xercesc_3_1@@2QBGB 12054d5c     SchemaSymbols.obj
 0002:0002bd70       ?fgATTVAL_FALSE@SchemaSymbols@xercesc_3_1@@2QBGB 12054d70     SchemaSymbols.obj
 0002:0002bd7c       ?fgATTVAL_FIXED@SchemaSymbols@xercesc_3_1@@2QBGB 12054d7c     SchemaSymbols.obj
 0002:0002bd88       ?fgATTVAL_HEX@SchemaSymbols@xercesc_3_1@@2QBGB 12054d88     SchemaSymbols.obj
 0002:0002bd90       ?fgATTVAL_ID@SchemaSymbols@xercesc_3_1@@2QBGB 12054d90     SchemaSymbols.obj
 0002:0002bd98       ?fgATTVAL_LAX@SchemaSymbols@xercesc_3_1@@2QBGB 12054d98     SchemaSymbols.obj
 0002:0002bda0       ?fgATTVAL_MAXLENGTH@SchemaSymbols@xercesc_3_1@@2QBGB 12054da0     SchemaSymbols.obj
 0002:0002bdb4       ?fgATTVAL_MINLENGTH@SchemaSymbols@xercesc_3_1@@2QBGB 12054db4     SchemaSymbols.obj
 0002:0002bdc8       ?fgATTVAL_MIXED@SchemaSymbols@xercesc_3_1@@2QBGB 12054dc8     SchemaSymbols.obj
 0002:0002bdd4       ?fgATTVAL_NCNAME@SchemaSymbols@xercesc_3_1@@2QBGB 12054dd4     SchemaSymbols.obj
 0002:0002bde4       ?fgATTVAL_OPTIONAL@SchemaSymbols@xercesc_3_1@@2QBGB 12054de4     SchemaSymbols.obj
 0002:0002bdf8       ?fgATTVAL_PROHIBITED@SchemaSymbols@xercesc_3_1@@2QBGB 12054df8     SchemaSymbols.obj
 0002:0002be10       ?fgATTVAL_QNAME@SchemaSymbols@xercesc_3_1@@2QBGB 12054e10     SchemaSymbols.obj
 0002:0002be1c       ?fgATTVAL_QUALIFIED@SchemaSymbols@xercesc_3_1@@2QBGB 12054e1c     SchemaSymbols.obj
 0002:0002be30       ?fgATTVAL_REQUIRED@SchemaSymbols@xercesc_3_1@@2QBGB 12054e30     SchemaSymbols.obj
 0002:0002be44       ?fgATTVAL_RESTRICTION@SchemaSymbols@xercesc_3_1@@2QBGB 12054e44     SchemaSymbols.obj
 0002:0002be5c       ?fgATTVAL_SKIP@SchemaSymbols@xercesc_3_1@@2QBGB 12054e5c     SchemaSymbols.obj
 0002:0002be68       ?fgATTVAL_STRICT@SchemaSymbols@xercesc_3_1@@2QBGB 12054e68     SchemaSymbols.obj
 0002:0002be78       ?fgATTVAL_STRING@SchemaSymbols@xercesc_3_1@@2QBGB 12054e78     SchemaSymbols.obj
 0002:0002be88       ?fgATTVAL_TEXTONLY@SchemaSymbols@xercesc_3_1@@2QBGB 12054e88     SchemaSymbols.obj
 0002:0002be9c       ?fgATTVAL_TIMEDURATION@SchemaSymbols@xercesc_3_1@@2QBGB 12054e9c     SchemaSymbols.obj
 0002:0002beb8       ?fgATTVAL_TRUE@SchemaSymbols@xercesc_3_1@@2QBGB 12054eb8     SchemaSymbols.obj
 0002:0002bec4       ?fgATTVAL_UNQUALIFIED@SchemaSymbols@xercesc_3_1@@2QBGB 12054ec4     SchemaSymbols.obj
 0002:0002bedc       ?fgATTVAL_URI@SchemaSymbols@xercesc_3_1@@2QBGB 12054edc     SchemaSymbols.obj
 0002:0002bee4       ?fgATTVAL_URIREFERENCE@SchemaSymbols@xercesc_3_1@@2QBGB 12054ee4     SchemaSymbols.obj
 0002:0002bf00       ?fgATTVAL_SUBSTITUTIONGROUP@SchemaSymbols@xercesc_3_1@@2QBGB 12054f00     SchemaSymbols.obj
 0002:0002bf24       ?fgATTVAL_SUBSTITUTION@SchemaSymbols@xercesc_3_1@@2QBGB 12054f24     SchemaSymbols.obj
 0002:0002bf40       ?fgATTVAL_ANYTYPE@SchemaSymbols@xercesc_3_1@@2QBGB 12054f40     SchemaSymbols.obj
 0002:0002bf50       ?fgWS_PRESERVE@SchemaSymbols@xercesc_3_1@@2QBGB 12054f50     SchemaSymbols.obj
 0002:0002bf64       ?fgWS_COLLAPSE@SchemaSymbols@xercesc_3_1@@2QBGB 12054f64     SchemaSymbols.obj
 0002:0002bf78       ?fgWS_REPLACE@SchemaSymbols@xercesc_3_1@@2QBGB 12054f78     SchemaSymbols.obj
 0002:0002bf88       ?fgDT_STRING@SchemaSymbols@xercesc_3_1@@2QBGB 12054f88     SchemaSymbols.obj
 0002:0002bf98       ?fgDT_TOKEN@SchemaSymbols@xercesc_3_1@@2QBGB 12054f98     SchemaSymbols.obj
 0002:0002bfa4       ?fgDT_LANGUAGE@SchemaSymbols@xercesc_3_1@@2QBGB 12054fa4     SchemaSymbols.obj
 0002:0002bfb8       ?fgDT_NAME@SchemaSymbols@xercesc_3_1@@2QBGB 12054fb8     SchemaSymbols.obj
 0002:0002bfc4       ?fgDT_NCNAME@SchemaSymbols@xercesc_3_1@@2QBGB 12054fc4     SchemaSymbols.obj
 0002:0002bfd4       ?fgDT_INTEGER@SchemaSymbols@xercesc_3_1@@2QBGB 12054fd4     SchemaSymbols.obj
 0002:0002bfe4       ?fgDT_DECIMAL@SchemaSymbols@xercesc_3_1@@2QBGB 12054fe4     SchemaSymbols.obj
 0002:0002bff4       ?fgDT_BOOLEAN@SchemaSymbols@xercesc_3_1@@2QBGB 12054ff4     SchemaSymbols.obj
 0002:0002c004       ?fgDT_NONPOSITIVEINTEGER@SchemaSymbols@xercesc_3_1@@2QBGB 12055004     SchemaSymbols.obj
 0002:0002c02c       ?fgDT_NEGATIVEINTEGER@SchemaSymbols@xercesc_3_1@@2QBGB 1205502c     SchemaSymbols.obj
 0002:0002c04c       ?fgDT_LONG@SchemaSymbols@xercesc_3_1@@2QBGB 1205504c     SchemaSymbols.obj
 0002:0002c058       ?fgDT_INT@SchemaSymbols@xercesc_3_1@@2QBGB 12055058     SchemaSymbols.obj
 0002:0002c060       ?fgDT_SHORT@SchemaSymbols@xercesc_3_1@@2QBGB 12055060     SchemaSymbols.obj
 0002:0002c06c       ?fgDT_BYTE@SchemaSymbols@xercesc_3_1@@2QBGB 1205506c     SchemaSymbols.obj
 0002:0002c078       ?fgDT_NONNEGATIVEINTEGER@SchemaSymbols@xercesc_3_1@@2QBGB 12055078     SchemaSymbols.obj
 0002:0002c0a0       ?fgDT_ULONG@SchemaSymbols@xercesc_3_1@@2QBGB 120550a0     SchemaSymbols.obj
 0002:0002c0bc       ?fgDT_UINT@SchemaSymbols@xercesc_3_1@@2QBGB 120550bc     SchemaSymbols.obj
 0002:0002c0d4       ?fgDT_USHORT@SchemaSymbols@xercesc_3_1@@2QBGB 120550d4     SchemaSymbols.obj
 0002:0002c0f0       ?fgDT_UBYTE@SchemaSymbols@xercesc_3_1@@2QBGB 120550f0     SchemaSymbols.obj
 0002:0002c10c       ?fgDT_POSITIVEINTEGER@SchemaSymbols@xercesc_3_1@@2QBGB 1205510c     SchemaSymbols.obj
 0002:0002c12c       ?fgDT_DATETIME@SchemaSymbols@xercesc_3_1@@2QBGB 1205512c     SchemaSymbols.obj
 0002:0002c140       ?fgDT_DATE@SchemaSymbols@xercesc_3_1@@2QBGB 12055140     SchemaSymbols.obj
 0002:0002c14c       ?fgDT_TIME@SchemaSymbols@xercesc_3_1@@2QBGB 1205514c     SchemaSymbols.obj
 0002:0002c158       ?fgDT_DURATION@SchemaSymbols@xercesc_3_1@@2QBGB 12055158     SchemaSymbols.obj
 0002:0002c16c       ?fgDT_DAY@SchemaSymbols@xercesc_3_1@@2QBGB 1205516c     SchemaSymbols.obj
 0002:0002c178       ?fgDT_MONTH@SchemaSymbols@xercesc_3_1@@2QBGB 12055178     SchemaSymbols.obj
 0002:0002c188       ?fgDT_MONTHDAY@SchemaSymbols@xercesc_3_1@@2QBGB 12055188     SchemaSymbols.obj
 0002:0002c19c       ?fgDT_YEAR@SchemaSymbols@xercesc_3_1@@2QBGB 1205519c     SchemaSymbols.obj
 0002:0002c1a8       ?fgDT_YEARMONTH@SchemaSymbols@xercesc_3_1@@2QBGB 120551a8     SchemaSymbols.obj
 0002:0002c1c0       ?fgDT_BASE64BINARY@SchemaSymbols@xercesc_3_1@@2QBGB 120551c0     SchemaSymbols.obj
 0002:0002c1dc       ?fgDT_HEXBINARY@SchemaSymbols@xercesc_3_1@@2QBGB 120551dc     SchemaSymbols.obj
 0002:0002c1f0       ?fgDT_FLOAT@SchemaSymbols@xercesc_3_1@@2QBGB 120551f0     SchemaSymbols.obj
 0002:0002c1fc       ?fgDT_DOUBLE@SchemaSymbols@xercesc_3_1@@2QBGB 120551fc     SchemaSymbols.obj
 0002:0002c20c       ?fgDT_URIREFERENCE@SchemaSymbols@xercesc_3_1@@2QBGB 1205520c     SchemaSymbols.obj
 0002:0002c228       ?fgDT_ANYURI@SchemaSymbols@xercesc_3_1@@2QBGB 12055228     SchemaSymbols.obj
 0002:0002c238       ?fgDT_QNAME@SchemaSymbols@xercesc_3_1@@2QBGB 12055238     SchemaSymbols.obj
 0002:0002c244       ?fgDT_NORMALIZEDSTRING@SchemaSymbols@xercesc_3_1@@2QBGB 12055244     SchemaSymbols.obj
 0002:0002c268       ?fgDT_ANYSIMPLETYPE@SchemaSymbols@xercesc_3_1@@2QBGB 12055268     SchemaSymbols.obj
 0002:0002c284       ?fgRegEx_XOption@SchemaSymbols@xercesc_3_1@@2QBGB 12055284     SchemaSymbols.obj
 0002:0002c288       ?fgRedefIdentifier@SchemaSymbols@xercesc_3_1@@2QBGB 12055288     SchemaSymbols.obj
 0002:0002c294       ?fgINT_MIN_VALUE@SchemaSymbols@xercesc_3_1@@2HB 12055294     SchemaSymbols.obj
 0002:0002c298       ?fgINT_MAX_VALUE@SchemaSymbols@xercesc_3_1@@2HB 12055298     SchemaSymbols.obj
 0002:0002c3b0       ?fASCIICharMap@XPathScanner@xercesc_3_1@@0QBEB 120553b0     XercesXPath.obj
 0002:0002c460       ?fgSYMBOL_AND@XPathSymbols@xercesc_3_1@@2QBGB 12055460     XPathSymbols.obj
 0002:0002c468       ?fgSYMBOL_OR@XPathSymbols@xercesc_3_1@@2QBGB 12055468     XPathSymbols.obj
 0002:0002c470       ?fgSYMBOL_MOD@XPathSymbols@xercesc_3_1@@2QBGB 12055470     XPathSymbols.obj
 0002:0002c478       ?fgSYMBOL_DIV@XPathSymbols@xercesc_3_1@@2QBGB 12055478     XPathSymbols.obj
 0002:0002c480       ?fgSYMBOL_COMMENT@XPathSymbols@xercesc_3_1@@2QBGB 12055480     XPathSymbols.obj
 0002:0002c490       ?fgSYMBOL_TEXT@XPathSymbols@xercesc_3_1@@2QBGB 12055490     XPathSymbols.obj
 0002:0002c49c       ?fgSYMBOL_PI@XPathSymbols@xercesc_3_1@@2QBGB 1205549c     XPathSymbols.obj
 0002:0002c4cc       ?fgSYMBOL_NODE@XPathSymbols@xercesc_3_1@@2QBGB 120554cc     XPathSymbols.obj
 0002:0002c4d8       ?fgSYMBOL_ANCESTOR@XPathSymbols@xercesc_3_1@@2QBGB 120554d8     XPathSymbols.obj
 0002:0002c4ec       ?fgSYMBOL_ANCESTOR_OR_SELF@XPathSymbols@xercesc_3_1@@2QBGB 120554ec     XPathSymbols.obj
 0002:0002c510       ?fgSYMBOL_ATTRIBUTE@XPathSymbols@xercesc_3_1@@2QBGB 12055510     XPathSymbols.obj
 0002:0002c524       ?fgSYMBOL_CHILD@XPathSymbols@xercesc_3_1@@2QBGB 12055524     XPathSymbols.obj
 0002:0002c530       ?fgSYMBOL_DESCENDANT@XPathSymbols@xercesc_3_1@@2QBGB 12055530     XPathSymbols.obj
 0002:0002c548       ?fgSYMBOL_DESCENDANT_OR_SELF@XPathSymbols@xercesc_3_1@@2QBGB 12055548     XPathSymbols.obj
 0002:0002c570       ?fgSYMBOL_FOLLOWING@XPathSymbols@xercesc_3_1@@2QBGB 12055570     XPathSymbols.obj
 0002:0002c584       ?fgSYMBOL_FOLLOWING_SIBLING@XPathSymbols@xercesc_3_1@@2QBGB 12055584     XPathSymbols.obj
 0002:0002c5a8       ?fgSYMBOL_NAMESPACE@XPathSymbols@xercesc_3_1@@2QBGB 120555a8     XPathSymbols.obj
 0002:0002c5bc       ?fgSYMBOL_PARENT@XPathSymbols@xercesc_3_1@@2QBGB 120555bc     XPathSymbols.obj
 0002:0002c5cc       ?fgSYMBOL_PRECEDING@XPathSymbols@xercesc_3_1@@2QBGB 120555cc     XPathSymbols.obj
 0002:0002c5e0       ?fgSYMBOL_PRECEDING_SIBLING@XPathSymbols@xercesc_3_1@@2QBGB 120555e0     XPathSymbols.obj
 0002:0002c604       ?fgSYMBOL_SELF@XPathSymbols@xercesc_3_1@@2QBGB 12055604     XPathSymbols.obj
 0002:0002c610       ?fDEFAULT_VALUES@DOMConfigurationImpl@xercesc_3_1@@2GB 12055610     DOMConfigurationImpl.obj
 0002:0002c83c       ?READONLY@DOMNodeImpl@xercesc_3_1@@2GB 1205583c     DOMNodeImpl.obj
 0002:0002c840       ?SYNCDATA@DOMNodeImpl@xercesc_3_1@@2GB 12055840     DOMNodeImpl.obj
 0002:0002c844       ?SYNCCHILDREN@DOMNodeImpl@xercesc_3_1@@2GB 12055844     DOMNodeImpl.obj
 0002:0002c848       ?OWNED@DOMNodeImpl@xercesc_3_1@@2GB 12055848     DOMNodeImpl.obj
 0002:0002c84c       ?FIRSTCHILD@DOMNodeImpl@xercesc_3_1@@2GB 1205584c     DOMNodeImpl.obj
 0002:0002c850       ?SPECIFIED@DOMNodeImpl@xercesc_3_1@@2GB 12055850     DOMNodeImpl.obj
 0002:0002c854       ?IGNORABLEWS@DOMNodeImpl@xercesc_3_1@@2GB 12055854     DOMNodeImpl.obj
 0002:0002c858       ?SETVALUE@DOMNodeImpl@xercesc_3_1@@2GB 12055858     DOMNodeImpl.obj
 0002:0002c85c       ?ID_ATTR@DOMNodeImpl@xercesc_3_1@@2GB 1205585c     DOMNodeImpl.obj
 0002:0002c860       ?USERDATA@DOMNodeImpl@xercesc_3_1@@2GB 12055860     DOMNodeImpl.obj
 0002:0002c864       ?LEAFNODETYPE@DOMNodeImpl@xercesc_3_1@@2GB 12055864     DOMNodeImpl.obj
 0002:0002c868       ?CHILDNODE@DOMNodeImpl@xercesc_3_1@@2GB 12055868     DOMNodeImpl.obj
 0002:0002c86c       ?TOBERELEASED@DOMNodeImpl@xercesc_3_1@@2GB 1205586c     DOMNodeImpl.obj
 0002:0002c8a0       ?fgXIIncludeQName@XIncludeUtils@xercesc_3_1@@0QBGB 120558a0     XIncludeUtils.obj
 0002:0002c8b0       ?fgXIFallbackQName@XIncludeUtils@xercesc_3_1@@0QBGB 120558b0     XIncludeUtils.obj
 0002:0002c8c4       ?fgXIIncludeHREFAttrName@XIncludeUtils@xercesc_3_1@@0QBGB 120558c4     XIncludeUtils.obj
 0002:0002c8d0       ?fgXIIncludeParseAttrName@XIncludeUtils@xercesc_3_1@@0QBGB 120558d0     XIncludeUtils.obj
 0002:0002c8dc       ?fgXIIncludeXPointerAttrName@XIncludeUtils@xercesc_3_1@@0QBGB 120558dc     XIncludeUtils.obj
 0002:0002c8f0       ?fgXIIncludeEncodingAttrName@XIncludeUtils@xercesc_3_1@@0QBGB 120558f0     XIncludeUtils.obj
 0002:0002c904       ?fgXIIncludeAcceptAttrName@XIncludeUtils@xercesc_3_1@@0QBGB 12055904     XIncludeUtils.obj
 0002:0002c914       ?fgXIIncludeAcceptLanguageAttrName@XIncludeUtils@xercesc_3_1@@0QBGB 12055914     XIncludeUtils.obj
 0002:0002c934       ?fgXIIncludeParseAttrXMLValue@XIncludeUtils@xercesc_3_1@@0QBGB 12055934     XIncludeUtils.obj
 0002:0002c93c       ?fgXIIncludeParseAttrTextValue@XIncludeUtils@xercesc_3_1@@0QBGB 1205593c     XIncludeUtils.obj
 0002:0002c948       ?fgXIIIncludeNamespaceURI@XIncludeUtils@xercesc_3_1@@0QBGB 12055948     XIncludeUtils.obj
 0002:0002c988       ?fgXIBaseAttrName@XIncludeUtils@xercesc_3_1@@2QBGB 12055988     XIncludeUtils.obj
 0002:0002c99c       ??_7IllegalArgumentException@xercesc_3_1@@6B@ 1205599c     EncodingValidator.obj
 0002:0002c9a8       ??_7KVStringPair@xercesc_3_1@@6B@ 120559a8     KVStringPair.obj
 0002:0002c9b8       ??_7XSerializable@xercesc_3_1@@6B@ 120559b8     KVStringPair.obj
 0002:0002c9c8       ??_C@_0N@FJHIBKLB@KVStringPair?$AA@ 120559c8     KVStringPair.obj
 0002:0002c9d8       ??_7RuntimeException@xercesc_3_1@@6B@ 120559d8     PlatformUtils.obj
 0002:0002c9e4       ??_7QName@xercesc_3_1@@6B@ 120559e4     QName.obj
 0002:0002c9f4       ??_C@_05LFDDDENB@QName?$AA@ 120559f4     QName.obj
 0002:0002c9fc       ??_7XMLStringPool@xercesc_3_1@@6B@ 120559fc     StringPool.obj
 0002:0002ca28       ??_C@_0DB@EMPLPGDD@?4?4?2?4?4?2?4?4?2?4?4?2?4?4?2src?2xercesc?1util?1@ 12055a28     StringPool.obj
 0002:0002ca5c       ??_C@_0O@OFDMBOEB@XMLStringPool?$AA@ 12055a5c     StringPool.obj
 0002:0002ca6c       ??_C@_0CP@CEGJMMFP@?4?4?2?4?4?2?4?4?2?4?4?2?4?4?2src?2xercesc?1util?1@ 12055a6c     StringPool.obj
 0002:0002ca9c       ??_7TranscodingException@xercesc_3_1@@6B@ 12055a9c     TransService.obj
 0002:0002caa8       ??_7XMLTranscoder@xercesc_3_1@@6B@ 12055aa8     TransService.obj
 0002:0002cab8       ??_7ArrayIndexOutOfBoundsException@xercesc_3_1@@6B@ 12055ab8     TransService.obj
 0002:0002cac4       ??_C@_0DC@HBDDPCFA@?4?4?2?4?4?2?4?4?2?4?4?2?4?4?2src?2xercesc?1util?1@ 12055ac4     TransService.obj
 0002:0002caf8       ??_7NumberFormatException@xercesc_3_1@@6B@ 12055af8     XMLAbstractDoubleFloat.obj
 0002:0002cb04       ??_7XMLAbstractDoubleFloat@xercesc_3_1@@6B@ 12055b04     XMLAbstractDoubleFloat.obj
 0002:0002cb24       ??_C@_0BH@IIBPAPE@XMLAbstractDoubleFloat?$AA@ 12055b24     XMLAbstractDoubleFloat.obj
 0002:0002cb40       ??_C@_0EN@DPFKLPLD@?2New?5folder?5?$CI11?$CJ?2New?5folder?5?$CI11?$CJ@ 12055b40     XMLAbstractDoubleFloat.obj
 0002:0002cb90       ??_7XMLBigDecimal@xercesc_3_1@@6B@ 12055b90     XMLBigDecimal.obj
 0002:0002cbac       ??_C@_0O@EJAAFGDB@XMLBigDecimal?$AA@ 12055bac     XMLBigDecimal.obj
 0002:0002cbc0       ??_C@_0EE@IGAABHDB@?2New?5folder?5?$CI11?$CJ?2New?5folder?5?$CI11?$CJ@ 12055bc0     XMLBigDecimal.obj
 0002:0002cc08       ??_C@_0EE@EEJLKDCO@?2New?5folder?5?$CI11?$CJ?2New?5folder?5?$CI11?$CJ@ 12055c08     XMLBigInteger.obj
 0002:0002cc4c       ??_7XMLDateTime@xercesc_3_1@@6B@ 12055c4c     XMLDateTime.obj
 0002:0002cc68       ??_7SchemaDateTimeException@xercesc_3_1@@6B@ 12055c68     XMLDateTime.obj
 0002:0002cc74       ??_C@_0M@CLBOCIEI@XMLDateTime?$AA@ 12055c74     XMLDateTime.obj
 0002:0002cc80       ??_C@_0EC@EHONMKON@?2New?5folder?5?$CI11?$CJ?2New?5folder?5?$CI11?$CJ@ 12055c80     XMLDateTime.obj
 0002:0002ccc4       ??_7XMLDouble@xercesc_3_1@@6B@ 12055cc4     XMLDouble.obj
 0002:0002cce4       ??_C@_09FHOFHDLD@XMLDouble?$AA@ 12055ce4     XMLDouble.obj
 0002:0002ccf0       ??_7XMLException@xercesc_3_1@@6B@ 12055cf0     XMLException.obj
 0002:0002ccf8       ??_7XMLFloat@xercesc_3_1@@6B@ 12055cf8     XMLFloat.obj
 0002:0002cd18       ??_C@_08FIPEJID@XMLFloat?$AA@ 12055d18     XMLFloat.obj
 0002:0002cd24       ??_C@_09LBKGOFK@XMLNumber?$AA@ 12055d24     XMLNumber.obj
 0002:0002cd30       ??_7?$RefArrayVectorOf@G@xercesc_3_1@@6B@ 12055d30     XMLString.obj
 0002:0002cd48       ??_7?$BaseRefVectorOf@G@xercesc_3_1@@6B@ 12055d48     XMLString.obj
 0002:0002cd60       ??_C@_0DD@IAIFILFA@?4?4?2?4?4?2?4?4?2?4?4?2?4?4?2src?2xercesc?1util?1@ 12055d60     XMLString.obj
 0002:0002cdd8       ??_C@_0EA@DJAMMEFF@?2New?5folder?5?$CI11?$CJ?2New?5folder?5?$CI11?$CJ@ 12055dd8     XMLString.obj
 0002:0002ce18       ??_7XMLUri@xercesc_3_1@@6B@ 12055e18     XMLUri.obj
 0002:0002ce28       ??_7MalformedURLException@xercesc_3_1@@6B@ 12055e28     XMLUri.obj
 0002:0002ce34       ??_C@_06EDPFLIOL@XMLUri?$AA@ 12055e34     XMLUri.obj
 0002:0002ce3c       ??_C@_0DN@FEBKMINN@?2New?5folder?5?$CI11?$CJ?2New?5folder?5?$CI11?$CJ@ 12055e3c     XMLUri.obj
 0002:0002ce7c       ??_7XMLUTF8Transcoder@xercesc_3_1@@6B@ 12055e7c     XMLUTF8Transcoder.obj
 0002:0002ce8c       ??_7UTFDataFormatException@xercesc_3_1@@6B@ 12055e8c     XMLUTF8Transcoder.obj
 0002:0002ce98       ??_C@_0EI@GOBFFKOG@?2New?5folder?5?$CI11?$CJ?2New?5folder?5?$CI11?$CJ@ 12055e98     XMLUTF8Transcoder.obj
 0002:0002cee0       ??_C@_0DG@OMALCNAK@?4?4?2?4?4?2?4?4?2?4?4?2?4?4?2src?2xercesc?1util?1@ 12055ee0     XMLUTF8Transcoder.obj
 0002:0002cf18       ??_C@_02PCIJFNDE@?$AN?6?$AA@ 12055f18     BinHTTPInputStreamCommon.obj
 0002:0002cf20       ??_7CharToken@xercesc_3_1@@6B@ 12055f20     CharToken.obj
 0002:0002cf68       ??_C@_0CP@NIAHEAMB@?4?4?2?4?4?2?4?4?2?4?4?2?4?4?2src?2xercesc?1util?1@ 12055f68     CharToken.obj
 0002:0002cf98       ??_7ClosureToken@xercesc_3_1@@6B@ 12055f98     ClosureToken.obj
 0002:0002cfe0       ??_7ConcatToken@xercesc_3_1@@6B@ 12055fe0     ConcatToken.obj
 0002:0002d028       ??_7Match@xercesc_3_1@@6B@ 12056028     Match.obj
 0002:0002d02c       ??_C@_0CP@NLGMMENB@?4?4?2?4?4?2?4?4?2?4?4?2?4?4?2src?2xercesc?1util?1@ 1205602c     Match.obj
 0002:0002d05c       ??_7StringOp@xercesc_3_1@@6B@ 1205605c     Op.obj
 0002:0002d07c       ??_7RangeOp@xercesc_3_1@@6B@ 1205607c     Op.obj
 0002:0002d09c       ??_7ModifierOp@xercesc_3_1@@6B@ 1205609c     Op.obj
 0002:0002d0bc       ??_7ChildOp@xercesc_3_1@@6B@ 120560bc     Op.obj
 0002:0002d0dc       ??_7?$BaseRefVectorOf@VOp@xercesc_3_1@@@xercesc_3_1@@6B@ 120560dc     Op.obj
 0002:0002d0f4       ??_7?$RefVectorOf@VOp@xercesc_3_1@@@xercesc_3_1@@6B@ 120560f4     Op.obj
 0002:0002d10c       ??_7UnionOp@xercesc_3_1@@6B@ 1205610c     Op.obj
 0002:0002d12c       ??_7CharOp@xercesc_3_1@@6B@ 1205612c     Op.obj
 0002:0002d14c       ??_7Op@xercesc_3_1@@6B@    1205614c     Op.obj
 0002:0002d16c       ??_C@_0DO@EJIJHMED@?2New?5folder?5?$CI11?$CJ?2New?5folder?5?$CI11?$CJ@ 1205616c     Op.obj
 0002:0002d1b0       ??_7ParenToken@xercesc_3_1@@6B@ 120561b0     ParenToken.obj
 0002:0002d1f8       ??_7ParseException@xercesc_3_1@@6B@ 120561f8     ParserForXMLSchema.obj
 0002:0002d204       ??_7ParserForXMLSchema@xercesc_3_1@@6B@ 12056204     ParserForXMLSchema.obj
 0002:0002d230       ??_C@_0EO@EDJLMAJA@?2New?5folder?5?$CI11?$CJ?2New?5folder?5?$CI11?$CJ@ 12056230     ParserForXMLSchema.obj
 0002:0002d280       ??_7RangeToken@xercesc_3_1@@6B@ 12056280     RangeToken.obj
 0002:0002d2c8       ??_C@_0EG@ENEMHGAJ@?2New?5folder?5?$CI11?$CJ?2New?5folder?5?$CI11?$CJ@ 120562c8     RangeToken.obj
 0002:0002d310       ??_7EmptyStackException@xercesc_3_1@@6B@ 12056310     RegularExpression.obj
 0002:0002d31c       ??_7RegularExpression@xercesc_3_1@@6B@ 1205631c     RegularExpression.obj
 0002:0002d324       ??_C@_0DA@MAFEBKOJ@?4?4?2?4?4?2?4?4?2?4?4?2?4?4?2src?2xercesc?1util?1@ 12056324     RegularExpression.obj
 0002:0002d354       ??_C@_0CP@KDEHHPHD@?4?4?2?4?4?2?4?4?2?4?4?2?4?4?2src?2xercesc?1util?1@ 12056354     RegularExpression.obj
 0002:0002d388       ??_C@_0EN@LOHGMCBE@?2New?5folder?5?$CI11?$CJ?2New?5folder?5?$CI11?$CJ@ 12056388     RegularExpression.obj
 0002:0002d3d8       ??_7?$BaseRefVectorOf@VReferencePosition@RegxParser@xercesc_3_1@@@xercesc_3_1@@6B@ 120563d8     RegxParser.obj
 0002:0002d3f0       ??_7?$RefVectorOf@VReferencePosition@RegxParser@xercesc_3_1@@@xercesc_3_1@@6B@ 120563f0     RegxParser.obj
 0002:0002d408       ??_7RegxParser@xercesc_3_1@@6B@ 12056408     RegxParser.obj
 0002:0002d438       ??_C@_0EG@PMNLGCAN@?2New?5folder?5?$CI11?$CJ?2New?5folder?5?$CI11?$CJ@ 12056438     RegxParser.obj
 0002:0002d480       ??_7StringToken@xercesc_3_1@@6B@ 12056480     StringToken.obj
 0002:0002d4c8       ??_7Token@xercesc_3_1@@6B@ 120564c8     Token.obj
 0002:0002d510       ??_7?$BaseRefVectorOf@VToken@xercesc_3_1@@@xercesc_3_1@@6B@ 12056510     TokenFactory.obj
 0002:0002d528       ??_7?$RefVectorOf@VToken@xercesc_3_1@@@xercesc_3_1@@6B@ 12056528     TokenFactory.obj
 0002:0002d540       ??_7UnionToken@xercesc_3_1@@6B@ 12056540     UnionToken.obj
 0002:0002d588       ??_7NullPointerException@xercesc_3_1@@6B@ 12056588     Wrapper4DOMLSInput.obj
 0002:0002d594       ??_7XMLAttDef@xercesc_3_1@@6B@ 12056594     XMLAttDef.obj
 0002:0002d5ac       ??_C@_09PAAJBPFC@XMLAttDef?$AA@ 120565ac     XMLAttDef.obj
 0002:0002d5b8       ??_C@_0O@NMMIANAL@XMLAttDefList?$AA@ 120565b8     XMLAttDefList.obj
 0002:0002d5c8       ??_C@_0EF@OBLIDANB@?2New?5folder?5?$CI11?$CJ?2New?5folder?5?$CI11?$CJ@ 120565c8     XMLBuffer.obj
 0002:0002d610       ??_C@_0BC@LNKNGDBA@XMLDTDDescription?$AA@ 12056610     XMLDTDDescription.obj
 0002:0002d624       ??_7XMLElementDecl@xercesc_3_1@@6B@ 12056624     XMLElementDecl.obj
 0002:0002d65c       ??_C@_0P@CBMHGIFF@XMLElementDecl?$AA@ 1205665c     XMLElementDecl.obj
 0002:0002d66c       ??_7XMLEntityDecl@xercesc_3_1@@6B@ 1205666c     XMLEntityDecl.obj
 0002:0002d688       ??_C@_0O@OJFMPAEL@XMLEntityDecl?$AA@ 12056688     XMLEntityDecl.obj
 0002:0002d698       ??_C@_0BG@CONMJHCF@XMLGrammarDescription?$AA@ 12056698     XMLGrammarDescription.obj
 0002:0002d6b0       ??_7XSerializationException@xercesc_3_1@@6B@ 120566b0     XMLGrammarPoolImpl.obj
 0002:0002d6bc       ??_7NoSuchElementException@xercesc_3_1@@6B@ 120566bc     XMLGrammarPoolImpl.obj
 0002:0002d6c8       ??_7XMLNotationDecl@xercesc_3_1@@6B@ 120566c8     XMLNotationDecl.obj
 0002:0002d6d8       ??_C@_0BA@JHHNHPHE@XMLNotationDecl?$AA@ 120566d8     XMLNotationDecl.obj
 0002:0002d6e8       ??_7XMLRefInfo@xercesc_3_1@@6B@ 120566e8     XMLRefInfo.obj
 0002:0002d6f8       ??_C@_0L@DFOCAPDN@XMLRefInfo?$AA@ 120566f8     XMLRefInfo.obj
 0002:0002d704       ??_C@_0BF@OEJMENNF@XMLSchemaDescription?$AA@ 12056704     XMLSchemaDescription.obj
 0002:0002d71c       ??_7XSAnnotation@xercesc_3_1@@6BXSObject@1@@ 1205671c     XSAnnotation.obj
 0002:0002d730       ??_7XSAnnotation@xercesc_3_1@@6BXSerializable@1@@ 12056730     XSAnnotation.obj
 0002:0002d740       ??_C@_0N@IEGDNDCF@XSAnnotation?$AA@ 12056740     XSAnnotation.obj
 0002:0002d750       ??_7?$XMLEnumerator@VXercesGroupInfo@xercesc_3_1@@@xercesc_3_1@@6B@ 12056750     XSModel.obj
 0002:0002d760       ??_7?$RefHashTableOfEnumerator@VXercesGroupInfo@xercesc_3_1@@UStringHasher@2@@xercesc_3_1@@6B@ 12056760     XSModel.obj
 0002:0002d770       ??_7?$XMLEnumerator@VXercesAttGroupInfo@xercesc_3_1@@@xercesc_3_1@@6B@ 12056770     XSModel.obj
 0002:0002d780       ??_7?$RefHashTableOfEnumerator@VXercesAttGroupInfo@xercesc_3_1@@UStringHasher@2@@xercesc_3_1@@6B@ 12056780     XSModel.obj
 0002:0002d790       ??_7?$XMLEnumerator@VComplexTypeInfo@xercesc_3_1@@@xercesc_3_1@@6B@ 12056790     XSModel.obj
 0002:0002d7a0       ??_7?$RefHashTableOfEnumerator@VComplexTypeInfo@xercesc_3_1@@UStringHasher@2@@xercesc_3_1@@6B@ 120567a0     XSModel.obj
 0002:0002d7b0       ??_7?$XMLEnumerator@VXMLAttDef@xercesc_3_1@@@xercesc_3_1@@6B@ 120567b0     XSModel.obj
 0002:0002d7c0       ??_7?$RefHashTableOfEnumerator@VXMLAttDef@xercesc_3_1@@UStringHasher@2@@xercesc_3_1@@6B@ 120567c0     XSModel.obj
 0002:0002d7d0       ??_7?$XMLEnumerator@VDatatypeValidator@xercesc_3_1@@@xercesc_3_1@@6B@ 120567d0     XSModel.obj
 0002:0002d7e0       ??_7?$XMLEnumerator@VXMLNotationDecl@xercesc_3_1@@@xercesc_3_1@@6B@ 120567e0     XSModel.obj
 0002:0002d7f0       ??_7?$XMLEnumerator@VSchemaElementDecl@xercesc_3_1@@@xercesc_3_1@@6B@ 120567f0     XSModel.obj
 0002:0002d800       ??_7?$NameIdPoolEnumerator@VXMLNotationDecl@xercesc_3_1@@@xercesc_3_1@@6B@ 12056800     XSModel.obj
 0002:0002d810       ??_7?$RefHash3KeysIdPoolEnumerator@VSchemaElementDecl@xercesc_3_1@@UStringHasher@2@@xercesc_3_1@@6B@ 12056810     XSModel.obj
 0002:0002d820       ??_7?$RefHashTableOfEnumerator@VDatatypeValidator@xercesc_3_1@@UStringHasher@2@@xercesc_3_1@@6B@ 12056820     XSModel.obj
 0002:0002d830       ??_C@_0CN@PJMJPGKK@?4?4?2?4?4?2?4?4?2?4?4?2?4?4?2src?2xercesc?1util?1@ 12056830     XSModel.obj
 0002:0002d860       ??_C@_0DF@NGHGPLCA@?4?4?2?4?4?2?4?4?2?4?4?2?4?4?2src?2xercesc?1util?1@ 12056860     XSModel.obj
 0002:0002d898       ??_C@_0DG@KDEMKMMG@?4?4?2?4?4?2?4?4?2?4?4?2?4?4?2src?2xercesc?1util?1@ 12056898     XSModel.obj
 0002:0002d8d0       ??_7XSObject@xercesc_3_1@@6B@ 120568d0     XSObject.obj
 0002:0002d8e4       ??_7DTDEntityDecl@xercesc_3_1@@6B@ 120568e4     DGXMLScanner.obj
 0002:0002d900       ??_C@_0CN@KJEGLMJH@?4?4?2?4?4?2?4?4?2?4?4?2?4?4?2src?2xercesc?1util?1@ 12056900     ReaderMgr.obj
 0002:0002d930       ??_7InvalidDatatypeValueException@xercesc_3_1@@6B@ 12056930     ValidationContextImpl.obj
 0002:0002d940       ??_C@_0EF@MDDFBOCD@?2New?5folder?5?$CI11?$CJ?2New?5folder?5?$CI11?$CJ@ 12056940     XProtoType.obj
 0002:0002d988       ??_C@_0EL@NJMFAFFK@?2New?5folder?5?$CI11?$CJ?2New?5folder?5?$CI11?$CJ@ 12056988     XSerializeEngine.obj
 0002:0002d9d4       ??_C@_0DJ@PHBOBKKC@?4?4?2?4?4?2?4?4?2?4?4?2?4?4?2src?2xercesc?1inter@ 120569d4     XSerializeEngine.obj
 0002:0002da10       ??_7?$XMLEnumerator@VKVStringPair@xercesc_3_1@@@xercesc_3_1@@6B@ 12056a10     XSObjectFactory.obj
 0002:0002da20       ??_7?$RefHashTableOfEnumerator@VKVStringPair@xercesc_3_1@@UStringHasher@2@@xercesc_3_1@@6B@ 12056a20     XSObjectFactory.obj
 0002:0002da30       ??_7?$XMLEnumerator@VDTDEntityDecl@xercesc_3_1@@@xercesc_3_1@@6B@ 12056a30     XTemplateSerializer.obj
 0002:0002da40       ??_7?$XMLEnumerator@VDTDElementDecl@xercesc_3_1@@@xercesc_3_1@@6B@ 12056a40     XTemplateSerializer.obj
 0002:0002da50       ??_7?$NameIdPoolEnumerator@VDTDElementDecl@xercesc_3_1@@@xercesc_3_1@@6B@ 12056a50     XTemplateSerializer.obj
 0002:0002da60       ??_7?$NameIdPoolEnumerator@VDTDEntityDecl@xercesc_3_1@@@xercesc_3_1@@6B@ 12056a60     XTemplateSerializer.obj
 0002:0002da70       ??_7?$XMLEnumerator@V?$ValueVectorOf@PAVSchemaElementDecl@xercesc_3_1@@@xercesc_3_1@@@xercesc_3_1@@6B@ 12056a70     XTemplateSerializer.obj
 0002:0002da80       ??_7?$RefHash2KeysTableOfEnumerator@V?$ValueVectorOf@PAVSchemaElementDecl@xercesc_3_1@@@xercesc_3_1@@UStringHasher@2@@xercesc_3_1@@6B@ 12056a80     XTemplateSerializer.obj
 0002:0002da90       ??_7?$XMLEnumerator@VXSAnnotation@xercesc_3_1@@@xercesc_3_1@@6B@ 12056a90     XTemplateSerializer.obj
 0002:0002daa0       ??_7?$XMLEnumerator@VDTDAttDef@xercesc_3_1@@@xercesc_3_1@@6B@ 12056aa0     XTemplateSerializer.obj
 0002:0002dab0       ??_7?$RefHashTableOfEnumerator@VDTDAttDef@xercesc_3_1@@UStringHasher@2@@xercesc_3_1@@6B@ 12056ab0     XTemplateSerializer.obj
 0002:0002dac0       ??_7?$BaseRefVectorOf@VXercesLocationPath@xercesc_3_1@@@xercesc_3_1@@6B@ 12056ac0     XTemplateSerializer.obj
 0002:0002dad8       ??_7?$BaseRefVectorOf@VXMLNumber@xercesc_3_1@@@xercesc_3_1@@6B@ 12056ad8     XTemplateSerializer.obj
 0002:0002daf0       ??_7?$RefVectorOf@VXMLNumber@xercesc_3_1@@@xercesc_3_1@@6B@ 12056af0     XTemplateSerializer.obj
 0002:0002db08       ??_7?$BaseRefVectorOf@VXercesStep@xercesc_3_1@@@xercesc_3_1@@6B@ 12056b08     XTemplateSerializer.obj
 0002:0002db20       ??_7?$RefVectorOf@VXercesStep@xercesc_3_1@@@xercesc_3_1@@6B@ 12056b20     XTemplateSerializer.obj
 0002:0002db38       ??_7?$RefHashTableOfEnumerator@VXSAnnotation@xercesc_3_1@@UPtrHasher@2@@xercesc_3_1@@6B@ 12056b38     XTemplateSerializer.obj
 0002:0002db48       ??_7?$BaseRefVectorOf@VSchemaAttDef@xercesc_3_1@@@xercesc_3_1@@6B@ 12056b48     XTemplateSerializer.obj
 0002:0002db60       ??_7?$RefVectorOf@VSchemaAttDef@xercesc_3_1@@@xercesc_3_1@@6B@ 12056b60     XTemplateSerializer.obj
 0002:0002db78       ??_7?$BaseRefVectorOf@VIdentityConstraint@xercesc_3_1@@@xercesc_3_1@@6B@ 12056b78     XTemplateSerializer.obj
 0002:0002db90       ??_7?$RefVectorOf@VIdentityConstraint@xercesc_3_1@@@xercesc_3_1@@6B@ 12056b90     XTemplateSerializer.obj
 0002:0002dba8       ??_7?$BaseRefVectorOf@VIC_Field@xercesc_3_1@@@xercesc_3_1@@6B@ 12056ba8     XTemplateSerializer.obj
 0002:0002dbc0       ??_7?$RefVectorOf@VIC_Field@xercesc_3_1@@@xercesc_3_1@@6B@ 12056bc0     XTemplateSerializer.obj
 0002:0002dbd8       ??_7?$RefVectorOf@VXercesLocationPath@xercesc_3_1@@@xercesc_3_1@@6B@ 12056bd8     XTemplateSerializer.obj
 0002:0002dbf0       ??_7?$XMLEnumerator@VSchemaAttDef@xercesc_3_1@@@xercesc_3_1@@6B@ 12056bf0     XTemplateSerializer.obj
 0002:0002dc00       ??_7?$RefHash2KeysTableOfEnumerator@VSchemaAttDef@xercesc_3_1@@UStringHasher@2@@xercesc_3_1@@6B@ 12056c00     XTemplateSerializer.obj
 0002:0002dc10       ??_7?$BaseRefVectorOf@VSchemaElementDecl@xercesc_3_1@@@xercesc_3_1@@6B@ 12056c10     XTemplateSerializer.obj
 0002:0002dc28       ??_7?$RefVectorOf@VSchemaElementDecl@xercesc_3_1@@@xercesc_3_1@@6B@ 12056c28     XTemplateSerializer.obj
 0002:0002dc40       ??_7?$BaseRefVectorOf@VDatatypeValidator@xercesc_3_1@@@xercesc_3_1@@6B@ 12056c40     XTemplateSerializer.obj
 0002:0002dc58       ??_7?$RefVectorOf@VDatatypeValidator@xercesc_3_1@@@xercesc_3_1@@6B@ 12056c58     XTemplateSerializer.obj
 0002:0002dc70       ??_7__AbortFilter@xercesc_3_1@@6B@ 12056c70     DOMLSParserImpl.obj
 0002:0002dc80       ??_7DOMLSParserFilter@xercesc_3_1@@6B@ 12056c80     DOMLSParserImpl.obj
 0002:0002dc90       ??_7AllContentModel@xercesc_3_1@@6B@ 12056c90     AllContentModel.obj
 0002:0002dcac       ??_7XMLContentModel@xercesc_3_1@@6B@ 12056cac     AllContentModel.obj
 0002:0002dcc8       ??_C@_0FD@DAOCINFG@?2New?5folder?5?$CI11?$CJ?2New?5folder?5?$CI11?$CJ@ 12056cc8     AllContentModel.obj
 0002:0002dd1c       ??_7CMAny@xercesc_3_1@@6B@ 12056d1c     CMAny.obj
 0002:0002dd2c       ??_7CMNode@xercesc_3_1@@6B@ 12056d2c     CMAny.obj
 0002:0002dd40       ??_C@_0EJ@GKDLPMNE@?2New?5folder?5?$CI11?$CJ?2New?5folder?5?$CI11?$CJ@ 12056d40     CMAny.obj
 0002:0002dd8c       ??_C@_05PIIOKBKL@CMAny?$AA@ 12056d8c     CMAny.obj
 0002:0002dd94       ??_C@_0DM@FAOBPJCD@?4?4?2?4?4?2?4?4?2?4?4?2?4?4?2src?2xercesc?1valid@ 12056d94     CMAny.obj
 0002:0002ddd0       ??_7CMBinaryOp@xercesc_3_1@@6B@ 12056dd0     CMBinaryOp.obj
 0002:0002dde0       ??_C@_0EO@PLJGLMLD@?2New?5folder?5?$CI11?$CJ?2New?5folder?5?$CI11?$CJ@ 12056de0     CMBinaryOp.obj
 0002:0002de30       ??_7CMUnaryOp@xercesc_3_1@@6B@ 12056e30     CMUnaryOp.obj
 0002:0002de40       ??_C@_0EN@LEMAEGIP@?2New?5folder?5?$CI11?$CJ?2New?5folder?5?$CI11?$CJ@ 12056e40     CMUnaryOp.obj
 0002:0002de90       ??_7ContentSpecNode@xercesc_3_1@@6B@ 12056e90     ContentSpecNode.obj
 0002:0002dea0       ??_C@_0BA@BBANDAFF@ContentSpecNode?$AA@ 12056ea0     ContentSpecNode.obj
 0002:0002deb0       ??_7DFAContentModel@xercesc_3_1@@6B@ 12056eb0     DFAContentModel.obj
 0002:0002decc       ??_7CMRepeatingLeaf@xercesc_3_1@@6B@ 12056ecc     DFAContentModel.obj
 0002:0002dee0       ??_7CMLeaf@xercesc_3_1@@6B@ 12056ee0     DFAContentModel.obj
 0002:0002def8       ??_C@_0FD@OOBEEHPC@?2New?5folder?5?$CI11?$CJ?2New?5folder?5?$CI11?$CJ@ 12056ef8     DFAContentModel.obj
 0002:0002df50       ??_C@_0EB@CPFBKHMK@?4?4?2?4?4?2?4?4?2?4?4?2?4?4?2src?2xercesc?1valid@ 12056f50     DFAContentModel.obj
 0002:0002df94       ??_C@_07PNCINANO@Grammar?$AA@ 12056f94     Grammar.obj
 0002:0002df9c       ??_7MixedContentModel@xercesc_3_1@@6B@ 12056f9c     MixedContentModel.obj
 0002:0002dfb8       ??_C@_0FF@GCGMAKJN@?2New?5folder?5?$CI11?$CJ?2New?5folder?5?$CI11?$CJ@ 12056fb8     MixedContentModel.obj
 0002:0002e010       ??_C@_0FG@LFKAEGJL@?2New?5folder?5?$CI11?$CJ?2New?5folder?5?$CI11?$CJ@ 12057010     SimpleContentModel.obj
 0002:0002e068       ??_7InvalidDatatypeFacetException@xercesc_3_1@@6B@ 12057068     AbstractNumericFacetValidator.obj
 0002:0002e078       ??_7AbstractNumericFacetValidator@xercesc_3_1@@6B@ 12057078     AbstractNumericFacetValidator.obj
 0002:0002e0d0       ??_C@_0BO@PLOHCBLF@AbstractNumericFacetValidator?$AA@ 120570d0     AbstractNumericFacetValidator.obj
 0002:0002e0f0       ??_C@_0GD@EGEGFFHB@?2New?5folder?5?$CI11?$CJ?2New?5folder?5?$CI11?$CJ@ 120570f0     AbstractNumericFacetValidator.obj
 0002:0002e158       ??_7AbstractNumericValidator@xercesc_3_1@@6B@ 12057158     AbstractNumericValidator.obj
 0002:0002e1b0       ??_C@_0BJ@ODJHD@AbstractNumericValidator?$AA@ 120571b0     AbstractNumericValidator.obj
 0002:0002e1d0       ??_C@_0FO@FFGPJNNL@?2New?5folder?5?$CI11?$CJ?2New?5folder?5?$CI11?$CJ@ 120571d0     AbstractNumericValidator.obj
 0002:0002e230       ??_7AbstractStringValidator@xercesc_3_1@@6B@ 12057230     AbstractStringValidator.obj
 0002:0002e288       ??_C@_0BI@OGENLLLK@AbstractStringValidator?$AA@ 12057288     AbstractStringValidator.obj
 0002:0002e2a0       ??_C@_0FN@DLKADGJJ@?2New?5folder?5?$CI11?$CJ?2New?5folder?5?$CI11?$CJ@ 120572a0     AbstractStringValidator.obj
 0002:0002e300       ??_7AnySimpleTypeDatatypeValidator@xercesc_3_1@@6B@ 12057300     AnySimpleTypeDatatypeValidator.obj
 0002:0002e32c       ??_C@_0BP@CPFAAKDP@AnySimpleTypeDatatypeValidator?$AA@ 1205732c     AnySimpleTypeDatatypeValidator.obj
 0002:0002e350       ??_C@_0GE@PIOLMCIG@?2New?5folder?5?$CI11?$CJ?2New?5folder?5?$CI11?$CJ@ 12057350     AnySimpleTypeDatatypeValidator.obj
 0002:0002e3b8       ??_7AnyURIDatatypeValidator@xercesc_3_1@@6B@ 120573b8     AnyURIDatatypeValidator.obj
 0002:0002e410       ??_C@_0BI@HPEECEHF@AnyURIDatatypeValidator?$AA@ 12057410     AnyURIDatatypeValidator.obj
 0002:0002e428       ??_C@_04JFFKLGJF@?$CF02X?$AA@ 12057428     AnyURIDatatypeValidator.obj
 0002:0002e4b0       ??_C@_0FN@LLNAKHKN@?2New?5folder?5?$CI11?$CJ?2New?5folder?5?$CI11?$CJ@ 120574b0     AnyURIDatatypeValidator.obj
 0002:0002e510       ??_7Base64BinaryDatatypeValidator@xercesc_3_1@@6B@ 12057510     Base64BinaryDatatypeValidator.obj
 0002:0002e568       ??_C@_0BO@CGKKNKIB@Base64BinaryDatatypeValidator?$AA@ 12057568     Base64BinaryDatatypeValidator.obj
 0002:0002e588       ??_C@_0GD@DNCLDJJH@?2New?5folder?5?$CI11?$CJ?2New?5folder?5?$CI11?$CJ@ 12057588     Base64BinaryDatatypeValidator.obj
 0002:0002e5ec       ??_7BooleanDatatypeValidator@xercesc_3_1@@6B@ 120575ec     BooleanDatatypeValidator.obj
 0002:0002e61c       ??_C@_0BJ@BOOPOGDA@BooleanDatatypeValidator?$AA@ 1205761c     BooleanDatatypeValidator.obj
 0002:0002e638       ??_C@_0FO@OHHBOHML@?2New?5folder?5?$CI11?$CJ?2New?5folder?5?$CI11?$CJ@ 12057638     BooleanDatatypeValidator.obj
 0002:0002e698       ??_C@_0M@FJOIDAAJ@enumeration?$AA@ 12057698     BooleanDatatypeValidator.obj
 0002:0002e6a4       ??_7DatatypeValidator@xercesc_3_1@@6B@ 120576a4     DatatypeValidator.obj
 0002:0002e6d0       ??_C@_0BC@NOLPHIJ@DatatypeValidator?$AA@ 120576d0     DatatypeValidator.obj
 0002:0002e6e4       ??_7DatatypeValidatorFactory@xercesc_3_1@@6B@ 120576e4     DatatypeValidatorFactory.obj
 0002:0002e6f4       ??_C@_0BJ@DCLLIGIH@DatatypeValidatorFactory?$AA@ 120576f4     DatatypeValidatorFactory.obj
 0002:0002e710       ??_7DateDatatypeValidator@xercesc_3_1@@6B@ 12057710     DateDatatypeValidator.obj
 0002:0002e774       ??_C@_0BG@HMOMHFLD@DateDatatypeValidator?$AA@ 12057774     DateDatatypeValidator.obj
 0002:0002e790       ??_7DateTimeDatatypeValidator@xercesc_3_1@@6B@ 12057790     DateTimeDatatypeValidator.obj
 0002:0002e7f4       ??_C@_0BK@PNPHHABD@DateTimeDatatypeValidator?$AA@ 120577f4     DateTimeDatatypeValidator.obj
 0002:0002e810       ??_7DateTimeValidator@xercesc_3_1@@6B@ 12057810     DateTimeValidator.obj
 0002:0002e874       ??_C@_0BC@GMEDKAPK@DateTimeValidator?$AA@ 12057874     DateTimeValidator.obj
 0002:0002e888       ??_C@_0FH@FHEIOCGM@?2New?5folder?5?$CI11?$CJ?2New?5folder?5?$CI11?$CJ@ 12057888     DateTimeValidator.obj
 0002:0002e8e0       ??_7DayDatatypeValidator@xercesc_3_1@@6B@ 120578e0     DayDatatypeValidator.obj
 0002:0002e944       ??_C@_0BF@CBACEDLF@DayDatatypeValidator?$AA@ 12057944     DayDatatypeValidator.obj
 0002:0002e960       ??_7DecimalDatatypeValidator@xercesc_3_1@@6B@ 12057960     DecimalDatatypeValidator.obj
 0002:0002e9b8       ??_C@_0BJ@GECIGANF@DecimalDatatypeValidator?$AA@ 120579b8     DecimalDatatypeValidator.obj
 0002:0002e9d8       ??_C@_0FO@NHADOIFI@?2New?5folder?5?$CI11?$CJ?2New?5folder?5?$CI11?$CJ@ 120579d8     DecimalDatatypeValidator.obj
 0002:0002ea38       ??_7DoubleDatatypeValidator@xercesc_3_1@@6B@ 12057a38     DoubleDatatypeValidator.obj
 0002:0002ea90       ??_C@_0BI@HJLCOHIP@DoubleDatatypeValidator?$AA@ 12057a90     DoubleDatatypeValidator.obj
 0002:0002eaa8       ??_C@_0FN@GKGHJKHJ@?2New?5folder?5?$CI11?$CJ?2New?5folder?5?$CI11?$CJ@ 12057aa8     DoubleDatatypeValidator.obj
 0002:0002eb08       ??_7DurationDatatypeValidator@xercesc_3_1@@6B@ 12057b08     DurationDatatypeValidator.obj
 0002:0002eb6c       ??_C@_0BK@GJKJBCG@DurationDatatypeValidator?$AA@ 12057b6c     DurationDatatypeValidator.obj
 0002:0002eb88       ??_7ENTITYDatatypeValidator@xercesc_3_1@@6B@ 12057b88     ENTITYDatatypeValidator.obj
 0002:0002ebe0       ??_C@_0BI@IFHMEMEP@ENTITYDatatypeValidator?$AA@ 12057be0     ENTITYDatatypeValidator.obj
 0002:0002ebf8       ??_C@_0FN@CIHFICAJ@?2New?5folder?5?$CI11?$CJ?2New?5folder?5?$CI11?$CJ@ 12057bf8     ENTITYDatatypeValidator.obj
 0002:0002ec58       ??_7FloatDatatypeValidator@xercesc_3_1@@6B@ 12057c58     FloatDatatypeValidator.obj
 0002:0002ecb0       ??_C@_0BH@KDJKPDEG@FloatDatatypeValidator?$AA@ 12057cb0     FloatDatatypeValidator.obj
 0002:0002ecc8       ??_C@_0FM@JNOFEHGE@?2New?5folder?5?$CI11?$CJ?2New?5folder?5?$CI11?$CJ@ 12057cc8     FloatDatatypeValidator.obj
 0002:0002ed28       ??_7HexBinaryDatatypeValidator@xercesc_3_1@@6B@ 12057d28     HexBinaryDatatypeValidator.obj
 0002:0002ed80       ??_C@_0BL@FMCBCMED@HexBinaryDatatypeValidator?$AA@ 12057d80     HexBinaryDatatypeValidator.obj
 0002:0002eda0       ??_C@_0GA@NEDNJDMK@?2New?5folder?5?$CI11?$CJ?2New?5folder?5?$CI11?$CJ@ 12057da0     HexBinaryDatatypeValidator.obj
 0002:0002ee00       ??_7IDDatatypeValidator@xercesc_3_1@@6B@ 12057e00     IDDatatypeValidator.obj
 0002:0002ee58       ??_C@_0BE@MABAPGB@IDDatatypeValidator?$AA@ 12057e58     IDDatatypeValidator.obj
 0002:0002ee70       ??_C@_0FJ@LMMGJNLA@?2New?5folder?5?$CI11?$CJ?2New?5folder?5?$CI11?$CJ@ 12057e70     IDDatatypeValidator.obj
 0002:0002eed0       ??_7IDREFDatatypeValidator@xercesc_3_1@@6B@ 12057ed0     IDREFDatatypeValidator.obj
 0002:0002ef28       ??_C@_0BH@IFNINFNH@IDREFDatatypeValidator?$AA@ 12057f28     IDREFDatatypeValidator.obj
 0002:0002ef40       ??_C@_0FM@LEJLFDIN@?2New?5folder?5?$CI11?$CJ?2New?5folder?5?$CI11?$CJ@ 12057f40     IDREFDatatypeValidator.obj
 0002:0002efa0       ??_7ListDatatypeValidator@xercesc_3_1@@6B@ 12057fa0     ListDatatypeValidator.obj
 0002:0002eff8       ??_C@_0BG@MFLJEHAE@ListDatatypeValidator?$AA@ 12057ff8     ListDatatypeValidator.obj
 0002:0002f010       ??_C@_0FL@BBDIKADM@?2New?5folder?5?$CI11?$CJ?2New?5folder?5?$CI11?$CJ@ 12058010     ListDatatypeValidator.obj
 0002:0002f070       ??_7MonthDatatypeValidator@xercesc_3_1@@6B@ 12058070     MonthDatatypeValidator.obj
 0002:0002f0d4       ??_C@_0BH@ELKDPHNE@MonthDatatypeValidator?$AA@ 120580d4     MonthDatatypeValidator.obj
 0002:0002f0f0       ??_7MonthDayDatatypeValidator@xercesc_3_1@@6B@ 120580f0     MonthDayDatatypeValidator.obj
 0002:0002f154       ??_C@_0BK@DNGBDHLC@MonthDayDatatypeValidator?$AA@ 12058154     MonthDayDatatypeValidator.obj
 0002:0002f170       ??_7NameDatatypeValidator@xercesc_3_1@@6B@ 12058170     NameDatatypeValidator.obj
 0002:0002f1c8       ??_C@_0BG@PDIFNMOC@NameDatatypeValidator?$AA@ 120581c8     NameDatatypeValidator.obj
 0002:0002f1e0       ??_C@_0FL@KPCDAFKP@?2New?5folder?5?$CI11?$CJ?2New?5folder?5?$CI11?$CJ@ 120581e0     NameDatatypeValidator.obj
 0002:0002f240       ??_7NCNameDatatypeValidator@xercesc_3_1@@6B@ 12058240     NCNameDatatypeValidator.obj
 0002:0002f298       ??_C@_0BI@MPKOBDHE@NCNameDatatypeValidator?$AA@ 12058298     NCNameDatatypeValidator.obj
 0002:0002f2b0       ??_C@_0FN@ENLIJLDH@?2New?5folder?5?$CI11?$CJ?2New?5folder?5?$CI11?$CJ@ 120582b0     NCNameDatatypeValidator.obj
 0002:0002f310       ??_7NOTATIONDatatypeValidator@xercesc_3_1@@6B@ 12058310     NOTATIONDatatypeValidator.obj
 0002:0002f368       ??_C@_0BK@HNIMBKBL@NOTATIONDatatypeValidator?$AA@ 12058368     NOTATIONDatatypeValidator.obj
 0002:0002f388       ??_C@_0FP@PHOGDBDI@?2New?5folder?5?$CI11?$CJ?2New?5folder?5?$CI11?$CJ@ 12058388     NOTATIONDatatypeValidator.obj
 0002:0002f3e8       ??_7QNameDatatypeValidator@xercesc_3_1@@6B@ 120583e8     QNameDatatypeValidator.obj
 0002:0002f440       ??_C@_0BH@LGMHDMOO@QNameDatatypeValidator?$AA@ 12058440     QNameDatatypeValidator.obj
 0002:0002f458       ??_C@_0FM@ONABGAAB@?2New?5folder?5?$CI11?$CJ?2New?5folder?5?$CI11?$CJ@ 12058458     QNameDatatypeValidator.obj
 0002:0002f4b8       ??_7StringDatatypeValidator@xercesc_3_1@@6B@ 120584b8     StringDatatypeValidator.obj
 0002:0002f510       ??_C@_0BI@MFKAJGDK@StringDatatypeValidator?$AA@ 12058510     StringDatatypeValidator.obj
 0002:0002f528       ??_C@_0FN@KPNLKJMC@?2New?5folder?5?$CI11?$CJ?2New?5folder?5?$CI11?$CJ@ 12058528     StringDatatypeValidator.obj
 0002:0002f588       ??_7TimeDatatypeValidator@xercesc_3_1@@6B@ 12058588     TimeDatatypeValidator.obj
 0002:0002f5ec       ??_C@_0BG@OIJDHAFF@TimeDatatypeValidator?$AA@ 120585ec     TimeDatatypeValidator.obj
 0002:0002f604       ??_7UnionDatatypeValidator@xercesc_3_1@@6B@ 12058604     UnionDatatypeValidator.obj
 0002:0002f634       ??_C@_0BH@HLMPOLGI@UnionDatatypeValidator?$AA@ 12058634     UnionDatatypeValidator.obj
 0002:0002f650       ??_C@_0FM@IAPJJOFG@?2New?5folder?5?$CI11?$CJ?2New?5folder?5?$CI11?$CJ@ 12058650     UnionDatatypeValidator.obj
 0002:0002f6b0       ??_7YearDatatypeValidator@xercesc_3_1@@6B@ 120586b0     YearDatatypeValidator.obj
 0002:0002f714       ??_C@_0BG@KHBICBPC@YearDatatypeValidator?$AA@ 12058714     YearDatatypeValidator.obj
 0002:0002f730       ??_7YearMonthDatatypeValidator@xercesc_3_1@@6B@ 12058730     YearMonthDatatypeValidator.obj
 0002:0002f794       ??_C@_0BL@CFPEFJKF@YearMonthDatatypeValidator?$AA@ 12058794     YearMonthDatatypeValidator.obj
 0002:0002f7b0       ??_7DTDAttDef@xercesc_3_1@@6B@ 120587b0     DTDAttDef.obj
 0002:0002f7c8       ??_C@_09BOBNJBKL@DTDAttDef?$AA@ 120587c8     DTDAttDef.obj
 0002:0002f7d4       ??_7DTDAttDefList@xercesc_3_1@@6B@ 120587d4     DTDAttDefList.obj
 0002:0002f804       ??_C@_0O@KFBBHKIG@DTDAttDefList?$AA@ 12058804     DTDAttDefList.obj
 0002:0002f818       ??_C@_0EO@IJOMBLJO@?2New?5folder?5?$CI11?$CJ?2New?5folder?5?$CI11?$CJ@ 12058818     DTDAttDefList.obj
 0002:0002f868       ??_7DTDElementDecl@xercesc_3_1@@6B@ 12058868     DTDElementDecl.obj
 0002:0002f8a0       ??_7SimpleContentModel@xercesc_3_1@@6B@ 120588a0     DTDElementDecl.obj
 0002:0002f8bc       ??_C@_0P@LCLHEOLP@DTDElementDecl?$AA@ 120588bc     DTDElementDecl.obj
 0002:0002f8d0       ??_C@_0EP@KCCGLLJJ@?2New?5folder?5?$CI11?$CJ?2New?5folder?5?$CI11?$CJ@ 120588d0     DTDElementDecl.obj
 0002:0002f920       ??_C@_0O@JAIFIHMG@DTDEntityDecl?$AA@ 12058920     DTDEntityDecl.obj
 0002:0002f930       ??_7DTDGrammar@xercesc_3_1@@6B@ 12058930     DTDGrammar.obj
 0002:0002f988       ??_C@_0L@KGJNKAAP@DTDGrammar?$AA@ 12058988     DTDGrammar.obj
 0002:0002f994       ??_7XMLDTDDescriptionImpl@xercesc_3_1@@6B@ 12058994     XMLDTDDescriptionImpl.obj
 0002:0002f9bc       ??_C@_0BG@LFOHHGGO@XMLDTDDescriptionImpl?$AA@ 120589bc     XMLDTDDescriptionImpl.obj
 0002:0002f9d4       ??_7ComplexTypeInfo@xercesc_3_1@@6B@ 120589d4     ComplexTypeInfo.obj
 0002:0002f9e4       ??_C@_0BA@GCAHIDEE@ComplexTypeInfo?$AA@ 120589e4     ComplexTypeInfo.obj
 0002:0002f9f8       ??_C@_0FD@EBMAKMI@?2New?5folder?5?$CI11?$CJ?2New?5folder?5?$CI11?$CJ@ 120589f8     ComplexTypeInfo.obj
 0002:0002fa4c       ??_7SchemaAttDef@xercesc_3_1@@6B@ 12058a4c     SchemaAttDef.obj
 0002:0002fa64       ??_C@_0N@GAODFPDA@SchemaAttDef?$AA@ 12058a64     SchemaAttDef.obj
 0002:0002fa74       ??_7SchemaAttDefList@xercesc_3_1@@6B@ 12058a74     SchemaAttDefList.obj
 0002:0002faa4       ??_C@_0BB@GJODDHGB@SchemaAttDefList?$AA@ 12058aa4     SchemaAttDefList.obj
 0002:0002fab8       ??_C@_0FE@IGHFMNON@?2New?5folder?5?$CI11?$CJ?2New?5folder?5?$CI11?$CJ@ 12058ab8     SchemaAttDefList.obj
 0002:0002fb0c       ??_7SchemaElementDecl@xercesc_3_1@@6B@ 12058b0c     SchemaElementDecl.obj
 0002:0002fb48       ??_C@_0BC@IMBFMLCJ@SchemaElementDecl?$AA@ 12058b48     SchemaElementDecl.obj
 0002:0002fb60       ??_C@_0FF@GLCFACMJ@?2New?5folder?5?$CI11?$CJ?2New?5folder?5?$CI11?$CJ@ 12058b60     SchemaElementDecl.obj
 0002:0002fbb8       ??_7SchemaGrammar@xercesc_3_1@@6B@ 12058bb8     SchemaGrammar.obj
 0002:0002fc10       ??_C@_0O@MBDOBEAN@SchemaGrammar?$AA@ 12058c10     SchemaGrammar.obj
 0002:0002fc20       ??_C@_0FP@MMFOOEIP@?2New?5folder?5?$CI11?$CJ?2New?5folder?5?$CI11?$CJ@ 12058c20     SubstitutionGroupComparator.obj
 0002:0002fc80       ??_7XercesAttGroupInfo@xercesc_3_1@@6B@ 12058c80     XercesAttGroupInfo.obj
 0002:0002fc90       ??_C@_0BD@BJIEBEB@XercesAttGroupInfo?$AA@ 12058c90     XercesAttGroupInfo.obj
 0002:0002fca4       ??_7XercesGroupInfo@xercesc_3_1@@6B@ 12058ca4     XercesGroupInfo.obj
 0002:0002fcb4       ??_C@_0BA@IIBBDLFJ@XercesGroupInfo?$AA@ 12058cb4     XercesGroupInfo.obj
 0002:0002fcc8       ??_7XMLSchemaDescriptionImpl@xercesc_3_1@@6B@ 12058cc8     XMLSchemaDescriptionImpl.obj
 0002:0002fd10       ??_C@_0BJ@BCENONFC@XMLSchemaDescriptionImpl?$AA@ 12058d10     XMLSchemaDescriptionImpl.obj
 0002:0002fd2c       ??_7IC_Field@xercesc_3_1@@6B@ 12058d2c     IC_Field.obj
 0002:0002fd3c       ??_C@_08BIMPGFMG@IC_Field?$AA@ 12058d3c     IC_Field.obj
 0002:0002fd48       ??_7IC_Key@xercesc_3_1@@6B@ 12058d48     IC_Key.obj
 0002:0002fd5c       ??_C@_06HMHLCELL@IC_Key?$AA@ 12058d5c     IC_Key.obj
 0002:0002fd64       ??_7IC_KeyRef@xercesc_3_1@@6B@ 12058d64     IC_KeyRef.obj
 0002:0002fd78       ??_C@_09ODILFKFM@IC_KeyRef?$AA@ 12058d78     IC_KeyRef.obj
 0002:0002fd84       ??_7IC_Selector@xercesc_3_1@@6B@ 12058d84     IC_Selector.obj
 0002:0002fd94       ??_C@_0M@INODNAPB@IC_Selector?$AA@ 12058d94     IC_Selector.obj
 0002:0002fda0       ??_7IC_Unique@xercesc_3_1@@6B@ 12058da0     IC_Unique.obj
 0002:0002fdb4       ??_C@_09FLMBCKON@IC_Unique?$AA@ 12058db4     IC_Unique.obj
 0002:0002fdc0       ??_7IdentityConstraint@xercesc_3_1@@6B@ 12058dc0     IdentityConstraint.obj
 0002:0002fdd4       ??_C@_0BD@MFMBPCEE@IdentityConstraint?$AA@ 12058dd4     IdentityConstraint.obj
 0002:0002fde8       ??_7XercesXPath@xercesc_3_1@@6B@ 12058de8     XercesXPath.obj
 0002:0002fdf8       ??_7XercesLocationPath@xercesc_3_1@@6B@ 12058df8     XercesXPath.obj
 0002:0002fe08       ??_7XercesStep@xercesc_3_1@@6B@ 12058e08     XercesXPath.obj
 0002:0002fe18       ??_7XercesNodeTest@xercesc_3_1@@6B@ 12058e18     XercesXPath.obj
 0002:0002fe28       ??_C@_0M@OIIPFHKB@XercesXPath?$AA@ 12058e28     XercesXPath.obj
 0002:0002fe34       ??_C@_0BD@NEMHBOAI@XercesLocationPath?$AA@ 12058e34     XercesXPath.obj
 0002:0002fe48       ??_C@_0L@EPAPBPIN@XercesStep?$AA@ 12058e48     XercesXPath.obj
 0002:0002fe54       ??_C@_0P@DMAPNOGD@XercesNodeTest?$AA@ 12058e54     XercesXPath.obj
 0002:0002fe64       ??_7DOMTypeInfoImpl@xercesc_3_1@@6BDOMPSVITypeInfo@1@@ 12058e64     DOMTypeInfoImpl.obj
 0002:0002fe70       ??_7DOMTypeInfoImpl@xercesc_3_1@@6BDOMTypeInfo@1@@ 12058e70     DOMTypeInfoImpl.obj
 0002:0002fe88       ??_7DOMPSVITypeInfo@xercesc_3_1@@6B@ 12058e88     DOMTypeInfoImpl.obj
 0002:0002fe94       ??_7DOMTypeInfo@xercesc_3_1@@6B@ 12058e94     DOMTypeInfoImpl.obj
 0002:0002fea8       __real@3ff4000000000000    12058ea8     DOMStringPool.obj
 0002:0002feb0       __real@41f0000000000000    12058eb0     DOMStringPool.obj
 0002:0002feb8       __real@3ff8000000000000    12058eb8     SAXParser.obj
 0002:0002fec0       __real@4f800000            12058ec0     DOMNodeIDMap.obj
 0002:0002fec8       __real@4024000000000000    12058ec8     XMLDateTime.obj
 0002:0002fed0       __real@0010000000000000    12058ed0     XMLAbstractDoubleFloat.obj
 0002:0002fed8       __real@8010000000000000    12058ed8     XMLAbstractDoubleFloat.obj
 0002:0002fee0       __real@0000000000000000    12058ee0     XMLAbstractDoubleFloat.obj
 0002:0002fee8       __real@bff0000000000000    12058ee8     XMLFloat.obj
 0002:0002fef0       __real@4000000000000000    12058ef0     XMLFloat.obj
 0002:0002ff08       __load_config_used         12058f08     MSVCRT:loadcfg.obj
 0002:0002ffbc       ??_R1A@?0A@A@type_info@@8  12058fbc     MSVCRT:ti_inst.obj
 0002:0002ffd4       ??_R2type_info@@8          12058fd4     MSVCRT:ti_inst.obj
 0002:0002ffdc       ??_R3type_info@@8          12058fdc     MSVCRT:ti_inst.obj
 0002:0002ffec       ??_R4type_info@@6B@        12058fec     MSVCRT:ti_inst.obj
 0002:00030000       ___safe_se_handler_table   12059000     <linker-defined>
 0002:000302f0       ___rtc_iaa                 120592f0     MSVCRT:initsect.obj
 0002:000302f4       ___rtc_izz                 120592f4     MSVCRT:initsect.obj
 0002:000302f8       ___rtc_taa                 120592f8     MSVCRT:initsect.obj
 0002:000302fc       ___rtc_tzz                 120592fc     MSVCRT:initsect.obj
 0002:00030300       __TI3?AVIllegalArgumentException@xercesc_3_1@@ 12059300     EncodingValidator.obj
 0002:00030310       __CTA3?AVIllegalArgumentException@xercesc_3_1@@ 12059310     EncodingValidator.obj
 0002:00030320       __CT??_R0?AVXMemory@xercesc_3_1@@@818 12059320     EncodingValidator.obj
 0002:0003033c       __CT??_R0?AVXMLException@xercesc_3_1@@@8??0XMLException@xercesc_3_1@@QAE@ABV01@@Z32 1205933c     EncodingValidator.obj
 0002:00030358       __CT??_R0?AVIllegalArgumentException@xercesc_3_1@@@8??0IllegalArgumentException@xercesc_3_1@@QAE@ABV01@@Z32 12059358     EncodingValidator.obj
 0002:00030374       __TI3?AVRuntimeException@xercesc_3_1@@ 12059374     PlatformUtils.obj
 0002:00030384       __CTA3?AVRuntimeException@xercesc_3_1@@ 12059384     PlatformUtils.obj
 0002:00030394       __CT??_R0?AVRuntimeException@xercesc_3_1@@@8??0RuntimeException@xercesc_3_1@@QAE@ABV01@@Z32 12059394     PlatformUtils.obj
 0002:000303b0       __TI3?AVArrayIndexOutOfBoundsException@xercesc_3_1@@ 120593b0     TransService.obj
 0002:000303c0       __CTA3?AVArrayIndexOutOfBoundsException@xercesc_3_1@@ 120593c0     TransService.obj
 0002:000303d0       __CT??_R0?AVArrayIndexOutOfBoundsException@xercesc_3_1@@@8??0ArrayIndexOutOfBoundsException@xercesc_3_1@@QAE@ABV01@@Z32 120593d0     TransService.obj
 0002:000303ec       __TI3?AVTranscodingException@xercesc_3_1@@ 120593ec     TransService.obj
 0002:000303fc       __CTA3?AVTranscodingException@xercesc_3_1@@ 120593fc     TransService.obj
 0002:0003040c       __CT??_R0?AVTranscodingException@xercesc_3_1@@@8??0TranscodingException@xercesc_3_1@@QAE@ABV01@@Z32 1205940c     TransService.obj
 0002:00030428       __TI3?AVNumberFormatException@xercesc_3_1@@ 12059428     XMLAbstractDoubleFloat.obj
 0002:00030438       __CTA3?AVNumberFormatException@xercesc_3_1@@ 12059438     XMLAbstractDoubleFloat.obj
 0002:00030448       __CT??_R0?AVNumberFormatException@xercesc_3_1@@@8??0NumberFormatException@xercesc_3_1@@QAE@ABV01@@Z32 12059448     XMLAbstractDoubleFloat.obj
 0002:00030464       __TI3?AVSchemaDateTimeException@xercesc_3_1@@ 12059464     XMLDateTime.obj
 0002:00030474       __CTA3?AVSchemaDateTimeException@xercesc_3_1@@ 12059474     XMLDateTime.obj
 0002:00030484       __CT??_R0?AVSchemaDateTimeException@xercesc_3_1@@@8??0SchemaDateTimeException@xercesc_3_1@@QAE@ABV01@@Z32 12059484     XMLDateTime.obj
 0002:000304a0       __TI3?AVMalformedURLException@xercesc_3_1@@ 120594a0     XMLUri.obj
 0002:000304b0       __CTA3?AVMalformedURLException@xercesc_3_1@@ 120594b0     XMLUri.obj
 0002:000304c0       __CT??_R0?AVMalformedURLException@xercesc_3_1@@@8??0MalformedURLException@xercesc_3_1@@QAE@ABV01@@Z32 120594c0     XMLUri.obj
 0002:000304dc       __TI3?AVUTFDataFormatException@xercesc_3_1@@ 120594dc     XMLUTF8Transcoder.obj
 0002:000304ec       __CTA3?AVUTFDataFormatException@xercesc_3_1@@ 120594ec     XMLUTF8Transcoder.obj
 0002:000304fc       __CT??_R0?AVUTFDataFormatException@xercesc_3_1@@@8??0UTFDataFormatException@xercesc_3_1@@QAE@ABV01@@Z32 120594fc     XMLUTF8Transcoder.obj
 0002:00030518       __TI3?AVParseException@xercesc_3_1@@ 12059518     ParserForXMLSchema.obj
 0002:00030528       __CTA3?AVParseException@xercesc_3_1@@ 12059528     ParserForXMLSchema.obj
 0002:00030538       __CT??_R0?AVParseException@xercesc_3_1@@@8??0ParseException@xercesc_3_1@@QAE@ABV01@@Z32 12059538     ParserForXMLSchema.obj
 0002:00030554       __TI3?AVEmptyStackException@xercesc_3_1@@ 12059554     RegularExpression.obj
 0002:00030564       __CTA3?AVEmptyStackException@xercesc_3_1@@ 12059564     RegularExpression.obj
 0002:00030574       __CT??_R0?AVEmptyStackException@xercesc_3_1@@@8??0EmptyStackException@xercesc_3_1@@QAE@ABV01@@Z32 12059574     RegularExpression.obj
 0002:00030590       __TI1?AW4Codes@XMLErrs@xercesc_3_1@@ 12059590     RegxParser.obj
 0002:000305a0       __CTA1?AW4Codes@XMLErrs@xercesc_3_1@@ 120595a0     RegxParser.obj
 0002:000305a8       __CT??_R0?AW4Codes@XMLErrs@xercesc_3_1@@@84 120595a8     RegxParser.obj
 0002:000305c4       __TI3?AVNullPointerException@xercesc_3_1@@ 120595c4     Wrapper4DOMLSInput.obj
 0002:000305d4       __CTA3?AVNullPointerException@xercesc_3_1@@ 120595d4     Wrapper4DOMLSInput.obj
 0002:000305e4       __CT??_R0?AVNullPointerException@xercesc_3_1@@@8??0NullPointerException@xercesc_3_1@@QAE@ABV01@@Z32 120595e4     Wrapper4DOMLSInput.obj
 0002:00030600       __TI3?AVNoSuchElementException@xercesc_3_1@@ 12059600     XMLGrammarPoolImpl.obj
 0002:00030610       __CTA3?AVNoSuchElementException@xercesc_3_1@@ 12059610     XMLGrammarPoolImpl.obj
 0002:00030620       __CT??_R0?AVNoSuchElementException@xercesc_3_1@@@8??0NoSuchElementException@xercesc_3_1@@QAE@ABV01@@Z32 12059620     XMLGrammarPoolImpl.obj
 0002:0003063c       __TI3?AVXSerializationException@xercesc_3_1@@ 1205963c     XMLGrammarPoolImpl.obj
 0002:0003064c       __CTA3?AVXSerializationException@xercesc_3_1@@ 1205964c     XMLGrammarPoolImpl.obj
 0002:0003065c       __CT??_R0?AVXSerializationException@xercesc_3_1@@@8??0XSerializationException@xercesc_3_1@@QAE@ABV01@@Z32 1205965c     XMLGrammarPoolImpl.obj
 0002:00030678       __TI1?AW4Codes@XMLValid@xercesc_3_1@@ 12059678     XMLValidator.obj
 0002:00030688       __CTA1?AW4Codes@XMLValid@xercesc_3_1@@ 12059688     XMLValidator.obj
 0002:00030690       __CT??_R0?AW4Codes@XMLValid@xercesc_3_1@@@84 12059690     XMLValidator.obj
 0002:000306ac       __TI3?AVInvalidDatatypeValueException@xercesc_3_1@@ 120596ac     ValidationContextImpl.obj
 0002:000306bc       __CTA3?AVInvalidDatatypeValueException@xercesc_3_1@@ 120596bc     ValidationContextImpl.obj
 0002:000306cc       __CT??_R0?AVInvalidDatatypeValueException@xercesc_3_1@@@8??0InvalidDatatypeValueException@xercesc_3_1@@QAE@ABV01@@Z32 120596cc     ValidationContextImpl.obj
 0002:000306e8       __TI3?AVInvalidDatatypeFacetException@xercesc_3_1@@ 120596e8     AbstractNumericFacetValidator.obj
 0002:000306f8       __CTA3?AVInvalidDatatypeFacetException@xercesc_3_1@@ 120596f8     AbstractNumericFacetValidator.obj
 0002:00030708       __CT??_R0?AVInvalidDatatypeFacetException@xercesc_3_1@@@8??0InvalidDatatypeFacetException@xercesc_3_1@@QAE@ABV01@@Z32 12059708     AbstractNumericFacetValidator.obj
 0002:00035280       __IMPORT_DESCRIPTOR_KERNEL32 1205e280     kernel32:KERNEL32.dll
 0002:00035294       __IMPORT_DESCRIPTOR_MSVCR71 1205e294     MSVCRT:MSVCR71.dll
 0002:000352a8       __NULL_IMPORT_DESCRIPTOR   1205e2a8     advapi32:ADVAPI32.dll
 0003:00000000       ___xc_a                    1205f000     MSVCRT:cinitexe.obj
 0003:0000003c       ___xc_z                    1205f03c     MSVCRT:cinitexe.obj
 0003:00000040       ___xi_a                    1205f040     MSVCRT:cinitexe.obj
 0003:00000044       ___xi_z                    1205f044     MSVCRT:cinitexe.obj
 0003:00000050       ??_R0?AVtype_info@@@8      1205f050     MSVCRT:ti_inst.obj
 0003:00000068       ??_R0?AVXMemory@xercesc_3_1@@@8 1205f068     EncodingValidator.obj
 0003:0000008c       ??_R0?AVXMLException@xercesc_3_1@@@8 1205f08c     EncodingValidator.obj
 0003:000000b4       ??_R0?AVIllegalArgumentException@xercesc_3_1@@@8 1205f0b4     EncodingValidator.obj
 0003:000000e8       ?classKVStringPair@KVStringPair@xercesc_3_1@@2VXProtoType@2@A 1205f0e8     KVStringPair.obj
 0003:000000f0       ?fgMemMgrAdopted@XMLPlatformUtils@xercesc_3_1@@0_NA 1205f0f0     PlatformUtils.obj
 0003:000000f1       ?fgXMLChBigEndian@XMLPlatformUtils@xercesc_3_1@@2_NA 1205f0f1     PlatformUtils.obj
 0003:000000f4       ?classQName@QName@xercesc_3_1@@2VXProtoType@2@A 1205f0f4     QName.obj
 0003:000000fc       ?classXMLStringPool@XMLStringPool@xercesc_3_1@@2VXProtoType@2@A 1205f0fc     StringPool.obj
 0003:0000010c       ?classXMLAbstractDoubleFloat@XMLAbstractDoubleFloat@xercesc_3_1@@2VXProtoType@2@A 1205f10c     XMLAbstractDoubleFloat.obj
 0003:00000114       ?classXMLBigDecimal@XMLBigDecimal@xercesc_3_1@@2VXProtoType@2@A 1205f114     XMLBigDecimal.obj
 0003:00000120       ?fgCharCharsTable1_0@XMLChar1_0@xercesc_3_1@@0PAEA 1205f120     XMLChar.obj
 0003:00010120       ?fgCharCharsTable1_1@XMLChar1_1@xercesc_3_1@@0PAEA 1206f120     XMLChar.obj
 0003:00020120       ?classXMLDateTime@XMLDateTime@xercesc_3_1@@2VXProtoType@2@A 1207f120     XMLDateTime.obj
 0003:00020128       ?classXMLDouble@XMLDouble@xercesc_3_1@@2VXProtoType@2@A 1207f128     XMLDouble.obj
 0003:00020130       ?classXMLFloat@XMLFloat@xercesc_3_1@@2VXProtoType@2@A 1207f130     XMLFloat.obj
 0003:00020138       ?classXMLNumber@XMLNumber@xercesc_3_1@@2VXProtoType@2@A 1207f138     XMLNumber.obj
 0003:00020150       ?classXMLUri@XMLUri@xercesc_3_1@@2VXProtoType@2@A 1207f150     XMLUri.obj
 0003:0002018c       ?classXMLAttDef@XMLAttDef@xercesc_3_1@@2VXProtoType@2@A 1207f18c     XMLAttDef.obj
 0003:00020194       ?classXMLAttDefList@XMLAttDefList@xercesc_3_1@@2VXProtoType@2@A 1207f194     XMLAttDefList.obj
 0003:0002019c       ?classXMLDTDDescription@XMLDTDDescription@xercesc_3_1@@2VXProtoType@2@A 1207f19c     XMLDTDDescription.obj
 0003:000201a4       ?classXMLElementDecl@XMLElementDecl@xercesc_3_1@@2VXProtoType@2@A 1207f1a4     XMLElementDecl.obj
 0003:000201ac       ?classXMLEntityDecl@XMLEntityDecl@xercesc_3_1@@2VXProtoType@2@A 1207f1ac     XMLEntityDecl.obj
 0003:000201b4       ?classXMLGrammarDescription@XMLGrammarDescription@xercesc_3_1@@2VXProtoType@2@A 1207f1b4     XMLGrammarDescription.obj
 0003:000201bc       ?classXMLNotationDecl@XMLNotationDecl@xercesc_3_1@@2VXProtoType@2@A 1207f1bc     XMLNotationDecl.obj
 0003:000201e4       ?classXMLRefInfo@XMLRefInfo@xercesc_3_1@@2VXProtoType@2@A 1207f1e4     XMLRefInfo.obj
 0003:000201ec       ?classXMLSchemaDescription@XMLSchemaDescription@xercesc_3_1@@2VXProtoType@2@A 1207f1ec     XMLSchemaDescription.obj
 0003:000201f4       ?classXSAnnotation@XSAnnotation@xercesc_3_1@@2VXProtoType@2@A 1207f1f4     XSAnnotation.obj
 0003:00020200       ?classContentSpecNode@ContentSpecNode@xercesc_3_1@@2VXProtoType@2@A 1207f200     ContentSpecNode.obj
 0003:00020208       ?classGrammar@Grammar@xercesc_3_1@@2VXProtoType@2@A 1207f208     Grammar.obj
 0003:00020210       ?classAbstractNumericFacetValidator@AbstractNumericFacetValidator@xercesc_3_1@@2VXProtoType@2@A 1207f210     AbstractNumericFacetValidator.obj
 0003:00020218       ?classAbstractNumericValidator@AbstractNumericValidator@xercesc_3_1@@2VXProtoType@2@A 1207f218     AbstractNumericValidator.obj
 0003:00020220       ?classAbstractStringValidator@AbstractStringValidator@xercesc_3_1@@2VXProtoType@2@A 1207f220     AbstractStringValidator.obj
 0003:00020228       ?classAnySimpleTypeDatatypeValidator@AnySimpleTypeDatatypeValidator@xercesc_3_1@@2VXProtoType@2@A 1207f228     AnySimpleTypeDatatypeValidator.obj
 0003:00020230       ?classAnyURIDatatypeValidator@AnyURIDatatypeValidator@xercesc_3_1@@2VXProtoType@2@A 1207f230     AnyURIDatatypeValidator.obj
 0003:00020238       ?classBase64BinaryDatatypeValidator@Base64BinaryDatatypeValidator@xercesc_3_1@@2VXProtoType@2@A 1207f238     Base64BinaryDatatypeValidator.obj
 0003:00020240       ?classBooleanDatatypeValidator@BooleanDatatypeValidator@xercesc_3_1@@2VXProtoType@2@A 1207f240     BooleanDatatypeValidator.obj
 0003:00020248       ?classDatatypeValidator@DatatypeValidator@xercesc_3_1@@2VXProtoType@2@A 1207f248     DatatypeValidator.obj
 0003:00020250       ?classDatatypeValidatorFactory@DatatypeValidatorFactory@xercesc_3_1@@2VXProtoType@2@A 1207f250     DatatypeValidatorFactory.obj
 0003:00020258       ?classDateDatatypeValidator@DateDatatypeValidator@xercesc_3_1@@2VXProtoType@2@A 1207f258     DateDatatypeValidator.obj
 0003:00020260       ?classDateTimeDatatypeValidator@DateTimeDatatypeValidator@xercesc_3_1@@2VXProtoType@2@A 1207f260     DateTimeDatatypeValidator.obj
 0003:00020268       ?classDateTimeValidator@DateTimeValidator@xercesc_3_1@@2VXProtoType@2@A 1207f268     DateTimeValidator.obj
 0003:00020270       ?classDayDatatypeValidator@DayDatatypeValidator@xercesc_3_1@@2VXProtoType@2@A 1207f270     DayDatatypeValidator.obj
 0003:00020278       ?classDecimalDatatypeValidator@DecimalDatatypeValidator@xercesc_3_1@@2VXProtoType@2@A 1207f278     DecimalDatatypeValidator.obj
 0003:00020280       ?classDoubleDatatypeValidator@DoubleDatatypeValidator@xercesc_3_1@@2VXProtoType@2@A 1207f280     DoubleDatatypeValidator.obj
 0003:00020288       ?classDurationDatatypeValidator@DurationDatatypeValidator@xercesc_3_1@@2VXProtoType@2@A 1207f288     DurationDatatypeValidator.obj
 0003:00020290       ?classENTITYDatatypeValidator@ENTITYDatatypeValidator@xercesc_3_1@@2VXProtoType@2@A 1207f290     ENTITYDatatypeValidator.obj
 0003:00020298       ?classFloatDatatypeValidator@FloatDatatypeValidator@xercesc_3_1@@2VXProtoType@2@A 1207f298     FloatDatatypeValidator.obj
 0003:000202a0       ?classHexBinaryDatatypeValidator@HexBinaryDatatypeValidator@xercesc_3_1@@2VXProtoType@2@A 1207f2a0     HexBinaryDatatypeValidator.obj
 0003:000202a8       ?classIDDatatypeValidator@IDDatatypeValidator@xercesc_3_1@@2VXProtoType@2@A 1207f2a8     IDDatatypeValidator.obj
 0003:000202b0       ?classIDREFDatatypeValidator@IDREFDatatypeValidator@xercesc_3_1@@2VXProtoType@2@A 1207f2b0     IDREFDatatypeValidator.obj
 0003:000202b8       ?classListDatatypeValidator@ListDatatypeValidator@xercesc_3_1@@2VXProtoType@2@A 1207f2b8     ListDatatypeValidator.obj
 0003:000202c0       ?classMonthDatatypeValidator@MonthDatatypeValidator@xercesc_3_1@@2VXProtoType@2@A 1207f2c0     MonthDatatypeValidator.obj
 0003:000202c8       ?classMonthDayDatatypeValidator@MonthDayDatatypeValidator@xercesc_3_1@@2VXProtoType@2@A 1207f2c8     MonthDayDatatypeValidator.obj
 0003:000202d0       ?classNameDatatypeValidator@NameDatatypeValidator@xercesc_3_1@@2VXProtoType@2@A 1207f2d0     NameDatatypeValidator.obj
 0003:000202d8       ?classNCNameDatatypeValidator@NCNameDatatypeValidator@xercesc_3_1@@2VXProtoType@2@A 1207f2d8     NCNameDatatypeValidator.obj
 0003:000202e0       ?classNOTATIONDatatypeValidator@NOTATIONDatatypeValidator@xercesc_3_1@@2VXProtoType@2@A 1207f2e0     NOTATIONDatatypeValidator.obj
 0003:000202e8       ?classQNameDatatypeValidator@QNameDatatypeValidator@xercesc_3_1@@2VXProtoType@2@A 1207f2e8     QNameDatatypeValidator.obj
 0003:000202f0       ?classStringDatatypeValidator@StringDatatypeValidator@xercesc_3_1@@2VXProtoType@2@A 1207f2f0     StringDatatypeValidator.obj
 0003:000202f8       ?classTimeDatatypeValidator@TimeDatatypeValidator@xercesc_3_1@@2VXProtoType@2@A 1207f2f8     TimeDatatypeValidator.obj
 0003:00020300       ?classUnionDatatypeValidator@UnionDatatypeValidator@xercesc_3_1@@2VXProtoType@2@A 1207f300     UnionDatatypeValidator.obj
 0003:00020308       ?classYearDatatypeValidator@YearDatatypeValidator@xercesc_3_1@@2VXProtoType@2@A 1207f308     YearDatatypeValidator.obj
 0003:00020310       ?classYearMonthDatatypeValidator@YearMonthDatatypeValidator@xercesc_3_1@@2VXProtoType@2@A 1207f310     YearMonthDatatypeValidator.obj
 0003:00020318       ?classDTDAttDef@DTDAttDef@xercesc_3_1@@2VXProtoType@2@A 1207f318     DTDAttDef.obj
 0003:00020320       ?classDTDAttDefList@DTDAttDefList@xercesc_3_1@@2VXProtoType@2@A 1207f320     DTDAttDefList.obj
 0003:00020328       ?classDTDElementDecl@DTDElementDecl@xercesc_3_1@@2VXProtoType@2@A 1207f328     DTDElementDecl.obj
 0003:00020330       ?classDTDEntityDecl@DTDEntityDecl@xercesc_3_1@@2VXProtoType@2@A 1207f330     DTDEntityDecl.obj
 0003:00020338       ?classDTDGrammar@DTDGrammar@xercesc_3_1@@2VXProtoType@2@A 1207f338     DTDGrammar.obj
 0003:00020340       ?classXMLDTDDescriptionImpl@XMLDTDDescriptionImpl@xercesc_3_1@@2VXProtoType@2@A 1207f340     XMLDTDDescriptionImpl.obj
 0003:00020348       ?classComplexTypeInfo@ComplexTypeInfo@xercesc_3_1@@2VXProtoType@2@A 1207f348     ComplexTypeInfo.obj
 0003:00020350       ?fgElemAttTable@GeneralAttributeCheck@xercesc_3_1@@0PAY0CC@GA 1207f350     GeneralAttributeCheck.obj
 0003:00021098       ?fAttNames@GeneralAttributeCheck@xercesc_3_1@@0PAPBGA 12080098     GeneralAttributeCheck.obj
 0003:00021120       ?classSchemaAttDef@SchemaAttDef@xercesc_3_1@@2VXProtoType@2@A 12080120     SchemaAttDef.obj
 0003:00021128       ?classSchemaAttDefList@SchemaAttDefList@xercesc_3_1@@2VXProtoType@2@A 12080128     SchemaAttDefList.obj
 0003:00021130       ?classSchemaElementDecl@SchemaElementDecl@xercesc_3_1@@2VXProtoType@2@A 12080130     SchemaElementDecl.obj
 0003:00021138       ?classSchemaGrammar@SchemaGrammar@xercesc_3_1@@2VXProtoType@2@A 12080138     SchemaGrammar.obj
 0003:0002114c       ?classXercesAttGroupInfo@XercesAttGroupInfo@xercesc_3_1@@2VXProtoType@2@A 1208014c     XercesAttGroupInfo.obj
 0003:00021154       ?classXercesGroupInfo@XercesGroupInfo@xercesc_3_1@@2VXProtoType@2@A 12080154     XercesGroupInfo.obj
 0003:0002115c       ?classXMLSchemaDescriptionImpl@XMLSchemaDescriptionImpl@xercesc_3_1@@2VXProtoType@2@A 1208015c     XMLSchemaDescriptionImpl.obj
 0003:00021164       ?classIC_Field@IC_Field@xercesc_3_1@@2VXProtoType@2@A 12080164     IC_Field.obj
 0003:0002116c       ?classIC_Key@IC_Key@xercesc_3_1@@2VXProtoType@2@A 1208016c     IC_Key.obj
 0003:00021174       ?classIC_KeyRef@IC_KeyRef@xercesc_3_1@@2VXProtoType@2@A 12080174     IC_KeyRef.obj
 0003:0002117c       ?classIC_Selector@IC_Selector@xercesc_3_1@@2VXProtoType@2@A 1208017c     IC_Selector.obj
 0003:00021184       ?classIC_Unique@IC_Unique@xercesc_3_1@@2VXProtoType@2@A 12080184     IC_Unique.obj
 0003:0002118c       ?classIdentityConstraint@IdentityConstraint@xercesc_3_1@@2VXProtoType@2@A 1208018c     IdentityConstraint.obj
 0003:00021194       ?classXercesNodeTest@XercesNodeTest@xercesc_3_1@@2VXProtoType@2@A 12080194     XercesXPath.obj
 0003:0002119c       ?classXercesStep@XercesStep@xercesc_3_1@@2VXProtoType@2@A 1208019c     XercesXPath.obj
 0003:000211a4       ?classXercesLocationPath@XercesLocationPath@xercesc_3_1@@2VXProtoType@2@A 120801a4     XercesXPath.obj
 0003:000211ac       ?classXercesXPath@XercesXPath@xercesc_3_1@@2VXProtoType@2@A 120801ac     XercesXPath.obj
 0003:000211c0       ??_R0?AVRuntimeException@xercesc_3_1@@@8 120801c0     PlatformUtils.obj
 0003:000211ec       ??_R0?AVOutOfMemoryException@xercesc_3_1@@@8 120801ec     PlatformUtils.obj
 0003:0002121c       ??_R0?AVArrayIndexOutOfBoundsException@xercesc_3_1@@@8 1208021c     TransService.obj
 0003:00021258       ??_R0?AVTranscodingException@xercesc_3_1@@@8 12080258     TransService.obj
 0003:00021288       ??_R0?AVNumberFormatException@xercesc_3_1@@@8 12080288     XMLAbstractDoubleFloat.obj
 0003:000212b8       ??_R0?AVSchemaDateTimeException@xercesc_3_1@@@8 120802b8     XMLDateTime.obj
 0003:000212ec       ??_R0?AVMalformedURLException@xercesc_3_1@@@8 120802ec     XMLString.obj
 0003:0002131c       ??_R0?AVUTFDataFormatException@xercesc_3_1@@@8 1208031c     XMLUTF8Transcoder.obj
 0003:00021350       ??_R0?AVParseException@xercesc_3_1@@@8 12080350     ParserForXMLSchema.obj
 0003:0002137c       ??_R0?AVEmptyStackException@xercesc_3_1@@@8 1208037c     RegularExpression.obj
 0003:000213ac       ??_R0?AW4Codes@XMLErrs@xercesc_3_1@@@8 120803ac     RegxParser.obj
 0003:000213d8       ??_R0?AVNullPointerException@xercesc_3_1@@@8 120803d8     Wrapper4DOMLSInput.obj
 0003:00021408       ??_R0?AVNoSuchElementException@xercesc_3_1@@@8 12080408     XMLGrammarPoolImpl.obj
 0003:0002143c       ??_R0?AVXSerializationException@xercesc_3_1@@@8 1208043c     XMLGrammarPoolImpl.obj
 0003:00021470       ??_R0?AW4Codes@XMLValid@xercesc_3_1@@@8 12080470     XMLValidator.obj
 0003:0002149c       ??_R0?AVInvalidDatatypeValueException@xercesc_3_1@@@8 1208049c     ValidationContextImpl.obj
 0003:000214d4       ??_R0?AVInvalidDatatypeFacetException@xercesc_3_1@@@8 120804d4     AbstractNumericFacetValidator.obj
 0003:00021510       ___security_cookie         12080510     MSVCRT:seccook.obj
 0003:00021524       ?fInstance@EncodingValidator@xercesc_3_1@@0PAV12@A 12080524     EncodingValidator.obj
 0003:00021530       ?fgNetAccessor@XMLPlatformUtils@xercesc_3_1@@2PAVXMLNetAccessor@2@A 12080530     PlatformUtils.obj
 0003:00021534       ?fgTransService@XMLPlatformUtils@xercesc_3_1@@2PAVXMLTransService@2@A 12080534     PlatformUtils.obj
 0003:00021538       ?fgUserPanicHandler@XMLPlatformUtils@xercesc_3_1@@2PAVPanicHandler@2@A 12080538     PlatformUtils.obj
 0003:0002153c       ?fgDefaultPanicHandler@XMLPlatformUtils@xercesc_3_1@@2PAVPanicHandler@2@A 1208053c     PlatformUtils.obj
 0003:00021540       ?fgMemoryManager@XMLPlatformUtils@xercesc_3_1@@2PAVMemoryManager@2@A 12080540     PlatformUtils.obj
 0003:00021544       ?fgFileMgr@XMLPlatformUtils@xercesc_3_1@@2PAVXMLFileMgr@2@A 12080544     PlatformUtils.obj
 0003:00021548       ?fgMutexMgr@XMLPlatformUtils@xercesc_3_1@@2PAVXMLMutexMgr@2@A 12080548     PlatformUtils.obj
 0003:0002154c       ?fgAtomicMutex@XMLPlatformUtils@xercesc_3_1@@2PAVXMLMutex@2@A 1208054c     PlatformUtils.obj
 0003:00021550       ?fgSSE2ok@XMLPlatformUtils@xercesc_3_1@@2_NA 12080550     PlatformUtils.obj
 0003:00021554       ?gMappings@XMLTransService@xercesc_3_1@@1PAV?$RefHashTableOf@VENameMap@xercesc_3_1@@UStringHasher@2@@2@A 12080554     TransService.obj
 0003:00021558       ?gMappingsRecognizer@XMLTransService@xercesc_3_1@@1PAV?$RefVectorOf@VENameMap@xercesc_3_1@@@2@A 12080558     TransService.obj
 0003:0002155c       ?enableNEL@XMLChar1_0@xercesc_3_1@@0_NA 1208055c     XMLChar.obj
 0003:00021564       ?fLocale@XMLMsgLoader@xercesc_3_1@@0PADA 12080564     XMLMsgLoader.obj
 0003:00021568       ?fPath@XMLMsgLoader@xercesc_3_1@@0PADA 12080568     XMLMsgLoader.obj
 0003:00021570       ?fgMemoryManager@XMLString@xercesc_3_1@@0PAVMemoryManager@2@A 12080570     XMLString.obj
 0003:000215a8       ?fInitialized@BinHTTPURLInputStream@xercesc_3_1@@0_NA 120805a8     BinHTTPURLInputStream.obj
 0003:000215ac       ?fInstance@RangeTokenMap@xercesc_3_1@@0PAV12@A 120805ac     RangeTokenMap.obj
 0003:000215b0       ?fWordRange@RegularExpression@xercesc_3_1@@1PAVRangeToken@2@A 120805b0     RegularExpression.obj
 0003:000215bc       ?fDataTypeRegistry@XSValue@xercesc_3_1@@0PAV?$ValueHashTableOf@W4DataType@XSValue@xercesc_3_1@@UStringHasher@3@@2@A 120805bc     XSValue.obj
 0003:000215cc       ?fBuiltInRegistry@DatatypeValidatorFactory@xercesc_3_1@@0PAV?$RefHashTableOf@VDatatypeValidator@xercesc_3_1@@UStringHasher@2@@2@A 120805cc     DatatypeValidatorFactory.obj
 0003:000215d0       ?fCanRepRegistry@DatatypeValidatorFactory@xercesc_3_1@@0PAV?$RefHashTableOf@VXMLCanRepGroup@xercesc_3_1@@UPtrHasher@2@@2@A 120805d0     DatatypeValidatorFactory.obj
 0003:000215d4       ?fDefaultEntities@DTDGrammar@xercesc_3_1@@0PAV?$NameIdPool@VDTDEntityDecl@xercesc_3_1@@@2@A 120805d4     DTDGrammar.obj
 0003:000215d8       ?fAnyType@ComplexTypeInfo@xercesc_3_1@@0PAV12@A 120805d8     ComplexTypeInfo.obj
 0003:000215dc       ?fAttMap@GeneralAttributeCheck@xercesc_3_1@@0PAV?$ValueHashTableOf@GUStringHasher@xercesc_3_1@@@2@A 120805dc     GeneralAttributeCheck.obj
 0003:000215e0       ?fFacetsMap@GeneralAttributeCheck@xercesc_3_1@@0PAV?$ValueHashTableOf@GUStringHasher@xercesc_3_1@@@2@A 120805e0     GeneralAttributeCheck.obj
 0003:000215e4       ?fNonNegIntDV@GeneralAttributeCheck@xercesc_3_1@@0PAVDatatypeValidator@2@A 120805e4     GeneralAttributeCheck.obj
 0003:000215e8       ?fBooleanDV@GeneralAttributeCheck@xercesc_3_1@@0PAVDatatypeValidator@2@A 120805e8     GeneralAttributeCheck.obj
 0003:000215ec       ?fAnyURIDV@GeneralAttributeCheck@xercesc_3_1@@0PAVDatatypeValidator@2@A 120805ec     GeneralAttributeCheck.obj
 0003:00021620       ?g_DtdValidatedENTITIESAttribute@DOMTypeInfoImpl@xercesc_3_1@@2V12@A 12080620     DOMTypeInfoImpl.obj
 0003:00021644       ?g_DtdValidatedNOTATIONAttribute@DOMTypeInfoImpl@xercesc_3_1@@2V12@A 12080644     DOMTypeInfoImpl.obj
 0003:00021668       ?g_DtdValidatedIDAttribute@DOMTypeInfoImpl@xercesc_3_1@@2V12@A 12080668     DOMTypeInfoImpl.obj
 0003:0002168c       ?g_DtdValidatedNMTOKENSAttribute@DOMTypeInfoImpl@xercesc_3_1@@2V12@A 1208068c     DOMTypeInfoImpl.obj
 0003:000216b0       ?g_DtdValidatedIDREFSAttribute@DOMTypeInfoImpl@xercesc_3_1@@2V12@A 120806b0     DOMTypeInfoImpl.obj
 0003:000216d4       ?g_DtdNotValidatedAttribute@DOMTypeInfoImpl@xercesc_3_1@@2V12@A 120806d4     DOMTypeInfoImpl.obj
 0003:000216f8       ?g_DtdValidatedElement@DOMTypeInfoImpl@xercesc_3_1@@2V12@A 120806f8     DOMTypeInfoImpl.obj
 0003:0002171c       ?g_DtdValidatedCDATAAttribute@DOMTypeInfoImpl@xercesc_3_1@@2V12@A 1208071c     DOMTypeInfoImpl.obj
 0003:00021740       ?g_DtdValidatedIDREFAttribute@DOMTypeInfoImpl@xercesc_3_1@@2V12@A 12080740     DOMTypeInfoImpl.obj
 0003:00021764       ?g_DtdValidatedNMTOKENAttribute@DOMTypeInfoImpl@xercesc_3_1@@2V12@A 12080764     DOMTypeInfoImpl.obj
 0003:00021788       ?g_DtdValidatedENTITYAttribute@DOMTypeInfoImpl@xercesc_3_1@@2V12@A 12080788     DOMTypeInfoImpl.obj
 0003:000217ac       ?g_DtdValidatedENUMERATIONAttribute@DOMTypeInfoImpl@xercesc_3_1@@2V12@A 120807ac     DOMTypeInfoImpl.obj
 0003:000217e4       __adjust_fdiv              120807e4     <common>
 0003:000217e8       __pRawDllMain              120807e8     <common>
 0003:000217ec       ___onexitend               120807ec     <common>
 0003:000217f0       ___onexitbegin             120807f0     <common>

 entry point at        0001:000264b6

 Static symbols

 0001:00000019       ?getExternalMemory@xercesc_3_1@@YAPAXQAVMemoryManager@1@K@Z 12001019 f   Base64.obj
 0001:0000002c       ?returnExternalMemory@xercesc_3_1@@YAXQAVMemoryManager@1@PAX@Z 1200102c f   Base64.obj
 0001:00000a32       $L123907                   12001a32 f    CIL library: CIL module
 0001:00000ac5       $L110641                   12001ac5 f    CIL library: CIL module
 0001:00001fea       $L161336                   12002fea f    CIL library: CIL module
 0001:000021ac       $L137207                   120031ac f    CIL library: CIL module
 0001:0000235c       $L137170                   1200335c f    CIL library: CIL module
 0001:000027e0       $L137063                   120037e0 f    CIL library: CIL module
 0001:00002bf1       ?fQuotient@xercesc_3_1@@YAHHH@Z 12003bf1 f   XMLDateTime.obj
 0001:00002c09       ?modulo@xercesc_3_1@@YAHHHH@Z 12003c09 f   XMLDateTime.obj
 0001:00002c30       ?isLeapYear@xercesc_3_1@@YA_NH@Z 12003c30 f   XMLDateTime.obj
 0001:00002c60       ?maxDayInMonthFor@xercesc_3_1@@YAHHH@Z 12003c60 f   XMLDateTime.obj
 0001:00005101       $L168269                   12006101 f    CIL library: CIL module
 0001:000062c5       $L168231                   120072c5 f    CIL library: CIL module
 0001:00008a02       $L122626                   12009a02 f    CIL library: CIL module
 0001:0000b079       $L179834                   1200c079 f    CIL library: CIL module
 0001:0000c0e6       $L149970                   1200d0e6 f    CIL library: CIL module
 0001:00015f6b       ?formatNode@xercesc_3_1@@YAXQBVContentSpecNode@1@AAVXMLBuffer@1@QAVMemoryManager@1@@Z 12016f6b f   ContentSpecNode.obj
 0001:00019ad6       $L187218                   1201aad6 f    CIL library: CIL module
 0001:00019b30       $L187220                   1201ab30 f    CIL library: CIL module
 0001:00019b90       $L187222                   1201ab90 f    CIL library: CIL module
 0001:00019bf0       $L187224                   1201abf0 f    CIL library: CIL module
 0001:00019c8b       $L187226                   1201ac8b f    CIL library: CIL module
 0001:0001a1ff       $L145049                   1201b1ff f    CIL library: CIL module
 0001:0001a285       $L145051                   1201b285 f    CIL library: CIL module
 0001:0001a484       $L145053                   1201b484 f    CIL library: CIL module
 0001:0001a50a       $L145055                   1201b50a f    CIL library: CIL module
 0001:0001a850       $L145057                   1201b850 f    CIL library: CIL module
 0001:0001a88a       $L145059                   1201b88a f    CIL library: CIL module
 0001:0001ad05       $L164388                   1201bd05 f    CIL library: CIL module
 0001:0001aeee       $L187120                   1201beee f    CIL library: CIL module
 0001:0001af8c       $L187122                   1201bf8c f    CIL library: CIL module
 0001:0001b030       $L187124                   1201c030 f    CIL library: CIL module
 0001:0001b0f0       $L187126                   1201c0f0 f    CIL library: CIL module
 0001:0001bea8       $L164359                   1201cea8 f    CIL library: CIL module
 0001:0001beae       $L164360                   1201ceae f    CIL library: CIL module
 0001:0001c5b0       $L116101                   1201d5b0 f    CIL library: CIL module
 0001:0001d087       $L116081                   1201e087 f    CIL library: CIL module
 0001:0001d2e3       $L164300                   1201e2e3 f    CIL library: CIL module
 0001:0001d36a       $L164271                   1201e36a f    CIL library: CIL module
 0001:0001d383       $L164273                   1201e383 f    CIL library: CIL module
 0001:0001d4d3       $L164231                   1201e4d3 f    CIL library: CIL module
 0001:0001d559       $L164202                   1201e559 f    CIL library: CIL module
 0001:0001d572       $L164204                   1201e572 f    CIL library: CIL module
 0001:0001d62d       $L115982                   1201e62d f    CIL library: CIL module
 0001:0001d636       $L115983                   1201e636 f    CIL library: CIL module
 0001:0001db56       $L164162                   1201eb56 f    CIL library: CIL module
 0001:0001dd53       $L144293                   1201ed53 f    CIL library: CIL module
 0001:0001ddf1       $L144295                   1201edf1 f    CIL library: CIL module
 0001:0001e30b       $L144198                   1201f30b f    CIL library: CIL module
 0001:0001e73f       $L144173                   1201f73f f    CIL library: CIL module
 0001:0001eab0       $L156241                   1201fab0 f    CIL library: CIL module
 0001:0001ee24       $L144135                   1201fe24 f    CIL library: CIL module
 0001:0001f296       $L156067                   12020296 f    CIL library: CIL module
 0001:0001ff7c       $L155773                   12020f7c f    CIL library: CIL module
 0001:0001ff97       $L155774                   12020f97 f    CIL library: CIL module
 0001:0002006b       $L182162                   1202106b f    CIL library: CIL module
 0001:00020166       $L182164                   12021166 f    CIL library: CIL module
 0001:000202b1       $L164063                   120212b1 f    CIL library: CIL module
 0001:0002040f       $L164012                   1202140f f    CIL library: CIL module
 0001:00021170       $L163961                   12022170 f    CIL library: CIL module
 0001:000211f6       $L163932                   120221f6 f    CIL library: CIL module
 0001:0002120f       $L163934                   1202220f f    CIL library: CIL module
 0001:00021576       $L186982                   12022576 f    CIL library: CIL module
 0001:00021699       $L186906                   12022699 f    CIL library: CIL module
 0001:000217dc       $L172482                   120227dc f    CIL library: CIL module
 0001:000218a6       $L172484                   120228a6 f    CIL library: CIL module
 0001:00021978       $L143760                   12022978 f    CIL library: CIL module
 0001:000219e2       $L143725                   120229e2 f    CIL library: CIL module
 0001:00021a4b       $L143727                   12022a4b f    CIL library: CIL module
 0001:00021c2d       $L163884                   12022c2d f    CIL library: CIL module
 0001:00021da7       $L163833                   12022da7 f    CIL library: CIL module
 0001:0002493d       $L155023                   1202593d f    CIL library: CIL module
 0001:00025b8b       $L114182                   12026b8b f    CIL library: CIL module
 0001:0002680b       _report_failure            1202780b f   MSVCRT:secchk.obj
 0001:00026900       $L104607                   12027900 f    CIL library: CIL module
 0001:00026900       $L104324                   12027900 f    CIL library: CIL module
 0001:00026900       $L157327                   12027900 f    CIL library: CIL module
 0001:00026900       $L103881                   12027900 f    CIL library: CIL module
 0001:00026900       $L157310                   12027900 f    CIL library: CIL module
 0001:00026908       __ehhandler$??1SimpleContentModel@xercesc_3_1@@UAE@XZ 12027908 f    CIL library: CIL module
 0001:00026908       __ehhandler$??1MixedContentModel@xercesc_3_1@@UAE@XZ 12027908 f    CIL library: CIL module
 0001:00026908       __ehhandler$??0DFAContentModel@xercesc_3_1@@QAE@_NQAVContentSpecNode@1@QAVMemoryManager@1@@Z 12027908 f    CIL library: CIL module
 0001:00026908       __ehhandler$??0DFAContentModel@xercesc_3_1@@QAE@_NQAVContentSpecNode@1@0QAVMemoryManager@1@@Z 12027908 f    CIL library: CIL module
 0001:00026908       __ehhandler$??1AllContentModel@xercesc_3_1@@UAE@XZ 12027908 f    CIL library: CIL module
 0001:00026912       $L106571                   12027912 f    CIL library: CIL module
 0001:0002691a       __ehhandler$??1?$RefVectorOf@VXercesLocationPath@xercesc_3_1@@@xercesc_3_1@@UAE@XZ 1202791a f    CIL library: CIL module
 0001:00026924       $L106594                   12027924 f    CIL library: CIL module
 0001:0002692c       __ehhandler$??1?$RefVectorOf@VXMLNumber@xercesc_3_1@@@xercesc_3_1@@UAE@XZ 1202792c f    CIL library: CIL module
 0001:00026936       $L106646                   12027936 f    CIL library: CIL module
 0001:0002693e       __ehhandler$??1?$RefVectorOf@VXercesStep@xercesc_3_1@@@xercesc_3_1@@UAE@XZ 1202793e f    CIL library: CIL module
 0001:00026948       $L106669                   12027948 f    CIL library: CIL module
 0001:00026950       __ehhandler$??1?$RefVectorOf@VSchemaAttDef@xercesc_3_1@@@xercesc_3_1@@UAE@XZ 12027950 f    CIL library: CIL module
 0001:0002695a       $L106692                   1202795a f    CIL library: CIL module
 0001:00026962       __ehhandler$??1?$RefVectorOf@VIdentityConstraint@xercesc_3_1@@@xercesc_3_1@@UAE@XZ 12027962 f    CIL library: CIL module
 0001:0002696c       $L106715                   1202796c f    CIL library: CIL module
 0001:00026974       __ehhandler$??1?$RefVectorOf@VIC_Field@xercesc_3_1@@@xercesc_3_1@@UAE@XZ 12027974 f    CIL library: CIL module
 0001:0002697e       $L106738                   1202797e f    CIL library: CIL module
 0001:00026986       __ehhandler$??1?$RefVectorOf@VSchemaElementDecl@xercesc_3_1@@@xercesc_3_1@@UAE@XZ 12027986 f    CIL library: CIL module
 0001:00026990       $L106767                   12027990 f    CIL library: CIL module
 0001:00026998       __ehhandler$??1?$RefVectorOf@VDatatypeValidator@xercesc_3_1@@@xercesc_3_1@@UAE@XZ 12027998 f    CIL library: CIL module
 0001:000269a2       $L106450                   120279a2 f    CIL library: CIL module
 0001:000269a2       $L107073                   120279a2 f    CIL library: CIL module
 0001:000269aa       __ehhandler$?rehash@?$RefHashTableOf@VXSerializedObjectId@xercesc_3_1@@UPtrHasher@2@@xercesc_3_1@@AAEXXZ 120279aa f    CIL library: CIL module
 0001:000269aa       __ehhandler$?rehash@?$RefHashTableOf@VXSAnnotation@xercesc_3_1@@UPtrHasher@2@@xercesc_3_1@@AAEXXZ 120279aa f    CIL library: CIL module
 0001:000269b4       $L108650                   120279b4 f    CIL library: CIL module
 0001:000269bc       $L108651                   120279bc f    CIL library: CIL module
 0001:000269d0       __ehhandler$??1XSAnnotation@xercesc_3_1@@UAE@XZ 120279d0 f    CIL library: CIL module
 0001:000269da       $L144739                   120279da f    CIL library: CIL module
 0001:000269da       $L110788                   120279da f    CIL library: CIL module
 0001:000269da       $L102830                   120279da f    CIL library: CIL module
 0001:000269da       $L110057                   120279da f    CIL library: CIL module
 0001:000269da       $L102320                   120279da f    CIL library: CIL module
 0001:000269da       $L110627                   120279da f    CIL library: CIL module
 0001:000269da       $L110211                   120279da f    CIL library: CIL module
 0001:000269da       $L130329                   120279da f    CIL library: CIL module
 0001:000269da       $L110587                   120279da f    CIL library: CIL module
 0001:000269da       $L110091                   120279da f    CIL library: CIL module
 0001:000269da       $L108781                   120279da f    CIL library: CIL module
 0001:000269da       $L102336                   120279da f    CIL library: CIL module
 0001:000269da       $L123406                   120279da f    CIL library: CIL module
 0001:000269da       $L108666                   120279da f    CIL library: CIL module
 0001:000269da       $L146129                   120279da f    CIL library: CIL module
 0001:000269da       $L108769                   120279da f    CIL library: CIL module
 0001:000269da       $L102352                   120279da f    CIL library: CIL module
 0001:000269da       $L129267                   120279da f    CIL library: CIL module
 0001:000269da       $L102642                   120279da f    CIL library: CIL module
 0001:000269da       $L124094                   120279da f    CIL library: CIL module
 0001:000269da       $L102233                   120279da f    CIL library: CIL module
 0001:000269da       $L115903                   120279da f    CIL library: CIL module
 0001:000269da       $L115298                   120279da f    CIL library: CIL module
 0001:000269da       $L115679                   120279da f    CIL library: CIL module
 0001:000269da       $L102854                   120279da f    CIL library: CIL module
 0001:000269da       $L102586                   120279da f    CIL library: CIL module
 0001:000269da       $L115644                   120279da f    CIL library: CIL module
 0001:000269e2       __ehhandler$??1XMLDTDDescriptionImpl@xercesc_3_1@@UAE@XZ 120279e2 f    CIL library: CIL module
 0001:000269e2       __ehhandler$??1SchemaAttDefList@xercesc_3_1@@UAE@XZ 120279e2 f    CIL library: CIL module
 0001:000269e2       __ehhandler$??0XMLDTDDescriptionImpl@xercesc_3_1@@QAE@QBGQAVMemoryManager@1@@Z 120279e2 f    CIL library: CIL module
 0001:000269e2       __ehhandler$??1XMLSchemaDescriptionImpl@xercesc_3_1@@UAE@XZ 120279e2 f    CIL library: CIL module
 0001:000269e2       __ehhandler$??1DTDAttDefList@xercesc_3_1@@UAE@XZ 120279e2 f    CIL library: CIL module
 0001:000269e2       __ehhandler$??1KVStringPair@xercesc_3_1@@UAE@XZ 120279e2 f    CIL library: CIL module
 0001:000269e2       __ehhandler$??1XercesXPath@xercesc_3_1@@UAE@XZ 120279e2 f    CIL library: CIL module
 0001:000269e2       __ehhandler$??1DatatypeValidatorFactory@xercesc_3_1@@UAE@XZ 120279e2 f    CIL library: CIL module
 0001:000269e2       __ehhandler$??1QName@xercesc_3_1@@UAE@XZ 120279e2 f    CIL library: CIL module
 0001:000269e2       __ehhandler$??0QName@xercesc_3_1@@QAE@ABV01@@Z 120279e2 f    CIL library: CIL module
 0001:000269e2       __ehhandler$??1XMLBigDecimal@xercesc_3_1@@UAE@XZ 120279e2 f    CIL library: CIL module
 0001:000269e2       __ehhandler$??1XercesLocationPath@xercesc_3_1@@UAE@XZ 120279e2 f    CIL library: CIL module
 0001:000269e2       __ehhandler$??0XMLDateTime@xercesc_3_1@@QAE@ABV01@@Z 120279e2 f    CIL library: CIL module
 0001:000269e2       __ehhandler$??1XercesStep@xercesc_3_1@@UAE@XZ 120279e2 f    CIL library: CIL module
 0001:000269e2       __ehhandler$??1XercesNodeTest@xercesc_3_1@@UAE@XZ 120279e2 f    CIL library: CIL module
 0001:000269e2       __ehhandler$??1ComplexTypeInfo@xercesc_3_1@@UAE@XZ 120279e2 f    CIL library: CIL module
 0001:000269e2       __ehhandler$??1ContentSpecNode@xercesc_3_1@@UAE@XZ 120279e2 f    CIL library: CIL module
 0001:000269e2       __ehhandler$??0XMLDateTime@xercesc_3_1@@QAE@QBGQAVMemoryManager@1@@Z 120279e2 f    CIL library: CIL module
 0001:000269e2       __ehhandler$??1XMLNotationDecl@xercesc_3_1@@UAE@XZ 120279e2 f    CIL library: CIL module
 0001:000269e2       __ehhandler$??1XMLRefInfo@xercesc_3_1@@UAE@XZ 120279e2 f    CIL library: CIL module
 0001:000269e2       __ehhandler$??0XSAnnotation@xercesc_3_1@@QAE@QAVMemoryManager@1@@Z 120279e2 f    CIL library: CIL module
 0001:000269e2       __ehhandler$??1IC_Selector@xercesc_3_1@@UAE@XZ 120279e2 f    CIL library: CIL module
 0001:000269e2       __ehhandler$??1IC_Field@xercesc_3_1@@UAE@XZ 120279e2 f    CIL library: CIL module
 0001:000269e2       __ehhandler$??1XercesAttGroupInfo@xercesc_3_1@@UAE@XZ 120279e2 f    CIL library: CIL module
 0001:000269e2       __ehhandler$??1XercesGroupInfo@xercesc_3_1@@UAE@XZ 120279e2 f    CIL library: CIL module
 0001:000269e2       __ehhandler$??1XMLDateTime@xercesc_3_1@@UAE@XZ 120279e2 f    CIL library: CIL module
 0001:000269e2       __ehhandler$??0KVStringPair@xercesc_3_1@@QAE@ABV01@@Z 120279e2 f    CIL library: CIL module
 0001:000269ec       $L110248                   120279ec f    CIL library: CIL module
 0001:000269ec       $L109836                   120279ec f    CIL library: CIL module
 0001:000269ec       $L110534                   120279ec f    CIL library: CIL module
 0001:000269ec       $L108980                   120279ec f    CIL library: CIL module
 0001:000269ec       $L102556                   120279ec f    CIL library: CIL module
 0001:000269ec       $L108907                   120279ec f    CIL library: CIL module
 0001:000269ec       $L130455                   120279ec f    CIL library: CIL module
 0001:000269ec       $L108871                   120279ec f    CIL library: CIL module
 0001:000269ec       $L130788                   120279ec f    CIL library: CIL module
 0001:000269f4       __ehhandler$??1DatatypeValidator@xercesc_3_1@@UAE@XZ 120279f4 f    CIL library: CIL module
 0001:000269f4       __ehhandler$??1DTDGrammar@xercesc_3_1@@UAE@XZ 120279f4 f    CIL library: CIL module
 0001:000269f4       __ehhandler$??1XMLEntityDecl@xercesc_3_1@@UAE@XZ 120279f4 f    CIL library: CIL module
 0001:000269f4       __ehhandler$??1IdentityConstraint@xercesc_3_1@@UAE@XZ 120279f4 f    CIL library: CIL module
 0001:000269f4       __ehhandler$??1XMLElementDecl@xercesc_3_1@@UAE@XZ 120279f4 f    CIL library: CIL module
 0001:000269f4       __ehhandler$??1XMLUri@xercesc_3_1@@UAE@XZ 120279f4 f    CIL library: CIL module
 0001:000269f4       __ehhandler$??1XMLAttDef@xercesc_3_1@@UAE@XZ 120279f4 f    CIL library: CIL module
 0001:000269f4       __ehhandler$??1XMLAbstractDoubleFloat@xercesc_3_1@@UAE@XZ 120279f4 f    CIL library: CIL module
 0001:000269f4       __ehhandler$??1XMLStringPool@xercesc_3_1@@UAE@XZ 120279f4 f    CIL library: CIL module
 0001:000269fe       $L109117                   120279fe f    CIL library: CIL module
 0001:000269fe       $L97430                    120279fe f    CIL library: CIL module
 0001:000269fe       $L97058                    120279fe f    CIL library: CIL module
 0001:000269fe       $L121952                   120279fe f    CIL library: CIL module
 0001:00026a06       __ehhandler$??1StringToken@xercesc_3_1@@UAE@XZ 12027a06 f    CIL library: CIL module
 0001:00026a06       __ehhandler$??0StringToken@xercesc_3_1@@QAE@W4tokType@Token@1@QBGHQAVMemoryManager@1@@Z 12027a06 f    CIL library: CIL module
 0001:00026a06       __ehhandler$??1UnionToken@xercesc_3_1@@UAE@XZ 12027a06 f    CIL library: CIL module
 0001:00026a06       __ehhandler$??1RangeToken@xercesc_3_1@@UAE@XZ 12027a06 f    CIL library: CIL module
 0001:00026a10       $L109148                   12027a10 f    CIL library: CIL module
 0001:00026a18       __ehhandler$??1?$RefVectorOf@VToken@xercesc_3_1@@@xercesc_3_1@@UAE@XZ 12027a18 f    CIL library: CIL module
 0001:00026a22       $L109474                   12027a22 f    CIL library: CIL module
 0001:00026a2a       __ehhandler$??1?$RefVectorOf@VOp@xercesc_3_1@@@xercesc_3_1@@UAE@XZ 12027a2a f    CIL library: CIL module
 0001:00026a34       $L109499                   12027a34 f    CIL library: CIL module
 0001:00026a34       $L122441                   12027a34 f    CIL library: CIL module
 0001:00026a34       $L109529                   12027a34 f    CIL library: CIL module
 0001:00026a3c       __ehhandler$??1StringOp@xercesc_3_1@@UAE@XZ 12027a3c f    CIL library: CIL module
 0001:00026a3c       __ehhandler$??0StringOp@xercesc_3_1@@QAE@W4opType@Op@1@QBGQAVMemoryManager@1@@Z 12027a3c f    CIL library: CIL module
 0001:00026a3c       __ehhandler$??1UnionOp@xercesc_3_1@@UAE@XZ 12027a3c f    CIL library: CIL module
 0001:00026a46       $L109883                   12027a46 f    CIL library: CIL module
 0001:00026a4e       __ehhandler$??1?$RefArrayVectorOf@G@xercesc_3_1@@UAE@XZ 12027a4e f    CIL library: CIL module
 0001:00026a58       $L110642                   12027a58 f    CIL library: CIL module
 0001:00026a60       $L110643                   12027a60 f    CIL library: CIL module
 0001:00026a68       __ehhandler$??0QName@xercesc_3_1@@QAE@QBGIQAVMemoryManager@1@@Z 12027a68 f    CIL library: CIL module
 0001:00026a72       $L110956                   12027a72 f    CIL library: CIL module
 0001:00026a7a       __ehhandler$?decode@Base64@xercesc_3_1@@CAPAEQBEPAKAAPAEQAVMemoryManager@2@W4Conformance@12@@Z 12027a7a f    CIL library: CIL module
 0001:00026a84       $L114183                   12027a84 f    CIL library: CIL module
 0001:00026a8c       $L114184                   12027a8c f    CIL library: CIL module
 0001:00026a94       __ehhandler$??0IdentityConstraint@xercesc_3_1@@IAE@QBG0QAVMemoryManager@1@@Z 12027a94 f    CIL library: CIL module
 0001:00026a9e       $L138489                   12027a9e f    CIL library: CIL module
 0001:00026a9e       $L121409                   12027a9e f    CIL library: CIL module
 0001:00026a9e       $L138558                   12027a9e f    CIL library: CIL module
 0001:00026a9e       $L121927                   12027a9e f    CIL library: CIL module
 0001:00026a9e       $L120939                   12027a9e f    CIL library: CIL module
 0001:00026a9e       $L138259                   12027a9e f    CIL library: CIL module
 0001:00026a9e       $L143696                   12027a9e f    CIL library: CIL module
 0001:00026a9e       $L114225                   12027a9e f    CIL library: CIL module
 0001:00026a9e       $L138064                   12027a9e f    CIL library: CIL module
 0001:00026a9e       $L138051                   12027a9e f    CIL library: CIL module
 0001:00026a9e       $L122415                   12027a9e f    CIL library: CIL module
 0001:00026a9e       $L137372                   12027a9e f    CIL library: CIL module
 0001:00026a9e       $L114276                   12027a9e f    CIL library: CIL module
 0001:00026a9e       $L155466                   12027a9e f    CIL library: CIL module
 0001:00026a9e       $L114300                   12027a9e f    CIL library: CIL module
 0001:00026a9e       $L156101                   12027a9e f    CIL library: CIL module
 0001:00026a9e       $L147955                   12027a9e f    CIL library: CIL module
 0001:00026a9e       $L144232                   12027a9e f    CIL library: CIL module
 0001:00026a9e       $L182737                   12027a9e f    CIL library: CIL module
 0001:00026a9e       $L144245                   12027a9e f    CIL library: CIL module
 0001:00026a9e       $L144258                   12027a9e f    CIL library: CIL module
 0001:00026a9e       $L182808                   12027a9e f    CIL library: CIL module
 0001:00026a9e       $L144271                   12027a9e f    CIL library: CIL module
 0001:00026a9e       $L156114                   12027a9e f    CIL library: CIL module
 0001:00026a9e       $L156127                   12027a9e f    CIL library: CIL module
 0001:00026a9e       $L182879                   12027a9e f    CIL library: CIL module
 0001:00026a9e       $L136982                   12027a9e f    CIL library: CIL module
 0001:00026a9e       $L156140                   12027a9e f    CIL library: CIL module
 0001:00026a9e       $L163797                   12027a9e f    CIL library: CIL module
 0001:00026a9e       $L136087                   12027a9e f    CIL library: CIL module
 0001:00026a9e       $L135994                   12027a9e f    CIL library: CIL module
 0001:00026a9e       $L135651                   12027a9e f    CIL library: CIL module
 0001:00026a9e       $L135638                   12027a9e f    CIL library: CIL module
 0001:00026a9e       $L135370                   12027a9e f    CIL library: CIL module
 0001:00026a9e       $L163705                   12027a9e f    CIL library: CIL module
 0001:00026a9e       $L151141                   12027a9e f    CIL library: CIL module
 0001:00026a9e       $L149494                   12027a9e f    CIL library: CIL module
 0001:00026a9e       $L149507                   12027a9e f    CIL library: CIL module
 0001:00026a9e       $L149601                   12027a9e f    CIL library: CIL module
 0001:00026a9e       $L150706                   12027a9e f    CIL library: CIL module
 0001:00026a9e       $L150330                   12027a9e f    CIL library: CIL module
 0001:00026a9e       $L156275                   12027a9e f    CIL library: CIL module
 0001:00026a9e       $L156288                   12027a9e f    CIL library: CIL module
 0001:00026a9e       $L156301                   12027a9e f    CIL library: CIL module
 0001:00026a9e       $L156314                   12027a9e f    CIL library: CIL module
 0001:00026a9e       $L160501                   12027a9e f    CIL library: CIL module
 0001:00026a9e       $L160521                   12027a9e f    CIL library: CIL module
 0001:00026a9e       $L150054                   12027a9e f    CIL library: CIL module
 0001:00026a9e       $L163283                   12027a9e f    CIL library: CIL module
 0001:00026a9e       $L129342                   12027a9e f    CIL library: CIL module
 0001:00026a9e       $L116585                   12027a9e f    CIL library: CIL module
 0001:00026a9e       $L163296                   12027a9e f    CIL library: CIL module
 0001:00026a9e       $L116598                   12027a9e f    CIL library: CIL module
 0001:00026a9e       $L145186                   12027a9e f    CIL library: CIL module
 0001:00026aa6       __ehhandler$?duplicate@TranscodingException@xercesc_3_1@@UBEPAVXMLException@2@XZ 12027aa6 f    CIL library: CIL module
 0001:00026aa6       __ehhandler$?setMinInclusive@DecimalDatatypeValidator@xercesc_3_1@@MAEXQBG@Z 12027aa6 f    CIL library: CIL module
 0001:00026aa6       __ehhandler$?duplicate@EmptyStackException@xercesc_3_1@@UBEPAVXMLException@2@XZ 12027aa6 f    CIL library: CIL module
 0001:00026aa6       __ehhandler$?duplicate@ParseException@xercesc_3_1@@UBEPAVXMLException@2@XZ 12027aa6 f    CIL library: CIL module
 0001:00026aa6       __ehhandler$?setMinExclusive@DecimalDatatypeValidator@xercesc_3_1@@MAEXQBG@Z 12027aa6 f    CIL library: CIL module
 0001:00026aa6       __ehhandler$?setMaxInclusive@DecimalDatatypeValidator@xercesc_3_1@@MAEXQBG@Z 12027aa6 f    CIL library: CIL module
 0001:00026aa6       __ehhandler$?duplicate@NullPointerException@xercesc_3_1@@UBEPAVXMLException@2@XZ 12027aa6 f    CIL library: CIL module
 0001:00026aa6       __ehhandler$?duplicate@NoSuchElementException@xercesc_3_1@@UBEPAVXMLException@2@XZ 12027aa6 f    CIL library: CIL module
 0001:00026aa6       __ehhandler$?faultInAttDefList@DTDElementDecl@xercesc_3_1@@ABEXXZ 12027aa6 f    CIL library: CIL module
 0001:00026aa6       __ehhandler$?duplicate@XSerializationException@xercesc_3_1@@UBEPAVXMLException@2@XZ 12027aa6 f    CIL library: CIL module
 0001:00026aa6       __ehhandler$?createObject@XercesGroupInfo@xercesc_3_1@@SAPAVXSerializable@2@PAVMemoryManager@2@@Z 12027aa6 f    CIL library: CIL module
 0001:00026aa6       __ehhandler$?duplicate@IllegalArgumentException@xercesc_3_1@@UBEPAVXMLException@2@XZ 12027aa6 f    CIL library: CIL module
 0001:00026aa6       __ehhandler$?duplicate@UTFDataFormatException@xercesc_3_1@@UBEPAVXMLException@2@XZ 12027aa6 f    CIL library: CIL module
 0001:00026aa6       __ehhandler$?duplicate@RuntimeException@xercesc_3_1@@UBEPAVXMLException@2@XZ 12027aa6 f    CIL library: CIL module
 0001:00026aa6       __ehhandler$?createObject@XSAnnotation@xercesc_3_1@@SAPAVXSerializable@2@PAVMemoryManager@2@@Z 12027aa6 f    CIL library: CIL module
 0001:00026aa6       __ehhandler$?createObject@XMLStringPool@xercesc_3_1@@SAPAVXSerializable@2@PAVMemoryManager@2@@Z 12027aa6 f    CIL library: CIL module
 0001:00026aa6       __ehhandler$?duplicate@MalformedURLException@xercesc_3_1@@UBEPAVXMLException@2@XZ 12027aa6 f    CIL library: CIL module
 0001:00026aa6       __ehhandler$?createObject@IC_Unique@xercesc_3_1@@SAPAVXSerializable@2@PAVMemoryManager@2@@Z 12027aa6 f    CIL library: CIL module
 0001:00026aa6       __ehhandler$?createObject@IC_KeyRef@xercesc_3_1@@SAPAVXSerializable@2@PAVMemoryManager@2@@Z 12027aa6 f    CIL library: CIL module
 0001:00026aa6       __ehhandler$?createObject@DTDGrammar@xercesc_3_1@@SAPAVXSerializable@2@PAVMemoryManager@2@@Z 12027aa6 f    CIL library: CIL module
 0001:00026aa6       __ehhandler$?createObject@IC_Key@xercesc_3_1@@SAPAVXSerializable@2@PAVMemoryManager@2@@Z 12027aa6 f    CIL library: CIL module
 0001:00026aa6       __ehhandler$?setElementName@XMLElementDecl@xercesc_3_1@@QAEXQBGH@Z 12027aa6 f    CIL library: CIL module
 0001:00026aa6       __ehhandler$??0TokenFactory@xercesc_3_1@@QAE@QAVMemoryManager@1@@Z 12027aa6 f    CIL library: CIL module
 0001:00026aa6       __ehhandler$?duplicate@ArrayIndexOutOfBoundsException@xercesc_3_1@@UBEPAVXMLException@2@XZ 12027aa6 f    CIL library: CIL module
 0001:00026aa6       __ehhandler$?setMinExclusive@FloatDatatypeValidator@xercesc_3_1@@MAEXQBG@Z 12027aa6 f    CIL library: CIL module
 0001:00026aa6       __ehhandler$?duplicate@InvalidDatatypeValueException@xercesc_3_1@@UBEPAVXMLException@2@XZ 12027aa6 f    CIL library: CIL module
 0001:00026aa6       __ehhandler$?duplicate@NumberFormatException@xercesc_3_1@@UBEPAVXMLException@2@XZ 12027aa6 f    CIL library: CIL module
 0001:00026aa6       __ehhandler$??0OpFactory@xercesc_3_1@@QAE@QAVMemoryManager@1@@Z 12027aa6 f    CIL library: CIL module
 0001:00026aa6       __ehhandler$?loadObject@XTemplateSerializer@xercesc_3_1@@SAXPAPAV?$NameIdPool@VXMLNotationDecl@xercesc_3_1@@@2@HHAAVXSerializeEngine@2@@Z 12027aa6 f    CIL library: CIL module
 0001:00026aa6       __ehhandler$?loadObject@XTemplateSerializer@xercesc_3_1@@SAXPAPAV?$NameIdPool@VDTDEntityDecl@xercesc_3_1@@@2@HHAAVXSerializeEngine@2@@Z 12027aa6 f    CIL library: CIL module
 0001:00026aa6       __ehhandler$?setMinInclusive@FloatDatatypeValidator@xercesc_3_1@@MAEXQBG@Z 12027aa6 f    CIL library: CIL module
 0001:00026aa6       __ehhandler$?duplicate@SchemaDateTimeException@xercesc_3_1@@UBEPAVXMLException@2@XZ 12027aa6 f    CIL library: CIL module
 0001:00026aa6       __ehhandler$?setMaxExclusive@FloatDatatypeValidator@xercesc_3_1@@MAEXQBG@Z 12027aa6 f    CIL library: CIL module
 0001:00026aa6       __ehhandler$?loadObject@XTemplateSerializer@xercesc_3_1@@SAXPAPAV?$NameIdPool@VDTDElementDecl@xercesc_3_1@@@2@HHAAVXSerializeEngine@2@@Z 12027aa6 f    CIL library: CIL module
 0001:00026aa6       __ehhandler$?setMaxInclusive@FloatDatatypeValidator@xercesc_3_1@@MAEXQBG@Z 12027aa6 f    CIL library: CIL module
 0001:00026aa6       __ehhandler$?getAttDefList@DTDElementDecl@xercesc_3_1@@UBEAAVXMLAttDefList@2@XZ 12027aa6 f    CIL library: CIL module
 0001:00026aa6       __ehhandler$?createUnionOp@OpFactory@xercesc_3_1@@QAEPAVUnionOp@2@K@Z 12027aa6 f    CIL library: CIL module
 0001:00026aa6       __ehhandler$?createStringOp@OpFactory@xercesc_3_1@@QAEPAVStringOp@2@QBG@Z 12027aa6 f    CIL library: CIL module
 0001:00026aa6       __ehhandler$?makeContentModel@DTDElementDecl@xercesc_3_1@@AAEPAVXMLContentModel@2@XZ 12027aa6 f    CIL library: CIL module
 0001:00026aa6       __ehhandler$?setMinExclusive@DoubleDatatypeValidator@xercesc_3_1@@MAEXQBG@Z 12027aa6 f    CIL library: CIL module
 0001:00026aa6       __ehhandler$?createObject@ComplexTypeInfo@xercesc_3_1@@SAPAVXSerializable@2@PAVMemoryManager@2@@Z 12027aa6 f    CIL library: CIL module
 0001:00026aa6       __ehhandler$?setMinInclusive@DoubleDatatypeValidator@xercesc_3_1@@MAEXQBG@Z 12027aa6 f    CIL library: CIL module
 0001:00026aa6       __ehhandler$?createBackReference@TokenFactory@xercesc_3_1@@QAEPAVStringToken@2@H@Z 12027aa6 f    CIL library: CIL module
 0001:00026aa6       __ehhandler$?setMaxExclusive@DoubleDatatypeValidator@xercesc_3_1@@MAEXQBG@Z 12027aa6 f    CIL library: CIL module
 0001:00026aa6       __ehhandler$?setMaxExclusive@DecimalDatatypeValidator@xercesc_3_1@@MAEXQBG@Z 12027aa6 f    CIL library: CIL module
 0001:00026aa6       __ehhandler$?setMaxInclusive@DoubleDatatypeValidator@xercesc_3_1@@MAEXQBG@Z 12027aa6 f    CIL library: CIL module
 0001:00026aa6       __ehhandler$?createString@TokenFactory@xercesc_3_1@@QAEPAVStringToken@2@QBG@Z 12027aa6 f    CIL library: CIL module
 0001:00026aa6       __ehhandler$?setElementName@XMLElementDecl@xercesc_3_1@@QAEXQBG0H@Z 12027aa6 f    CIL library: CIL module
 0001:00026aa6       __ehhandler$?getFirstPos@CMNode@xercesc_3_1@@QAEABVCMStateSet@2@XZ 12027aa6 f    CIL library: CIL module
 0001:00026aa6       __ehhandler$?getLastPos@CMNode@xercesc_3_1@@QAEABVCMStateSet@2@XZ 12027aa6 f    CIL library: CIL module
 0001:00026aa6       __ehhandler$?duplicate@InvalidDatatypeFacetException@xercesc_3_1@@UBEPAVXMLException@2@XZ 12027aa6 f    CIL library: CIL module
 0001:00026aa6       __ehhandler$?createObject@SchemaGrammar@xercesc_3_1@@SAPAVXSerializable@2@PAVMemoryManager@2@@Z 12027aa6 f    CIL library: CIL module
 0001:00026aa6       __ehhandler$??0Context@RegularExpression@xercesc_3_1@@QAE@PAV012@@Z 12027aa6 f    CIL library: CIL module
 0001:00026aa6       __ehhandler$??4Context@RegularExpression@xercesc_3_1@@QAEAAV012@ABV012@@Z 12027aa6 f    CIL library: CIL module
 0001:00026ab0       $L189702                   12027ab0 f    CIL library: CIL module
 0001:00026ab0       $L114392                   12027ab0 f    CIL library: CIL module
 0001:00026ab0       $L114413                   12027ab0 f    CIL library: CIL module
 0001:00026ab0       $L182354                   12027ab0 f    CIL library: CIL module
 0001:00026ab0       $L189918                   12027ab0 f    CIL library: CIL module
 0001:00026ab8       __ehhandler$?serialize@DTDAttDefList@xercesc_3_1@@UAEXAAVXSerializeEngine@2@@Z 12027ab8 f    CIL library: CIL module
 0001:00026ab8       __ehhandler$?serialize@SchemaAttDefList@xercesc_3_1@@UAEXAAVXSerializeEngine@2@@Z 12027ab8 f    CIL library: CIL module
 0001:00026ab8       __ehhandler$?setPattern@DatatypeValidator@xercesc_3_1@@IAEXPBG@Z 12027ab8 f    CIL library: CIL module
 0001:00026ab8       __ehhandler$?setEnclosingElementName@XMLSchemaDescriptionImpl@xercesc_3_1@@UAEXQAVQName@2@@Z 12027ab8 f    CIL library: CIL module
 0001:00026ab8       __ehhandler$?setTriggeringComponent@XMLSchemaDescriptionImpl@xercesc_3_1@@UAEXQAVQName@2@@Z 12027ab8 f    CIL library: CIL module
 0001:00026ac2       $L115333                   12027ac2 f    CIL library: CIL module
 0001:00026aca       __ehhandler$??1SchemaAttDef@xercesc_3_1@@UAE@XZ 12027aca f    CIL library: CIL module
 0001:00026ad4       $L115941                   12027ad4 f    CIL library: CIL module
 0001:00026adc       __ehhandler$??1DTDAttDef@xercesc_3_1@@UAE@XZ 12027adc f    CIL library: CIL module
 0001:00026ae6       $L115984                   12027ae6 f    CIL library: CIL module
 0001:00026aee       $L115985                   12027aee f    CIL library: CIL module
 0001:00026af6       __ehhandler$?compare@DateTimeValidator@xercesc_3_1@@UAEHQBG0QAVMemoryManager@2@@Z 12027af6 f    CIL library: CIL module
 0001:00026b00       __ehhandler$?getCanonicalRepresentation@DatatypeValidator@xercesc_3_1@@UBEPBGQBGQAVMemoryManager@2@_N@Z 12027b00 f    CIL library: CIL module
 0001:00026b0a       __ehhandler$?getCanonicalRepresentation@BooleanDatatypeValidator@xercesc_3_1@@UBEPBGQBGQAVMemoryManager@2@_N@Z 12027b0a f    CIL library: CIL module
 0001:00026b14       $L118246                   12027b14 f    CIL library: CIL module
 0001:00026b14       $L118200                   12027b14 f    CIL library: CIL module
 0001:00026b14       $L118438                   12027b14 f    CIL library: CIL module
 0001:00026b14       $L118062                   12027b14 f    CIL library: CIL module
 0001:00026b14       $L118002                   12027b14 f    CIL library: CIL module
 0001:00026b14       $L118325                   12027b14 f    CIL library: CIL module
 0001:00026b14       $L118108                   12027b14 f    CIL library: CIL module
 0001:00026b14       $L118393                   12027b14 f    CIL library: CIL module
 0001:00026b14       $L118154                   12027b14 f    CIL library: CIL module
 0001:00026b14       $L116339                   12027b14 f    CIL library: CIL module
 0001:00026b14       $L123755                   12027b14 f    CIL library: CIL module
 0001:00026b14       $L104543                   12027b14 f    CIL library: CIL module
 0001:00026b14       $L118292                   12027b14 f    CIL library: CIL module
 0001:00026b14       $L119722                   12027b14 f    CIL library: CIL module
 0001:00026b14       $L121178                   12027b14 f    CIL library: CIL module
 0001:00026b14       $L117969                   12027b14 f    CIL library: CIL module
 0001:00026b1c       __ehhandler$?rehash@?$RefHashTableOf@VGrammar@xercesc_3_1@@UStringHasher@2@@xercesc_3_1@@AAEXXZ 12027b1c f    CIL library: CIL module
 0001:00026b1c       __ehhandler$?rehash@?$RefHashTableOf@UPoolElem@XMLStringPool@xercesc_3_1@@UStringHasher@3@@xercesc_3_1@@AAEXXZ 12027b1c f    CIL library: CIL module
 0001:00026b1c       __ehhandler$?rehash@?$RefHashTableOf@VXMLInteger@xercesc_3_1@@UCMStateSetHasher@2@@xercesc_3_1@@AAEXXZ 12027b1c f    CIL library: CIL module
 0001:00026b1c       __ehhandler$?rehash@?$RefHash2KeysTableOf@V?$ValueVectorOf@PAVSchemaElementDecl@xercesc_3_1@@@xercesc_3_1@@UStringHasher@2@@xercesc_3_1@@AAEXXZ 12027b1c f    CIL library: CIL module
 0001:00026b1c       __ehhandler$?rehash@?$RefHashTableOf@VDTDAttDef@xercesc_3_1@@UStringHasher@2@@xercesc_3_1@@AAEXXZ 12027b1c f    CIL library: CIL module
 0001:00026b1c       __ehhandler$?rehash@?$RefHashTableOf@VKVStringPair@xercesc_3_1@@UStringHasher@2@@xercesc_3_1@@AAEXXZ 12027b1c f    CIL library: CIL module
 0001:00026b1c       __ehhandler$?rehash@?$RefHashTableOf@VXMLAttDef@xercesc_3_1@@UStringHasher@2@@xercesc_3_1@@AAEXXZ 12027b1c f    CIL library: CIL module
 0001:00026b1c       __ehhandler$?rehash@?$RefHashTableOf@VDTDEntityDecl@xercesc_3_1@@UStringHasher@2@@xercesc_3_1@@AAEXXZ 12027b1c f    CIL library: CIL module
 0001:00026b1c       __ehhandler$?rehash@?$RefHashTableOf@VComplexTypeInfo@xercesc_3_1@@UStringHasher@2@@xercesc_3_1@@AAEXXZ 12027b1c f    CIL library: CIL module
 0001:00026b1c       __ehhandler$?rehash@?$RefHashTableOf@VXercesGroupInfo@xercesc_3_1@@UStringHasher@2@@xercesc_3_1@@AAEXXZ 12027b1c f    CIL library: CIL module
 0001:00026b1c       __ehhandler$?rehash@?$RefHash2KeysTableOf@VSchemaAttDef@xercesc_3_1@@UStringHasher@2@@xercesc_3_1@@AAEXXZ 12027b1c f    CIL library: CIL module
 0001:00026b1c       __ehhandler$?rehash@?$RefHashTableOf@VDTDElementDecl@xercesc_3_1@@UStringHasher@2@@xercesc_3_1@@AAEXXZ 12027b1c f    CIL library: CIL module
 0001:00026b1c       __ehhandler$?rehash@?$RefHashTableOf@VDatatypeValidator@xercesc_3_1@@UStringHasher@2@@xercesc_3_1@@AAEXXZ 12027b1c f    CIL library: CIL module
 0001:00026b1c       __ehhandler$?rehash@?$RefHashTableOf@VXMLNotationDecl@xercesc_3_1@@UStringHasher@2@@xercesc_3_1@@AAEXXZ 12027b1c f    CIL library: CIL module
 0001:00026b1c       __ehhandler$?validateContent@AllContentModel@xercesc_3_1@@UBE_NQAPAVQName@2@KIPAKQAVMemoryManager@2@@Z 12027b1c f    CIL library: CIL module
 0001:00026b1c       __ehhandler$?rehash@?$RefHashTableOf@VXercesAttGroupInfo@xercesc_3_1@@UStringHasher@2@@xercesc_3_1@@AAEXXZ 12027b1c f    CIL library: CIL module
 0001:00026b26       $L116506                   12027b26 f    CIL library: CIL module
 0001:00026b2e       __ehhandler$??1DFAContentModel@xercesc_3_1@@UAE@XZ 12027b2e f    CIL library: CIL module
 0001:00026b38       $L116557                   12027b38 f    CIL library: CIL module
 0001:00026b40       $L116558                   12027b40 f    CIL library: CIL module
 0001:00026b48       $L116559                   12027b48 f    CIL library: CIL module
 0001:00026b50       $L116560                   12027b50 f    CIL library: CIL module
 0001:00026b58       __ehhandler$??0ContentSpecNode@xercesc_3_1@@QAE@ABV01@@Z 12027b58 f    CIL library: CIL module
 0001:00026b62       $L118607                   12027b62 f    CIL library: CIL module
 0001:00026b6a       __ehhandler$??1?$RefHashTableOfEnumerator@VXSAnnotation@xercesc_3_1@@UPtrHasher@2@@xercesc_3_1@@UAE@XZ 12027b6a f    CIL library: CIL module
 0001:00026b74       $L118692                   12027b74 f    CIL library: CIL module
 0001:00026b7c       __ehhandler$??1?$RefHashTableOfEnumerator@VDTDAttDef@xercesc_3_1@@UStringHasher@2@@xercesc_3_1@@UAE@XZ 12027b7c f    CIL library: CIL module
 0001:00026b86       $L118779                   12027b86 f    CIL library: CIL module
 0001:00026b8e       __ehhandler$??1?$RefHash2KeysTableOfEnumerator@VSchemaAttDef@xercesc_3_1@@UStringHasher@2@@xercesc_3_1@@UAE@XZ 12027b8e f    CIL library: CIL module
 0001:00026b98       $L118958                   12027b98 f    CIL library: CIL module
 0001:00026ba0       __ehhandler$??1?$RefHashTableOfEnumerator@VKVStringPair@xercesc_3_1@@UStringHasher@2@@xercesc_3_1@@UAE@XZ 12027ba0 f    CIL library: CIL module
 0001:00026baa       $L120624                   12027baa f    CIL library: CIL module
 0001:00026bb2       __ehhandler$??1?$RefHashTableOfEnumerator@VXercesGroupInfo@xercesc_3_1@@UStringHasher@2@@xercesc_3_1@@UAE@XZ 12027bb2 f    CIL library: CIL module
 0001:00026bbc       $L120640                   12027bbc f    CIL library: CIL module
 0001:00026bc4       __ehhandler$??1?$RefHashTableOfEnumerator@VXercesAttGroupInfo@xercesc_3_1@@UStringHasher@2@@xercesc_3_1@@UAE@XZ 12027bc4 f    CIL library: CIL module
 0001:00026bce       $L120656                   12027bce f    CIL library: CIL module
 0001:00026bd6       __ehhandler$??1?$RefHashTableOfEnumerator@VComplexTypeInfo@xercesc_3_1@@UStringHasher@2@@xercesc_3_1@@UAE@XZ 12027bd6 f    CIL library: CIL module
 0001:00026be0       $L120672                   12027be0 f    CIL library: CIL module
 0001:00026be8       __ehhandler$??1?$RefHashTableOfEnumerator@VXMLAttDef@xercesc_3_1@@UStringHasher@2@@xercesc_3_1@@UAE@XZ 12027be8 f    CIL library: CIL module
 0001:00026bf2       $L120725                   12027bf2 f    CIL library: CIL module
 0001:00026bfa       __ehhandler$??1?$RefHash3KeysIdPoolEnumerator@VSchemaElementDecl@xercesc_3_1@@UStringHasher@2@@xercesc_3_1@@UAE@XZ 12027bfa f    CIL library: CIL module
 0001:00026c04       $L121990                   12027c04 f    CIL library: CIL module
 0001:00026c0c       __ehhandler$??1?$RefVectorOf@VReferencePosition@RegxParser@xercesc_3_1@@@xercesc_3_1@@UAE@XZ 12027c0c f    CIL library: CIL module
 0001:00026c16       $L122486                   12027c16 f    CIL library: CIL module
 0001:00026c1e       $L122487                   12027c1e f    CIL library: CIL module
 0001:00026c26       __ehhandler$??0UnionOp@xercesc_3_1@@QAE@W4opType@Op@1@KQAVMemoryManager@1@@Z 12027c26 f    CIL library: CIL module
 0001:00026c30       $L122592                   12027c30 f    CIL library: CIL module
 0001:00026c38       __ehhandler$?matches@BMPattern@xercesc_3_1@@QBEHQBGKK@Z 12027c38 f    CIL library: CIL module
 0001:00026c42       $L122627                   12027c42 f    CIL library: CIL module
 0001:00026c4a       __ehhandler$??0BMPattern@xercesc_3_1@@QAE@QBGH_NQAVMemoryManager@1@@Z 12027c4a f    CIL library: CIL module
 0001:00026c54       $L123436                   12027c54 f    CIL library: CIL module
 0001:00026c5e       $L123437                   12027c5e f    CIL library: CIL module
 0001:00026c6b       __ehhandler$?compareOrder@XMLDateTime@xercesc_3_1@@SAHQBV12@0@Z 12027c6b f    CIL library: CIL module
 0001:00026c75       $L123460                   12027c75 f    CIL library: CIL module
 0001:00026c7f       __ehhandler$?compareResult@XMLDateTime@xercesc_3_1@@CAHQBV12@0_NH@Z 12027c7f f    CIL library: CIL module
 0001:00026c89       $L123503                   12027c89 f    CIL library: CIL module
 0001:00026c96       $L123504                   12027c96 f    CIL library: CIL module
 0001:00026ca0       __ehhandler$?compare@XMLDateTime@xercesc_3_1@@SAHQBV12@0_N@Z 12027ca0 f    CIL library: CIL module
 0001:00026caa       $L136620                   12027caa f    CIL library: CIL module
 0001:00026caa       $L130914                   12027caa f    CIL library: CIL module
 0001:00026caa       $L136607                   12027caa f    CIL library: CIL module
 0001:00026caa       $L136533                   12027caa f    CIL library: CIL module
 0001:00026caa       $L130803                   12027caa f    CIL library: CIL module
 0001:00026caa       $L130927                   12027caa f    CIL library: CIL module
 0001:00026caa       $L124047                   12027caa f    CIL library: CIL module
 0001:00026caa       $L123733                   12027caa f    CIL library: CIL module
 0001:00026caa       $L135981                   12027caa f    CIL library: CIL module
 0001:00026caa       $L135968                   12027caa f    CIL library: CIL module
 0001:00026caa       $L135734                   12027caa f    CIL library: CIL module
 0001:00026caa       $L123519                   12027caa f    CIL library: CIL module
 0001:00026caa       $L135485                   12027caa f    CIL library: CIL module
 0001:00026caa       $L135335                   12027caa f    CIL library: CIL module
 0001:00026caa       $L135322                   12027caa f    CIL library: CIL module
 0001:00026caa       $L135309                   12027caa f    CIL library: CIL module
 0001:00026caa       $L123558                   12027caa f    CIL library: CIL module
 0001:00026caa       $L134515                   12027caa f    CIL library: CIL module
 0001:00026caa       $L123571                   12027caa f    CIL library: CIL module
 0001:00026caa       $L133765                   12027caa f    CIL library: CIL module
 0001:00026caa       $L123586                   12027caa f    CIL library: CIL module
 0001:00026caa       $L123714                   12027caa f    CIL library: CIL module
 0001:00026caa       $L131459                   12027caa f    CIL library: CIL module
 0001:00026caa       $L124262                   12027caa f    CIL library: CIL module
 0001:00026cb2       __ehhandler$??0TranscodingException@xercesc_3_1@@QAE@QBD_KW4Codes@XMLExcepts@1@PAVMemoryManager@1@@Z 12027cb2 f    CIL library: CIL module
 0001:00026cb2       __ehhandler$??0InvalidDatatypeFacetException@xercesc_3_1@@QAE@QBD_KW4Codes@XMLExcepts@1@0000PAVMemoryManager@1@@Z 12027cb2 f    CIL library: CIL module
 0001:00026cb2       __ehhandler$??0InvalidDatatypeFacetException@xercesc_3_1@@QAE@QBD_KW4Codes@XMLExcepts@1@QBG333PAVMemoryManager@1@@Z 12027cb2 f    CIL library: CIL module
 0001:00026cb2       __ehhandler$??0InvalidDatatypeFacetException@xercesc_3_1@@QAE@QBD_KW4Codes@XMLExcepts@1@PAVMemoryManager@1@@Z 12027cb2 f    CIL library: CIL module
 0001:00026cb2       __ehhandler$??0MalformedURLException@xercesc_3_1@@QAE@QBD_KW4Codes@XMLExcepts@1@PAVMemoryManager@1@@Z 12027cb2 f    CIL library: CIL module
 0001:00026cb2       __ehhandler$??0MalformedURLException@xercesc_3_1@@QAE@QBD_KW4Codes@XMLExcepts@1@QBG333PAVMemoryManager@1@@Z 12027cb2 f    CIL library: CIL module
 0001:00026cb2       __ehhandler$??0UTFDataFormatException@xercesc_3_1@@QAE@QBD_KW4Codes@XMLExcepts@1@0000PAVMemoryManager@1@@Z 12027cb2 f    CIL library: CIL module
 0001:00026cb2       __ehhandler$??0ParseException@xercesc_3_1@@QAE@QBD_KW4Codes@XMLExcepts@1@PAVMemoryManager@1@@Z 12027cb2 f    CIL library: CIL module
 0001:00026cb2       __ehhandler$??0ParseException@xercesc_3_1@@QAE@QBD_KW4Codes@XMLExcepts@1@QBG333PAVMemoryManager@1@@Z 12027cb2 f    CIL library: CIL module
 0001:00026cb2       __ehhandler$??0EmptyStackException@xercesc_3_1@@QAE@QBD_KW4Codes@XMLExcepts@1@PAVMemoryManager@1@@Z 12027cb2 f    CIL library: CIL module
 0001:00026cb2       __ehhandler$??0NullPointerException@xercesc_3_1@@QAE@QBD_KW4Codes@XMLExcepts@1@PAVMemoryManager@1@@Z 12027cb2 f    CIL library: CIL module
 0001:00026cb2       __ehhandler$??0SchemaDateTimeException@xercesc_3_1@@QAE@QBD_KW4Codes@XMLExcepts@1@QBG333PAVMemoryManager@1@@Z 12027cb2 f    CIL library: CIL module
 0001:00026cb2       __ehhandler$??0NoSuchElementException@xercesc_3_1@@QAE@QBD_KW4Codes@XMLExcepts@1@PAVMemoryManager@1@@Z 12027cb2 f    CIL library: CIL module
 0001:00026cb2       __ehhandler$??0XSerializationException@xercesc_3_1@@QAE@QBD_KW4Codes@XMLExcepts@1@PAVMemoryManager@1@@Z 12027cb2 f    CIL library: CIL module
 0001:00026cb2       __ehhandler$??0XSerializationException@xercesc_3_1@@QAE@QBD_KW4Codes@XMLExcepts@1@QBG333PAVMemoryManager@1@@Z 12027cb2 f    CIL library: CIL module
 0001:00026cb2       __ehhandler$??0NumberFormatException@xercesc_3_1@@QAE@QBD_KW4Codes@XMLExcepts@1@QBG333PAVMemoryManager@1@@Z 12027cb2 f    CIL library: CIL module
 0001:00026cb2       __ehhandler$??0IllegalArgumentException@xercesc_3_1@@QAE@QBD_KW4Codes@XMLExcepts@1@QBG333PAVMemoryManager@1@@Z 12027cb2 f    CIL library: CIL module
 0001:00026cb2       __ehhandler$??0IllegalArgumentException@xercesc_3_1@@QAE@QBD_KW4Codes@XMLExcepts@1@PAVMemoryManager@1@@Z 12027cb2 f    CIL library: CIL module
 0001:00026cb2       __ehhandler$??0InvalidDatatypeValueException@xercesc_3_1@@QAE@QBD_KW4Codes@XMLExcepts@1@QBG333PAVMemoryManager@1@@Z 12027cb2 f    CIL library: CIL module
 0001:00026cb2       __ehhandler$??0NumberFormatException@xercesc_3_1@@QAE@QBD_KW4Codes@XMLExcepts@1@PAVMemoryManager@1@@Z 12027cb2 f    CIL library: CIL module
 0001:00026cb2       __ehhandler$??0ArrayIndexOutOfBoundsException@xercesc_3_1@@QAE@QBD_KW4Codes@XMLExcepts@1@PAVMemoryManager@1@@Z 12027cb2 f    CIL library: CIL module
 0001:00026cb2       __ehhandler$??0TranscodingException@xercesc_3_1@@QAE@QBD_KW4Codes@XMLExcepts@1@QBG333PAVMemoryManager@1@@Z 12027cb2 f    CIL library: CIL module
 0001:00026cb2       __ehhandler$??0RuntimeException@xercesc_3_1@@QAE@QBD_KW4Codes@XMLExcepts@1@0000PAVMemoryManager@1@@Z 12027cb2 f    CIL library: CIL module
 0001:00026cb2       __ehhandler$??0RuntimeException@xercesc_3_1@@QAE@QBD_KW4Codes@XMLExcepts@1@PAVMemoryManager@1@@Z 12027cb2 f    CIL library: CIL module
 0001:00026cbc       $L123908                   12027cbc f    CIL library: CIL module
 0001:00026cc4       $L123909                   12027cc4 f    CIL library: CIL module
 0001:00026ccc       __ehhandler$??0QName@xercesc_3_1@@QAE@QBG0IQAVMemoryManager@1@@Z 12027ccc f    CIL library: CIL module
 0001:00026cd6       $L124291                   12027cd6 f    CIL library: CIL module
 0001:00026cde       __ehhandler$?decodeToXMLByte@Base64@xercesc_3_1@@SAPAEQBGPAKQAVMemoryManager@2@W4Conformance@12@@Z 12027cde f    CIL library: CIL module
 0001:00026ce8       $L129302                   12027ce8 f    CIL library: CIL module
 0001:00026cf0       $L129303                   12027cf0 f    CIL library: CIL module
 0001:00026cf8       __ehhandler$??0XMLSchemaDescriptionImpl@xercesc_3_1@@QAE@QBGQAVMemoryManager@1@@Z 12027cf8 f    CIL library: CIL module
 0001:00026d02       $L130545                   12027d02 f    CIL library: CIL module
 0001:00026d02       $L130116                   12027d02 f    CIL library: CIL module
 0001:00026d02       $L130558                   12027d02 f    CIL library: CIL module
 0001:00026d02       $L143289                   12027d02 f    CIL library: CIL module
 0001:00026d0a       __ehhandler$??0SchemaElementDecl@xercesc_3_1@@QAE@QBG0HW4ModelTypes@01@IQAVMemoryManager@1@@Z 12027d0a f    CIL library: CIL module
 0001:00026d0a       __ehhandler$??1DTDElementDecl@xercesc_3_1@@UAE@XZ 12027d0a f    CIL library: CIL module
 0001:00026d0a       __ehhandler$??1SchemaElementDecl@xercesc_3_1@@UAE@XZ 12027d0a f    CIL library: CIL module
 0001:00026d0a       __ehhandler$??0DTDElementDecl@xercesc_3_1@@QAE@QBGIW4ModelTypes@01@QAVMemoryManager@1@@Z 12027d0a f    CIL library: CIL module
 0001:00026d14       $L130586                   12027d14 f    CIL library: CIL module
 0001:00026d1c       $L130587                   12027d1c f    CIL library: CIL module
 0001:00026d24       $L130588                   12027d24 f    CIL library: CIL module
 0001:00026d2c       $L130589                   12027d2c f    CIL library: CIL module
 0001:00026d34       $L130590                   12027d34 f    CIL library: CIL module
 0001:00026d3c       __ehhandler$??0SimpleContentModel@xercesc_3_1@@QAE@_NQAVQName@1@1W4NodeTypes@ContentSpecNode@1@QAVMemoryManager@1@@Z 12027d3c f    CIL library: CIL module
 0001:00026d46       $L143791                   12027d46 f    CIL library: CIL module
 0001:00026d46       $L130867                   12027d46 f    CIL library: CIL module
 0001:00026d46       $L130904                   12027d46 f    CIL library: CIL module
 0001:00026d4e       __ehhandler$??1AbstractStringValidator@xercesc_3_1@@UAE@XZ 12027d4e f    CIL library: CIL module
 0001:00026d4e       __ehhandler$??1AbstractNumericFacetValidator@xercesc_3_1@@UAE@XZ 12027d4e f    CIL library: CIL module
 0001:00026d4e       __ehhandler$??1UnionDatatypeValidator@xercesc_3_1@@UAE@XZ 12027d4e f    CIL library: CIL module
 0001:00026d58       $L131132                   12027d58 f    CIL library: CIL module
 0001:00026d60       __ehhandler$?getGrammar@GrammarResolver@xercesc_3_1@@QAEPAVGrammar@2@QBG@Z 12027d60 f    CIL library: CIL module
 0001:00026d6a       $L131214                   12027d6a f    CIL library: CIL module
 0001:00026d6a       $L131330                   12027d6a f    CIL library: CIL module
 0001:00026d6a       $L146197                   12027d6a f    CIL library: CIL module
 0001:00026d6a       $L131392                   12027d6a f    CIL library: CIL module
 0001:00026d6a       $L131343                   12027d6a f    CIL library: CIL module
 0001:00026d6a       $L131375                   12027d6a f    CIL library: CIL module
 0001:00026d72       __ehhandler$??0CMBinaryOp@xercesc_3_1@@QAE@W4NodeTypes@ContentSpecNode@1@QAVCMNode@1@1IQAVMemoryManager@1@@Z 12027d72 f    CIL library: CIL module
 0001:00026d72       __ehhandler$??0CMUnaryOp@xercesc_3_1@@QAE@W4NodeTypes@ContentSpecNode@1@QAVCMNode@1@IQAVMemoryManager@1@@Z 12027d72 f    CIL library: CIL module
 0001:00026d72       __ehhandler$??1CMLeaf@xercesc_3_1@@UAE@XZ 12027d72 f    CIL library: CIL module
 0001:00026d72       __ehhandler$??1CMBinaryOp@xercesc_3_1@@UAE@XZ 12027d72 f    CIL library: CIL module
 0001:00026d72       __ehhandler$??0CMAny@xercesc_3_1@@QAE@W4NodeTypes@ContentSpecNode@1@IIIQAVMemoryManager@1@@Z 12027d72 f    CIL library: CIL module
 0001:00026d72       __ehhandler$??1CMUnaryOp@xercesc_3_1@@UAE@XZ 12027d72 f    CIL library: CIL module
 0001:00026d7c       $L131227                   12027d7c f    CIL library: CIL module
 0001:00026d84       $L131228                   12027d84 f    CIL library: CIL module
 0001:00026d8c       __ehhandler$??0CMLeaf@xercesc_3_1@@QAE@QAVQName@1@I_NIQAVMemoryManager@1@@Z 12027d8c f    CIL library: CIL module
 0001:00026d96       $L131252                   12027d96 f    CIL library: CIL module
 0001:00026d9e       $L131253                   12027d9e f    CIL library: CIL module
 0001:00026da6       __ehhandler$??0CMLeaf@xercesc_3_1@@QAE@QAVQName@1@IIQAVMemoryManager@1@@Z 12027da6 f    CIL library: CIL module
 0001:00026db0       $L103816                   12027db0 f    CIL library: CIL module
 0001:00026db0       $L132389                   12027db0 f    CIL library: CIL module
 0001:00026db0       $L103801                   12027db0 f    CIL library: CIL module
 0001:00026db0       $L132590                   12027db0 f    CIL library: CIL module
 0001:00026db0       $L134400                   12027db0 f    CIL library: CIL module
 0001:00026db0       $L95231                    12027db0 f    CIL library: CIL module
 0001:00026dbb       __ehhandler$??0?$NameIdPool@VDTDElementDecl@xercesc_3_1@@@xercesc_3_1@@QAE@KKQAVMemoryManager@1@@Z 12027dbb f    CIL library: CIL module
 0001:00026dbb       __ehhandler$??1?$NameIdPool@VXMLNotationDecl@xercesc_3_1@@@xercesc_3_1@@QAE@XZ 12027dbb f    CIL library: CIL module
 0001:00026dbb       __ehhandler$??0?$NameIdPool@VDTDEntityDecl@xercesc_3_1@@@xercesc_3_1@@QAE@KKQAVMemoryManager@1@@Z 12027dbb f    CIL library: CIL module
 0001:00026dbb       __ehhandler$??1?$NameIdPool@VDTDElementDecl@xercesc_3_1@@@xercesc_3_1@@QAE@XZ 12027dbb f    CIL library: CIL module
 0001:00026dbb       __ehhandler$??0?$NameIdPool@VXMLNotationDecl@xercesc_3_1@@@xercesc_3_1@@QAE@KKQAVMemoryManager@1@@Z 12027dbb f    CIL library: CIL module
 0001:00026dbb       __ehhandler$??1?$NameIdPool@VDTDEntityDecl@xercesc_3_1@@@xercesc_3_1@@QAE@XZ 12027dbb f    CIL library: CIL module
 0001:00026dc5       $L132407                   12027dc5 f    CIL library: CIL module
 0001:00026dcd       __ehhandler$??1?$RefHash2KeysTableOfEnumerator@V?$ValueVectorOf@PAVSchemaElementDecl@xercesc_3_1@@@xercesc_3_1@@UStringHasher@2@@xercesc_3_1@@UAE@XZ 12027dcd f    CIL library: CIL module
 0001:00026dd7       $L134784                   12027dd7 f    CIL library: CIL module
 0001:00026ddf       __ehhandler$??1?$RefHashTableOfEnumerator@VDatatypeValidator@xercesc_3_1@@UStringHasher@2@@xercesc_3_1@@UAE@XZ 12027ddf f    CIL library: CIL module
 0001:00026de9       $L136696                   12027de9 f    CIL library: CIL module
 0001:00026df1       $L136697                   12027df1 f    CIL library: CIL module
 0001:00026df9       __ehhandler$?parseInt@XMLString@xercesc_3_1@@SAHQBGQAVMemoryManager@2@@Z 12027df9 f    CIL library: CIL module
 0001:00026e03       $L137064                   12027e03 f    CIL library: CIL module
 0001:00026e0b       __ehhandler$?getCanonicalRepresentation@XMLBigInteger@xercesc_3_1@@SAPAGQBGQAVMemoryManager@2@_N@Z 12027e0b f    CIL library: CIL module
 0001:00026e15       $L137171                   12027e15 f    CIL library: CIL module
 0001:00026e1d       __ehhandler$?getCanonicalRepresentation@XMLBigDecimal@xercesc_3_1@@SAPAGQBGQAVMemoryManager@2@@Z 12027e1d f    CIL library: CIL module
 0001:00026e27       $L137208                   12027e27 f    CIL library: CIL module
 0001:00026e2f       $L137209                   12027e2f f    CIL library: CIL module
 0001:00026e37       __ehhandler$??0XMLBigDecimal@xercesc_3_1@@QAE@QBGQAVMemoryManager@1@@Z 12027e37 f    CIL library: CIL module
 0001:00026e41       $L137305                   12027e41 f    CIL library: CIL module
 0001:00026e49       $L137306                   12027e49 f    CIL library: CIL module
 0001:00026e54       __ehhandler$?init@XMLAbstractDoubleFloat@xercesc_3_1@@IAEXQBG@Z 12027e54 f    CIL library: CIL module
 0001:00026e5e       $L155568                   12027e5e f    CIL library: CIL module
 0001:00026e5e       $L143226                   12027e5e f    CIL library: CIL module
 0001:00026e66       __ehhandler$?putElemDecl@DTDGrammar@xercesc_3_1@@UAEKQAVXMLElementDecl@2@_N@Z 12027e66 f    CIL library: CIL module
 0001:00026e66       __ehhandler$?putElemDecl@SchemaGrammar@xercesc_3_1@@UAEKQAVXMLElementDecl@2@_N@Z 12027e66 f    CIL library: CIL module
 0001:00026e70       $L143665                   12027e70 f    CIL library: CIL module
 0001:00026e78       $L143666                   12027e78 f    CIL library: CIL module
 0001:00026e80       $L143667                   12027e80 f    CIL library: CIL module
 0001:00026e88       $L143668                   12027e88 f    CIL library: CIL module
 0001:00026e90       $L143669                   12027e90 f    CIL library: CIL module
 0001:00026e98       __ehhandler$??0DTDGrammar@xercesc_3_1@@QAE@QAVMemoryManager@1@@Z 12027e98 f    CIL library: CIL module
 0001:00026ea2       __ehhandler$?getCanonicalRepresentation@UnionDatatypeValidator@xercesc_3_1@@UBEPBGQBGQAVMemoryManager@2@_N@Z 12027ea2 f    CIL library: CIL module
 0001:00026eac       __ehhandler$?compare@UnionDatatypeValidator@xercesc_3_1@@UAEHQBG0QAVMemoryManager@2@@Z 12027eac f    CIL library: CIL module
 0001:00026eb6       $L144136                   12027eb6 f    CIL library: CIL module
 0001:00026ebe       $L144137                   12027ebe f    CIL library: CIL module
 0001:00026ec6       __ehhandler$?parse@DurationDatatypeValidator@xercesc_3_1@@MAEPAVXMLDateTime@2@QBGQAVMemoryManager@2@@Z 12027ec6 f    CIL library: CIL module
 0001:00026ed0       __ehhandler$?getCanonicalRepresentation@DecimalDatatypeValidator@xercesc_3_1@@UBEPBGQBGQAVMemoryManager@2@_N@Z 12027ed0 f    CIL library: CIL module
 0001:00026eda       $L144199                   12027eda f    CIL library: CIL module
 0001:00026ee2       $L144200                   12027ee2 f    CIL library: CIL module
 0001:00026eea       __ehhandler$?setEnumeration@DecimalDatatypeValidator@xercesc_3_1@@MAEXQAVMemoryManager@2@@Z 12027eea f    CIL library: CIL module
 0001:00026ef4       __ehhandler$?assignAdditionalFacet@DecimalDatatypeValidator@xercesc_3_1@@MAEXQBG0QAVMemoryManager@2@@Z 12027ef4 f    CIL library: CIL module
 0001:00026efe       $L144323                   12027efe f    CIL library: CIL module
 0001:00026f08       $L144324                   12027f08 f    CIL library: CIL module
 0001:00026f12       __ehhandler$?compare@DecimalDatatypeValidator@xercesc_3_1@@UAEHQBG0QAVMemoryManager@2@@Z 12027f12 f    CIL library: CIL module
 0001:00026f1c       $L144337                   12027f1c f    CIL library: CIL module
 0001:00026f24       __ehhandler$?setEnumeration@DateTimeValidator@xercesc_3_1@@MAEXQAVMemoryManager@2@@Z 12027f24 f    CIL library: CIL module
 0001:00026f2e       __ehhandler$?inspectFacetBase@AbstractNumericFacetValidator@xercesc_3_1@@AAEXQAVMemoryManager@2@@Z 12027f2e f    CIL library: CIL module
 0001:00026f38       $L145508                   12027f38 f    CIL library: CIL module
 0001:00026f40       $L145509                   12027f40 f    CIL library: CIL module
 0001:00026f48       $L145510                   12027f48 f    CIL library: CIL module
 0001:00026f50       $L145511                   12027f50 f    CIL library: CIL module
 0001:00026f58       __ehhandler$??0MixedContentModel@xercesc_3_1@@QAE@_NQAVContentSpecNode@1@0QAVMemoryManager@1@@Z 12027f58 f    CIL library: CIL module
 0001:00026f62       $L145789                   12027f62 f    CIL library: CIL module
 0001:00026f6a       __ehhandler$?formatNode@xercesc_3_1@@YAXQBVContentSpecNode@1@AAVXMLBuffer@1@QAVMemoryManager@1@@Z 12027f6a f    CIL library: CIL module
 0001:00026f74       $L146049                   12027f74 f    CIL library: CIL module
 0001:00026f7c       __ehhandler$?deleteChildNode@ContentSpecNode@xercesc_3_1@@AAEXPAV12@@Z 12027f7c f    CIL library: CIL module
 0001:00026f86       $L167165                   12027f86 f    CIL library: CIL module
 0001:00026f86       $L146218                   12027f86 f    CIL library: CIL module
 0001:00026f86       $L151053                   12027f86 f    CIL library: CIL module
 0001:00026f8e       __ehhandler$?initializeScheme@XMLUri@xercesc_3_1@@AAEXQBG@Z 12027f8e f    CIL library: CIL module
 0001:00026f8e       __ehhandler$?processBacksolidus_pP@RegxParser@xercesc_3_1@@IAEPAVRangeToken@2@H@Z 12027f8e f    CIL library: CIL module
 0001:00026f8e       __ehhandler$?validateContentSpecial@AllContentModel@xercesc_3_1@@UBE_NQAPAVQName@2@KIQAVGrammarResolver@2@QAVXMLStringPool@2@PAKQAVMemoryManager@2@@Z 12027f8e f    CIL library: CIL module
 0001:00026f98       $L146284                   12027f98 f    CIL library: CIL module
 0001:00026fa0       $L146285                   12027fa0 f    CIL library: CIL module
 0001:00026fa8       $L146286                   12027fa8 f    CIL library: CIL module
 0001:00026fb0       $L146287                   12027fb0 f    CIL library: CIL module
 0001:00026fb8       __ehhandler$??0AllContentModel@xercesc_3_1@@QAE@QAVContentSpecNode@1@_NQAVMemoryManager@1@@Z 12027fb8 f    CIL library: CIL module
 0001:00026fc2       $L146993                   12027fc2 f    CIL library: CIL module
 0001:00026fca       __ehhandler$??0?$RefHash2KeysTableOfEnumerator@V?$ValueVectorOf@PAVSchemaElementDecl@xercesc_3_1@@@xercesc_3_1@@UStringHasher@2@@xercesc_3_1@@QAE@QAV?$RefHash2KeysTableOf@V?$ValueVectorOf@PAVSchemaElementDecl@xercesc_3_1@@@xercesc_3_1@@UStringHasher@2@@1@_NQAVMemoryManager@1@@Z 12027fca f    CIL library: CIL module
 0001:00026fd4       $L147021                   12027fd4 f    CIL library: CIL module
 0001:00026fdc       __ehhandler$??0?$RefHashTableOfEnumerator@VXSAnnotation@xercesc_3_1@@UPtrHasher@2@@xercesc_3_1@@QAE@QAV?$RefHashTableOf@VXSAnnotation@xercesc_3_1@@UPtrHasher@2@@1@_NQAVMemoryManager@1@@Z 12027fdc f    CIL library: CIL module
 0001:00026fe6       $L147085                   12027fe6 f    CIL library: CIL module
 0001:00026fee       __ehhandler$??0?$RefHashTableOfEnumerator@VDTDAttDef@xercesc_3_1@@UStringHasher@2@@xercesc_3_1@@QAE@QAV?$RefHashTableOf@VDTDAttDef@xercesc_3_1@@UStringHasher@2@@1@_NQAVMemoryManager@1@@Z 12027fee f    CIL library: CIL module
 0001:00026ff8       $L147149                   12027ff8 f    CIL library: CIL module
 0001:00027000       __ehhandler$??0?$RefHash2KeysTableOfEnumerator@VSchemaAttDef@xercesc_3_1@@UStringHasher@2@@xercesc_3_1@@QAE@QAV?$RefHash2KeysTableOf@VSchemaAttDef@xercesc_3_1@@UStringHasher@2@@1@_NQAVMemoryManager@1@@Z 12028000 f    CIL library: CIL module
 0001:0002700a       $L147172                   1202800a f    CIL library: CIL module
 0001:00027012       __ehhandler$??0?$RefHashTableOfEnumerator@VKVStringPair@xercesc_3_1@@UStringHasher@2@@xercesc_3_1@@QAE@QAV?$RefHashTableOf@VKVStringPair@xercesc_3_1@@UStringHasher@2@@1@_NQAVMemoryManager@1@@Z 12028012 f    CIL library: CIL module
 0001:0002701c       $L149172                   1202801c f    CIL library: CIL module
 0001:00027024       __ehhandler$??0?$RefHashTableOfEnumerator@VXercesGroupInfo@xercesc_3_1@@UStringHasher@2@@xercesc_3_1@@QAE@QAV?$RefHashTableOf@VXercesGroupInfo@xercesc_3_1@@UStringHasher@2@@1@_NQAVMemoryManager@1@@Z 12028024 f    CIL library: CIL module
 0001:0002702e       $L149195                   1202802e f    CIL library: CIL module
 0001:00027036       __ehhandler$??0?$RefHashTableOfEnumerator@VXercesAttGroupInfo@xercesc_3_1@@UStringHasher@2@@xercesc_3_1@@QAE@QAV?$RefHashTableOf@VXercesAttGroupInfo@xercesc_3_1@@UStringHasher@2@@1@_NQAVMemoryManager@1@@Z 12028036 f    CIL library: CIL module
 0001:00027040       $L149218                   12028040 f    CIL library: CIL module
 0001:00027048       __ehhandler$??0?$RefHashTableOfEnumerator@VComplexTypeInfo@xercesc_3_1@@UStringHasher@2@@xercesc_3_1@@QAE@QAV?$RefHashTableOf@VComplexTypeInfo@xercesc_3_1@@UStringHasher@2@@1@_NQAVMemoryManager@1@@Z 12028048 f    CIL library: CIL module
 0001:00027052       $L149241                   12028052 f    CIL library: CIL module
 0001:0002705a       __ehhandler$??0?$RefHashTableOfEnumerator@VXMLAttDef@xercesc_3_1@@UStringHasher@2@@xercesc_3_1@@QAE@QAV?$RefHashTableOf@VXMLAttDef@xercesc_3_1@@UStringHasher@2@@1@_NQAVMemoryManager@1@@Z 1202805a f    CIL library: CIL module
 0001:00027064       $L149264                   12028064 f    CIL library: CIL module
 0001:0002706c       __ehhandler$??0?$RefHashTableOfEnumerator@VDatatypeValidator@xercesc_3_1@@UStringHasher@2@@xercesc_3_1@@QAE@QAV?$RefHashTableOf@VDatatypeValidator@xercesc_3_1@@UStringHasher@2@@1@_NQAVMemoryManager@1@@Z 1202806c f    CIL library: CIL module
 0001:00027076       $L149295                   12028076 f    CIL library: CIL module
 0001:0002707e       __ehhandler$??0?$RefHash3KeysIdPoolEnumerator@VSchemaElementDecl@xercesc_3_1@@UStringHasher@2@@xercesc_3_1@@QAE@QAV?$RefHash3KeysIdPool@VSchemaElementDecl@xercesc_3_1@@UStringHasher@2@@1@_NQAVMemoryManager@1@@Z 1202807e f    CIL library: CIL module
 0001:00027088       $L149801                   12028088 f    CIL library: CIL module
 0001:00027090       $L149802                   12028090 f    CIL library: CIL module
 0001:00027098       __ehhandler$?addChild@UnionToken@xercesc_3_1@@UAEXQAVToken@2@QAVTokenFactory@2@@Z 12028098 f    CIL library: CIL module
 0001:000270a2       $L149971                   120280a2 f    CIL library: CIL module
 0001:000270ac       __ehhandler$?doTokenOverlap@RegularExpression@xercesc_3_1@@IAE_NPBVOp@2@PAVToken@2@@Z 120280ac f    CIL library: CIL module
 0001:000270b6       $L150038                   120280b6 f    CIL library: CIL module
 0001:000270c1       __ehhandler$??1RegularExpression@xercesc_3_1@@UAE@XZ 120280c1 f    CIL library: CIL module
 0001:000270cb       $L150122                   120280cb f    CIL library: CIL module
 0001:000270d3       __ehhandler$?getRange@RangeTokenMap@xercesc_3_1@@IAEPAVRangeToken@2@QBG_N@Z 120280d3 f    CIL library: CIL module
 0001:000270dd       $L151078                   120280dd f    CIL library: CIL module
 0001:000270e5       $L151079                   120280e5 f    CIL library: CIL module
 0001:000270ed       $L151080                   120280ed f    CIL library: CIL module
 0001:000270f5       __ehhandler$?initializeAuthority@XMLUri@xercesc_3_1@@AAEXQBG@Z 120280f5 f    CIL library: CIL module
 0001:000270ff       $L151171                   120280ff f    CIL library: CIL module
 0001:00027107       $L151172                   12028107 f    CIL library: CIL module
 0001:0002710f       __ehhandler$?tokenizeString@XMLString@xercesc_3_1@@SAPAV?$BaseRefVectorOf@G@2@QBGQAVMemoryManager@2@@Z 1202810f f    CIL library: CIL module
 0001:00027119       $L151260                   12028119 f    CIL library: CIL module
 0001:00027121       $L151261                   12028121 f    CIL library: CIL module
 0001:00027129       __ehhandler$?textToBin@XMLString@xercesc_3_1@@SA_NQBGAAIQAVMemoryManager@2@@Z 12028129 f    CIL library: CIL module
 0001:00027133       $L151373                   12028133 f    CIL library: CIL module
 0001:00027133       $L151351                   12028133 f    CIL library: CIL module
 0001:0002713b       __ehhandler$??0XMLDouble@xercesc_3_1@@QAE@QBGQAVMemoryManager@1@@Z 1202813b f    CIL library: CIL module
 0001:0002713b       __ehhandler$??0XMLFloat@xercesc_3_1@@QAE@QBGQAVMemoryManager@1@@Z 1202813b f    CIL library: CIL module
 0001:00027145       $L154958                   12028145 f    CIL library: CIL module
 0001:0002714d       $L154959                   1202814d f    CIL library: CIL module
 0001:00027155       __ehhandler$?findOrAddElemDecl@SchemaGrammar@xercesc_3_1@@UAEPAVXMLElementDecl@2@IQBG00IAA_N@Z 12028155 f    CIL library: CIL module
 0001:0002715f       $L154980                   1202815f f    CIL library: CIL module
 0001:00027167       $L154981                   12028167 f    CIL library: CIL module
 0001:00027174       __ehhandler$??1SchemaGrammar@xercesc_3_1@@UAE@XZ 12028174 f    CIL library: CIL module
 0001:0002717e       $L155024                   1202817e f    CIL library: CIL module
 0001:00027186       $L155025                   12028186 f    CIL library: CIL module
 0001:00027193       $L155026                   12028193 f    CIL library: CIL module
 0001:0002719b       $L155027                   1202819b f    CIL library: CIL module
 0001:000271a3       $L155028                   120281a3 f    CIL library: CIL module
 0001:000271ab       $L155029                   120281ab f    CIL library: CIL module
 0001:000271b3       $L155030                   120281b3 f    CIL library: CIL module
 0001:000271bb       $L155031                   120281bb f    CIL library: CIL module
 0001:000271c3       __ehhandler$??0SchemaGrammar@xercesc_3_1@@QAE@QAVMemoryManager@1@@Z 120281c3 f    CIL library: CIL module
 0001:000271cd       $L155270                   120281cd f    CIL library: CIL module
 0001:000271d5       $L155271                   120281d5 f    CIL library: CIL module
 0001:000271dd       $L155272                   120281dd f    CIL library: CIL module
 0001:000271e5       __ehhandler$??0ComplexTypeInfo@xercesc_3_1@@QAE@QAVMemoryManager@1@@Z 120281e5 f    CIL library: CIL module
 0001:000271ef       $L154913                   120281ef f    CIL library: CIL module
 0001:000271ef       $L155483                   120281ef f    CIL library: CIL module
 0001:000271f7       $L154914                   120281f7 f    CIL library: CIL module
 0001:000271f7       $L155484                   120281f7 f    CIL library: CIL module
 0001:000271ff       __ehhandler$?putElemDecl@DTDGrammar@xercesc_3_1@@UAEPAVXMLElementDecl@2@IQBG00I_N@Z 120281ff f    CIL library: CIL module
 0001:000271ff       __ehhandler$?putElemDecl@SchemaGrammar@xercesc_3_1@@UAEPAVXMLElementDecl@2@IQBG00I_N@Z 120281ff f    CIL library: CIL module
 0001:00027209       $L155510                   12028209 f    CIL library: CIL module
 0001:00027211       $L155511                   12028211 f    CIL library: CIL module
 0001:00027219       __ehhandler$?findOrAddElemDecl@DTDGrammar@xercesc_3_1@@UAEPAVXMLElementDecl@2@IQBG00IAA_N@Z 12028219 f    CIL library: CIL module
 0001:00027223       $L155583                   12028223 f    CIL library: CIL module
 0001:00027223       $L114474                   12028223 f    CIL library: CIL module
 0001:00027223       $L155093                   12028223 f    CIL library: CIL module
 0001:00027223       $L138239                   12028223 f    CIL library: CIL module
 0001:0002722b       $L155584                   1202822b f    CIL library: CIL module
 0001:0002722b       $L114475                   1202822b f    CIL library: CIL module
 0001:0002722b       $L155094                   1202822b f    CIL library: CIL module
 0001:0002722b       $L138240                   1202822b f    CIL library: CIL module
 0001:00027233       __ehhandler$??0XMLStringPool@xercesc_3_1@@QAE@QAVMemoryManager@1@@Z 12028233 f    CIL library: CIL module
 0001:00027233       __ehhandler$??0DTDAttDefList@xercesc_3_1@@QAE@QAV?$RefHashTableOf@VDTDAttDef@xercesc_3_1@@UStringHasher@2@@1@QAVMemoryManager@1@@Z 12028233 f    CIL library: CIL module
 0001:00027233       __ehhandler$??0SchemaAttDefList@xercesc_3_1@@QAE@QAV?$RefHash2KeysTableOf@VSchemaAttDef@xercesc_3_1@@UStringHasher@2@@1@QAVMemoryManager@1@@Z 12028233 f    CIL library: CIL module
 0001:00027233       __ehhandler$??0XercesGroupInfo@xercesc_3_1@@QAE@QAVMemoryManager@1@@Z 12028233 f    CIL library: CIL module
 0001:0002723d       $L155775                   1202823d f    CIL library: CIL module
 0001:00027245       __ehhandler$?inspectFacetBase@ListDatatypeValidator@xercesc_3_1@@MAEXQAVMemoryManager@2@@Z 12028245 f    CIL library: CIL module
 0001:0002724f       $L155866                   1202824f f    CIL library: CIL module
 0001:00027257       __ehhandler$?valueSpaceCheck@ListDatatypeValidator@xercesc_3_1@@ABE_NPAV?$BaseRefVectorOf@G@2@QBGQAVMemoryManager@2@@Z 12028257 f    CIL library: CIL module
 0001:00027261       $L155939                   12028261 f    CIL library: CIL module
 0001:00027269       $L155940                   12028269 f    CIL library: CIL module
 0001:00027271       __ehhandler$?compare@ListDatatypeValidator@xercesc_3_1@@UAEHQBG0QAVMemoryManager@2@@Z 12028271 f    CIL library: CIL module
 0001:0002727b       $L156068                   1202827b f    CIL library: CIL module
 0001:00027283       $L156069                   12028283 f    CIL library: CIL module
 0001:0002728b       __ehhandler$?setEnumeration@FloatDatatypeValidator@xercesc_3_1@@MAEXQAVMemoryManager@2@@Z 1202828b f    CIL library: CIL module
 0001:00027295       $L156154                   12028295 f    CIL library: CIL module
 0001:0002729d       $L156155                   1202829d f    CIL library: CIL module
 0001:000272a5       __ehhandler$?compare@FloatDatatypeValidator@xercesc_3_1@@UAEHQBG0QAVMemoryManager@2@@Z 120282a5 f    CIL library: CIL module
 0001:000272af       $L156242                   120282af f    CIL library: CIL module
 0001:000272b7       $L156243                   120282b7 f    CIL library: CIL module
 0001:000272bf       __ehhandler$?setEnumeration@DoubleDatatypeValidator@xercesc_3_1@@MAEXQAVMemoryManager@2@@Z 120282bf f    CIL library: CIL module
 0001:000272c9       $L156328                   120282c9 f    CIL library: CIL module
 0001:000272d1       $L156329                   120282d1 f    CIL library: CIL module
 0001:000272d9       __ehhandler$?compare@DoubleDatatypeValidator@xercesc_3_1@@UAEHQBG0QAVMemoryManager@2@@Z 120282d9 f    CIL library: CIL module
 0001:000272e3       $L156752                   120282e3 f    CIL library: CIL module
 0001:000272eb       $L156753                   120282eb f    CIL library: CIL module
 0001:000272f3       __ehhandler$?checkUniqueParticleAttribution@DFAContentModel@xercesc_3_1@@UAEXQAVSchemaGrammar@2@QAVGrammarResolver@2@QAVXMLStringPool@2@QAVXMLValidator@2@QAIPBG@Z 120282f3 f    CIL library: CIL module
 0001:000272fd       $L156895                   120282fd f    CIL library: CIL module
 0001:00027305       $L156896                   12028305 f    CIL library: CIL module
 0001:0002730d       $L156897                   1202830d f    CIL library: CIL module
 0001:00027315       $L156898                   12028315 f    CIL library: CIL module
 0001:0002731d       $L156899                   1202831d f    CIL library: CIL module
 0001:00027325       $L156901                   12028325 f    CIL library: CIL module
 0001:0002732d       $L156900                   1202832d f    CIL library: CIL module
 0001:00027335       $L156892                   12028335 f    CIL library: CIL module
 0001:0002733d       $L156893                   1202833d f    CIL library: CIL module
 0001:00027345       $L156894                   12028345 f    CIL library: CIL module
 0001:0002734d       __ehhandler$?buildSyntaxTree@DFAContentModel@xercesc_3_1@@AAEPAVCMNode@2@QAVContentSpecNode@2@AAI@Z 1202834d f    CIL library: CIL module
 0001:00027357       $L157109                   12028357 f    CIL library: CIL module
 0001:0002735f       $L157110                   1202835f f    CIL library: CIL module
 0001:00027367       $L157111                   12028367 f    CIL library: CIL module
 0001:0002736f       $L157112                   1202836f f    CIL library: CIL module
 0001:00027377       $L157113                   12028377 f    CIL library: CIL module
 0001:0002737f       $L157117                   1202837f f    CIL library: CIL module
 0001:00027387       $L157118                   12028387 f    CIL library: CIL module
 0001:0002738f       $L157119                   1202838f f    CIL library: CIL module
 0001:00027397       __ehhandler$?buildDFA@DFAContentModel@xercesc_3_1@@AAEXQAVContentSpecNode@2@@Z 12028397 f    CIL library: CIL module
 0001:000273a1       $L161337                   120283a1 f    CIL library: CIL module
 0001:000273a9       $L161338                   120283a9 f    CIL library: CIL module
 0001:000273b1       $L161339                   120283b1 f    CIL library: CIL module
 0001:000273b9       $L161340                   120283b9 f    CIL library: CIL module
 0001:000273c1       __ehhandler$?getCanonicalRepresentation@XMLAbstractDoubleFloat@xercesc_3_1@@SAPAGQBGQAVMemoryManager@2@@Z 120283c1 f    CIL library: CIL module
 0001:000273cb       $L163350                   120283cb f    CIL library: CIL module
 0001:000273d3       $L163351                   120283d3 f    CIL library: CIL module
 0001:000273db       $L163352                   120283db f    CIL library: CIL module
 0001:000273e3       $L163353                   120283e3 f    CIL library: CIL module
 0001:000273eb       $L163354                   120283eb f    CIL library: CIL module
 0001:000273f3       $L163355                   120283f3 f    CIL library: CIL module
 0001:000273fb       $L163359                   120283fb f    CIL library: CIL module
 0001:00027403       $L163357                   12028403 f    CIL library: CIL module
 0001:0002740b       $L163358                   1202840b f    CIL library: CIL module
 0001:00027413       $L163356                   12028413 f    CIL library: CIL module
 0001:0002741b       $L163360                   1202841b f    CIL library: CIL module
 0001:00027423       __ehhandler$?makeContentModel@ComplexTypeInfo@xercesc_3_1@@AAEPAVXMLContentModel@2@_N@Z 12028423 f    CIL library: CIL module
 0001:0002742d       $L163488                   1202842d f    CIL library: CIL module
 0001:00027435       __ehhandler$?formatContentModel@ComplexTypeInfo@xercesc_3_1@@ABEPAGXZ 12028435 f    CIL library: CIL module
 0001:0002743f       $L163543                   1202843f f    CIL library: CIL module
 0001:00027447       $L163545                   12028447 f    CIL library: CIL module
 0001:0002744f       $L163544                   1202844f f    CIL library: CIL module
 0001:00027457       $L163546                   12028457 f    CIL library: CIL module
 0001:0002745f       __ehhandler$?createChildModel@DTDElementDecl@xercesc_3_1@@AAEPAVXMLContentModel@2@XZ 1202845f f    CIL library: CIL module
 0001:00027469       $L163727                   12028469 f    CIL library: CIL module
 0001:00027471       __ehhandler$?formatContentModel@DTDElementDecl@xercesc_3_1@@ABEPAGXZ 12028471 f    CIL library: CIL module
 0001:0002747b       $L163834                   1202847b f    CIL library: CIL module
 0001:00027483       $L163835                   12028483 f    CIL library: CIL module
 0001:0002748b       __ehhandler$?parse@YearMonthDatatypeValidator@xercesc_3_1@@MAEPAVXMLDateTime@2@QBGQAVMemoryManager@2@@Z 1202848b f    CIL library: CIL module
 0001:00027495       $L163885                   12028495 f    CIL library: CIL module
 0001:0002749d       $L163886                   1202849d f    CIL library: CIL module
 0001:000274a5       __ehhandler$?parse@YearDatatypeValidator@xercesc_3_1@@MAEPAVXMLDateTime@2@QBGQAVMemoryManager@2@@Z 120284a5 f    CIL library: CIL module
 0001:000274af       $L163935                   120284af f    CIL library: CIL module
 0001:000274b9       __ehhandler$?getCanonicalRepresentation@TimeDatatypeValidator@xercesc_3_1@@UBEPBGQBGQAVMemoryManager@2@_N@Z 120284b9 f    CIL library: CIL module
 0001:000274c3       $L163962                   120284c3 f    CIL library: CIL module
 0001:000274cb       $L163963                   120284cb f    CIL library: CIL module
 0001:000274d3       __ehhandler$?parse@TimeDatatypeValidator@xercesc_3_1@@MAEPAVXMLDateTime@2@QBGQAVMemoryManager@2@@Z 120284d3 f    CIL library: CIL module
 0001:000274dd       $L164013                   120284dd f    CIL library: CIL module
 0001:000274e5       $L164014                   120284e5 f    CIL library: CIL module
 0001:000274ed       __ehhandler$?parse@MonthDayDatatypeValidator@xercesc_3_1@@MAEPAVXMLDateTime@2@QBGQAVMemoryManager@2@@Z 120284ed f    CIL library: CIL module
 0001:000274f7       $L164064                   120284f7 f    CIL library: CIL module
 0001:000274ff       $L164065                   120284ff f    CIL library: CIL module
 0001:00027507       __ehhandler$?parse@MonthDatatypeValidator@xercesc_3_1@@MAEPAVXMLDateTime@2@QBGQAVMemoryManager@2@@Z 12028507 f    CIL library: CIL module
 0001:00027511       $L164163                   12028511 f    CIL library: CIL module
 0001:00027519       $L164164                   12028519 f    CIL library: CIL module
 0001:00027521       __ehhandler$?parse@DayDatatypeValidator@xercesc_3_1@@MAEPAVXMLDateTime@2@QBGQAVMemoryManager@2@@Z 12028521 f    CIL library: CIL module
 0001:0002752b       $L164205                   1202852b f    CIL library: CIL module
 0001:00027535       __ehhandler$?getCanonicalRepresentation@DateTimeDatatypeValidator@xercesc_3_1@@UBEPBGQBGQAVMemoryManager@2@_N@Z 12028535 f    CIL library: CIL module
 0001:0002753f       $L164232                   1202853f f    CIL library: CIL module
 0001:00027547       $L164233                   12028547 f    CIL library: CIL module
 0001:0002754f       __ehhandler$?parse@DateTimeDatatypeValidator@xercesc_3_1@@MAEPAVXMLDateTime@2@QBGQAVMemoryManager@2@@Z 1202854f f    CIL library: CIL module
 0001:00027559       $L164274                   12028559 f    CIL library: CIL module
 0001:00027563       __ehhandler$?getCanonicalRepresentation@DateDatatypeValidator@xercesc_3_1@@UBEPBGQBGQAVMemoryManager@2@_N@Z 12028563 f    CIL library: CIL module
 0001:0002756d       $L164301                   1202856d f    CIL library: CIL module
 0001:00027575       $L164302                   12028575 f    CIL library: CIL module
 0001:0002757d       __ehhandler$?parse@DateDatatypeValidator@xercesc_3_1@@MAEPAVXMLDateTime@2@QBGQAVMemoryManager@2@@Z 1202857d f    CIL library: CIL module
 0001:00027587       $L164334                   12028587 f    CIL library: CIL module
 0001:0002758f       __ehhandler$?encode@AnyURIDatatypeValidator@xercesc_3_1@@AAEXQBGKAAVXMLBuffer@2@QAVMemoryManager@2@@Z 1202858f f    CIL library: CIL module
 0001:00027599       $L164361                   12028599 f    CIL library: CIL module
 0001:000275a1       __ehhandler$?checkValueSpace@AnyURIDatatypeValidator@xercesc_3_1@@MAEXQBGQAVMemoryManager@2@@Z 120285a1 f    CIL library: CIL module
 0001:000275ab       __ehhandler$?getCanonicalRepresentation@AbstractNumericValidator@xercesc_3_1@@UBEPBGQBGQAVMemoryManager@2@_N@Z 120285ab f    CIL library: CIL module
 0001:000275b5       $L167225                   120285b5 f    CIL library: CIL module
 0001:000275bd       $L167226                   120285bd f    CIL library: CIL module
 0001:000275c5       __ehhandler$?matchUnion@RegularExpression@xercesc_3_1@@IBEHQAVContext@12@QBVOp@2@K@Z 120285c5 f    CIL library: CIL module
 0001:000275cf       $L167250                   120285cf f    CIL library: CIL module
 0001:000275d7       $L167251                   120285d7 f    CIL library: CIL module
 0001:000275df       __ehhandler$?match@RegularExpression@xercesc_3_1@@IBEHQAVContext@12@QBVOp@2@K@Z 120285df f    CIL library: CIL module
 0001:000275e9       $L167452                   120285e9 f    CIL library: CIL module
 0001:000275f1       __ehhandler$?matches@RegularExpression@xercesc_3_1@@QBE_NQBGKKQAVMatch@2@QAVMemoryManager@2@@Z 120285f1 f    CIL library: CIL module
 0001:000275fb       $L167962                   120285fb f    CIL library: CIL module
 0001:00027603       $L167963                   12028603 f    CIL library: CIL module
 0001:0002760b       $L167964                   1202860b f    CIL library: CIL module
 0001:00027613       $L167965                   12028613 f    CIL library: CIL module
 0001:0002761b       $L167966                   1202861b f    CIL library: CIL module
 0001:00027623       $L167967                   12028623 f    CIL library: CIL module
 0001:0002762b       $L167968                   1202862b f    CIL library: CIL module
 0001:00027633       __ehhandler$?initialize@XMLUri@xercesc_3_1@@AAEXQBV12@QBG@Z 12028633 f    CIL library: CIL module
 0001:0002763d       $L168232                   1202863d f    CIL library: CIL module
 0001:00027645       $L168233                   12028645 f    CIL library: CIL module
 0001:0002764d       __ehhandler$??0XMLUri@xercesc_3_1@@QAE@QBGQAVMemoryManager@1@@Z 1202864d f    CIL library: CIL module
 0001:00027657       $L168270                   12028657 f    CIL library: CIL module
 0001:0002765f       __ehhandler$?isValidNOTATION@XMLString@xercesc_3_1@@SA_NQBGQAVMemoryManager@2@@Z 1202865f f    CIL library: CIL module
 0001:00027669       __ehhandler$?checkContent@UnionDatatypeValidator@xercesc_3_1@@EAEXQBGQAVValidationContext@2@_NQAVMemoryManager@2@@Z 12028669 f    CIL library: CIL module
 0001:00027673       $L172548                   12028673 f    CIL library: CIL module
 0001:0002767b       $L172549                   1202867b f    CIL library: CIL module
 0001:00027683       __ehhandler$?checkContent@QNameDatatypeValidator@xercesc_3_1@@MAEXQBGQAVValidationContext@2@_NQAVMemoryManager@2@@Z 12028683 f    CIL library: CIL module
 0001:0002768d       $L172818                   1202868d f    CIL library: CIL module
 0001:0002768d       $L172841                   1202868d f    CIL library: CIL module
 0001:00027695       __ehhandler$?checkContent@ListDatatypeValidator@xercesc_3_1@@MAEXQBGQAVValidationContext@2@_NQAVMemoryManager@2@@Z 12028695 f    CIL library: CIL module
 0001:00027695       __ehhandler$?validate@ListDatatypeValidator@xercesc_3_1@@UAEXQBGQAVValidationContext@2@QAVMemoryManager@2@@Z 12028695 f    CIL library: CIL module
 0001:0002769f       $L172866                   1202869f f    CIL library: CIL module
 0001:000276a7       __ehhandler$?checkContent@FloatDatatypeValidator@xercesc_3_1@@MAEXQBGQAVValidationContext@2@_NQAVMemoryManager@2@@Z 120286a7 f    CIL library: CIL module
 0001:000276b1       $L172934                   120286b1 f    CIL library: CIL module
 0001:000276b9       __ehhandler$?checkContent@DoubleDatatypeValidator@xercesc_3_1@@MAEXQBGQAVValidationContext@2@_NQAVMemoryManager@2@@Z 120286b9 f    CIL library: CIL module
 0001:000276c3       $L173006                   120286c3 f    CIL library: CIL module
 0001:000276d0       __ehhandler$?checkContent@DecimalDatatypeValidator@xercesc_3_1@@MAEXQBGQAVValidationContext@2@_NQAVMemoryManager@2@@Z 120286d0 f    CIL library: CIL module
 0001:000276da       $L173112                   120286da f    CIL library: CIL module
 0001:000276e4       __ehhandler$?checkContent@DateTimeValidator@xercesc_3_1@@MAEXQBGQAVValidationContext@2@_NQAVMemoryManager@2@@Z 120286e4 f    CIL library: CIL module
 0001:000276ee       $L173231                   120286ee f    CIL library: CIL module
 0001:000276f9       __ehhandler$?checkContent@AbstractStringValidator@xercesc_3_1@@MAEXQBGQAVValidationContext@2@_NQAVMemoryManager@2@@Z 120286f9 f    CIL library: CIL module
 0001:00027703       $L172640                   12028703 f    CIL library: CIL module
 0001:00027703       $L179430                   12028703 f    CIL library: CIL module
 0001:0002770b       __ehhandler$?parseAtom@RegxParser@xercesc_3_1@@AAEPAVToken@2@XZ 1202870b f    CIL library: CIL module
 0001:0002770b       __ehhandler$?checkContent@NOTATIONDatatypeValidator@xercesc_3_1@@MAEXQBGQAVValidationContext@2@_NQAVMemoryManager@2@@Z 1202870b f    CIL library: CIL module
 0001:00027715       $L179524                   12028715 f    CIL library: CIL module
 0001:0002771d       $L179525                   1202871d f    CIL library: CIL module
 0001:00027725       __ehhandler$?prepare@RegularExpression@xercesc_3_1@@IAEXXZ 12028725 f    CIL library: CIL module
 0001:0002772f       $L179799                   1202872f f    CIL library: CIL module
 0001:00027737       $L179800                   12028737 f    CIL library: CIL module
 0001:0002773f       __ehhandler$?setPattern@RegularExpression@xercesc_3_1@@IAEXQBG0@Z 1202873f f    CIL library: CIL module
 0001:00027749       $L179835                   12028749 f    CIL library: CIL module
 0001:00027754       $L179836                   12028754 f    CIL library: CIL module
 0001:0002775c       __ehhandler$??0RegularExpression@xercesc_3_1@@QAE@QBG0QAVMemoryManager@1@@Z 1202875c f    CIL library: CIL module
 0001:00027766       $L180227                   12028766 f    CIL library: CIL module
 0001:0002776e       $L180228                   1202876e f    CIL library: CIL module
 0001:00027776       __ehhandler$?serialize@XMLBigDecimal@xercesc_3_1@@UAEXAAVXSerializeEngine@2@@Z 12028776 f    CIL library: CIL module
 0001:00027780       $L182165                   12028780 f    CIL library: CIL module
 0001:00027788       __ehhandler$?getCanonicalRepresentation@ListDatatypeValidator@xercesc_3_1@@UBEPBGQBGQAVMemoryManager@2@_N@Z 12028788 f    CIL library: CIL module
 0001:00027792       $L182751                   12028792 f    CIL library: CIL module
 0001:0002779a       __ehhandler$?storeObject@XTemplateSerializer@xercesc_3_1@@SAXQAV?$NameIdPool@VXMLNotationDecl@xercesc_3_1@@@2@AAVXSerializeEngine@2@@Z 1202879a f    CIL library: CIL module
 0001:000277a4       $L182822                   120287a4 f    CIL library: CIL module
 0001:000277ac       __ehhandler$?storeObject@XTemplateSerializer@xercesc_3_1@@SAXQAV?$NameIdPool@VDTDEntityDecl@xercesc_3_1@@@2@AAVXSerializeEngine@2@@Z 120287ac f    CIL library: CIL module
 0001:000277b6       $L182893                   120287b6 f    CIL library: CIL module
 0001:000277be       __ehhandler$?storeObject@XTemplateSerializer@xercesc_3_1@@SAXQAV?$NameIdPool@VDTDElementDecl@xercesc_3_1@@@2@AAVXSerializeEngine@2@@Z 120287be f    CIL library: CIL module
 0001:000277c8       $L187810                   120287c8 f    CIL library: CIL module
 0001:000277c8       $L182945                   120287c8 f    CIL library: CIL module
 0001:000277d0       __ehhandler$?loadObject@XTemplateSerializer@xercesc_3_1@@SAXPAPAV?$RefHashTableOf@VXercesGroupInfo@xercesc_3_1@@UStringHasher@2@@2@H_NAAVXSerializeEngine@2@@Z 120287d0 f    CIL library: CIL module
 0001:000277d0       __ehhandler$?loadObject@XTemplateSerializer@xercesc_3_1@@SAXPAPAV?$RefHash3KeysIdPool@VSchemaElementDecl@xercesc_3_1@@UStringHasher@2@@2@H_NHAAVXSerializeEngine@2@@Z 120287d0 f    CIL library: CIL module
 0001:000277da       $L182975                   120287da f    CIL library: CIL module
 0001:000277e2       __ehhandler$?storeObject@XTemplateSerializer@xercesc_3_1@@SAXQAV?$RefHash3KeysIdPool@VSchemaElementDecl@xercesc_3_1@@UStringHasher@2@@2@AAVXSerializeEngine@2@@Z 120287e2 f    CIL library: CIL module
 0001:000277ec       $L183002                   120287ec f    CIL library: CIL module
 0001:000277f4       __ehhandler$?storeObject@XTemplateSerializer@xercesc_3_1@@SAXQAV?$RefHash2KeysTableOf@VSchemaAttDef@xercesc_3_1@@UStringHasher@2@@2@AAVXSerializeEngine@2@@Z 120287f4 f    CIL library: CIL module
 0001:000277fe       $L183056                   120287fe f    CIL library: CIL module
 0001:00027806       $L183057                   12028806 f    CIL library: CIL module
 0001:0002780e       $L183058                   1202880e f    CIL library: CIL module
 0001:00027816       __ehhandler$?storeObject@XTemplateSerializer@xercesc_3_1@@SAXQAV?$RefHashTableOf@VXSAnnotation@xercesc_3_1@@UPtrHasher@2@@2@AAVXSerializeEngine@2@@Z 12028816 f    CIL library: CIL module
 0001:00027820       $L183132                   12028820 f    CIL library: CIL module
 0001:00027828       __ehhandler$?storeObject@XTemplateSerializer@xercesc_3_1@@SAXQAV?$RefHashTableOf@VDatatypeValidator@xercesc_3_1@@UStringHasher@2@@2@AAVXSerializeEngine@2@@Z 12028828 f    CIL library: CIL module
 0001:00027832       $L183185                   12028832 f    CIL library: CIL module
 0001:0002783a       __ehhandler$?storeObject@XTemplateSerializer@xercesc_3_1@@SAXQAV?$RefHashTableOf@VXercesAttGroupInfo@xercesc_3_1@@UStringHasher@2@@2@AAVXSerializeEngine@2@@Z 1202883a f    CIL library: CIL module
 0001:00027844       $L183212                   12028844 f    CIL library: CIL module
 0001:0002784c       __ehhandler$?storeObject@XTemplateSerializer@xercesc_3_1@@SAXQAV?$RefHashTableOf@VXercesGroupInfo@xercesc_3_1@@UStringHasher@2@@2@AAVXSerializeEngine@2@@Z 1202884c f    CIL library: CIL module
 0001:00027856       $L183242                   12028856 f    CIL library: CIL module
 0001:0002785e       __ehhandler$?storeObject@XTemplateSerializer@xercesc_3_1@@SAXQAV?$RefHashTableOf@VComplexTypeInfo@xercesc_3_1@@UStringHasher@2@@2@AAVXSerializeEngine@2@@Z 1202885e f    CIL library: CIL module
 0001:00027868       $L183269                   12028868 f    CIL library: CIL module
 0001:00027870       __ehhandler$?storeObject@XTemplateSerializer@xercesc_3_1@@SAXQAV?$RefHashTableOf@VDTDAttDef@xercesc_3_1@@UStringHasher@2@@2@AAVXSerializeEngine@2@@Z 12028870 f    CIL library: CIL module
 0001:0002787a       $L183296                   1202887a f    CIL library: CIL module
 0001:00027882       __ehhandler$?storeObject@XTemplateSerializer@xercesc_3_1@@SAXQAV?$RefHashTableOf@VXMLAttDef@xercesc_3_1@@UStringHasher@2@@2@AAVXSerializeEngine@2@@Z 12028882 f    CIL library: CIL module
 0001:0002788c       $L183323                   1202888c f    CIL library: CIL module
 0001:00027894       __ehhandler$?storeObject@XTemplateSerializer@xercesc_3_1@@SAXQAV?$RefHashTableOf@VKVStringPair@xercesc_3_1@@UStringHasher@2@@2@AAVXSerializeEngine@2@@Z 12028894 f    CIL library: CIL module
 0001:0002789e       $L186907                   1202889e f    CIL library: CIL module
 0001:000278a6       $L186908                   120288a6 f    CIL library: CIL module
 0001:000278b0       __ehhandler$?init@UnionDatatypeValidator@xercesc_3_1@@AAEXQAVDatatypeValidator@2@QAV?$RefHashTableOf@VKVStringPair@xercesc_3_1@@UStringHasher@2@@2@QAV?$RefArrayVectorOf@G@2@QAVMemoryManager@2@@Z 120288b0 f    CIL library: CIL module
 0001:000278ba       $L186983                   120288ba f    CIL library: CIL module
 0001:000278c5       $L186984                   120288c5 f    CIL library: CIL module
 0001:000278d0       __ehhandler$??0UnionDatatypeValidator@xercesc_3_1@@QAE@QAVDatatypeValidator@1@QAV?$RefHashTableOf@VKVStringPair@xercesc_3_1@@UStringHasher@2@@1@QAV?$RefArrayVectorOf@G@1@HQAVMemoryManager@1@QAV?$RefVectorOf@VDatatypeValidator@xercesc_3_1@@@1@_N@Z 120288d0 f    CIL library: CIL module
 0001:000278da       $L187071                   120288da f    CIL library: CIL module
 0001:000278e2       $L187072                   120288e2 f    CIL library: CIL module
 0001:000278ea       $L187073                   120288ea f    CIL library: CIL module
 0001:000278f4       __ehhandler$??0BooleanDatatypeValidator@xercesc_3_1@@QAE@QAVDatatypeValidator@1@QAV?$RefHashTableOf@VKVStringPair@xercesc_3_1@@UStringHasher@2@@1@QAV?$RefArrayVectorOf@G@1@HQAVMemoryManager@1@@Z 120288f4 f    CIL library: CIL module
 0001:000278fe       $L192477                   120288fe f    CIL library: CIL module
 0001:000278fe       $L195409                   120288fe f    CIL library: CIL module
 0001:000278fe       $L192458                   120288fe f    CIL library: CIL module
 0001:000278fe       $L192711                   120288fe f    CIL library: CIL module
 0001:000278fe       $L195384                   120288fe f    CIL library: CIL module
 0001:000278fe       $L192727                   120288fe f    CIL library: CIL module
 0001:000278fe       $L192673                   120288fe f    CIL library: CIL module
 0001:000278fe       $L192442                   120288fe f    CIL library: CIL module
 0001:000278fe       $L192636                   120288fe f    CIL library: CIL module
 0001:000278fe       $L187034                   120288fe f    CIL library: CIL module
 0001:000278fe       $L192743                   120288fe f    CIL library: CIL module
 0001:000278fe       $L192496                   120288fe f    CIL library: CIL module
 0001:000278fe       $L187102                   120288fe f    CIL library: CIL module
 0001:000278fe       $L192509                   120288fe f    CIL library: CIL module
 0001:000278fe       $L192426                   120288fe f    CIL library: CIL module
 0001:000278fe       $L192623                   120288fe f    CIL library: CIL module
 0001:000278fe       $L192410                   120288fe f    CIL library: CIL module
 0001:000278fe       $L192592                   120288fe f    CIL library: CIL module
 0001:000278fe       $L192391                   120288fe f    CIL library: CIL module
 0001:000278fe       $L192522                   120288fe f    CIL library: CIL module
 0001:000278fe       $L192378                   120288fe f    CIL library: CIL module
 0001:000278fe       $L192538                   120288fe f    CIL library: CIL module
 0001:000278fe       $L192695                   120288fe f    CIL library: CIL module
 0001:000278fe       $L192557                   120288fe f    CIL library: CIL module
 0001:000278fe       $L192576                   120288fe f    CIL library: CIL module
 0001:000278fe       $L195434                   120288fe f    CIL library: CIL module
 0001:00027906       __ehhandler$?newInstance@ListDatatypeValidator@xercesc_3_1@@UAEPAVDatatypeValidator@2@QAV?$RefHashTableOf@VKVStringPair@xercesc_3_1@@UStringHasher@2@@2@QAV?$RefArrayVectorOf@G@2@HQAVMemoryManager@2@@Z 12028906 f    CIL library: CIL module
 0001:00027906       __ehhandler$?newInstance@YearMonthDatatypeValidator@xercesc_3_1@@UAEPAVDatatypeValidator@2@QAV?$RefHashTableOf@VKVStringPair@xercesc_3_1@@UStringHasher@2@@2@QAV?$RefArrayVectorOf@G@2@HQAVMemoryManager@2@@Z 12028906 f    CIL library: CIL module
 0001:00027906       __ehhandler$?newInstance@IDDatatypeValidator@xercesc_3_1@@UAEPAVDatatypeValidator@2@QAV?$RefHashTableOf@VKVStringPair@xercesc_3_1@@UStringHasher@2@@2@QAV?$RefArrayVectorOf@G@2@HQAVMemoryManager@2@@Z 12028906 f    CIL library: CIL module
 0001:00027906       __ehhandler$?newInstance@YearDatatypeValidator@xercesc_3_1@@UAEPAVDatatypeValidator@2@QAV?$RefHashTableOf@VKVStringPair@xercesc_3_1@@UStringHasher@2@@2@QAV?$RefArrayVectorOf@G@2@HQAVMemoryManager@2@@Z 12028906 f    CIL library: CIL module
 0001:00027906       __ehhandler$?newInstance@HexBinaryDatatypeValidator@xercesc_3_1@@UAEPAVDatatypeValidator@2@QAV?$RefHashTableOf@VKVStringPair@xercesc_3_1@@UStringHasher@2@@2@QAV?$RefArrayVectorOf@G@2@HQAVMemoryManager@2@@Z 12028906 f    CIL library: CIL module
 0001:00027906       __ehhandler$?newInstance@TimeDatatypeValidator@xercesc_3_1@@UAEPAVDatatypeValidator@2@QAV?$RefHashTableOf@VKVStringPair@xercesc_3_1@@UStringHasher@2@@2@QAV?$RefArrayVectorOf@G@2@HQAVMemoryManager@2@@Z 12028906 f    CIL library: CIL module
 0001:00027906       __ehhandler$?newInstance@ENTITYDatatypeValidator@xercesc_3_1@@UAEPAVDatatypeValidator@2@QAV?$RefHashTableOf@VKVStringPair@xercesc_3_1@@UStringHasher@2@@2@QAV?$RefArrayVectorOf@G@2@HQAVMemoryManager@2@@Z 12028906 f    CIL library: CIL module
 0001:00027906       __ehhandler$?newInstance@StringDatatypeValidator@xercesc_3_1@@UAEPAVDatatypeValidator@2@QAV?$RefHashTableOf@VKVStringPair@xercesc_3_1@@UStringHasher@2@@2@QAV?$RefArrayVectorOf@G@2@HQAVMemoryManager@2@@Z 12028906 f    CIL library: CIL module
 0001:00027906       __ehhandler$?newInstance@DurationDatatypeValidator@xercesc_3_1@@UAEPAVDatatypeValidator@2@QAV?$RefHashTableOf@VKVStringPair@xercesc_3_1@@UStringHasher@2@@2@QAV?$RefArrayVectorOf@G@2@HQAVMemoryManager@2@@Z 12028906 f    CIL library: CIL module
 0001:00027906       __ehhandler$?newInstance@QNameDatatypeValidator@xercesc_3_1@@UAEPAVDatatypeValidator@2@QAV?$RefHashTableOf@VKVStringPair@xercesc_3_1@@UStringHasher@2@@2@QAV?$RefArrayVectorOf@G@2@HQAVMemoryManager@2@@Z 12028906 f    CIL library: CIL module
 0001:00027906       __ehhandler$?newInstance@DayDatatypeValidator@xercesc_3_1@@UAEPAVDatatypeValidator@2@QAV?$RefHashTableOf@VKVStringPair@xercesc_3_1@@UStringHasher@2@@2@QAV?$RefArrayVectorOf@G@2@HQAVMemoryManager@2@@Z 12028906 f    CIL library: CIL module
 0001:00027906       __ehhandler$?newInstance@NOTATIONDatatypeValidator@xercesc_3_1@@UAEPAVDatatypeValidator@2@QAV?$RefHashTableOf@VKVStringPair@xercesc_3_1@@UStringHasher@2@@2@QAV?$RefArrayVectorOf@G@2@HQAVMemoryManager@2@@Z 12028906 f    CIL library: CIL module
 0001:00027906       __ehhandler$?newInstance@DateTimeDatatypeValidator@xercesc_3_1@@UAEPAVDatatypeValidator@2@QAV?$RefHashTableOf@VKVStringPair@xercesc_3_1@@UStringHasher@2@@2@QAV?$RefArrayVectorOf@G@2@HQAVMemoryManager@2@@Z 12028906 f    CIL library: CIL module
 0001:00027906       __ehhandler$?newInstance@BooleanDatatypeValidator@xercesc_3_1@@UAEPAVDatatypeValidator@2@QAV?$RefHashTableOf@VKVStringPair@xercesc_3_1@@UStringHasher@2@@2@QAV?$RefArrayVectorOf@G@2@HQAVMemoryManager@2@@Z 12028906 f    CIL library: CIL module
 0001:00027906       __ehhandler$?newInstance@DateDatatypeValidator@xercesc_3_1@@UAEPAVDatatypeValidator@2@QAV?$RefHashTableOf@VKVStringPair@xercesc_3_1@@UStringHasher@2@@2@QAV?$RefArrayVectorOf@G@2@HQAVMemoryManager@2@@Z 12028906 f    CIL library: CIL module
 0001:00027906       __ehhandler$?newInstance@UnionDatatypeValidator@xercesc_3_1@@UAEPAVDatatypeValidator@2@QAV?$RefHashTableOf@VKVStringPair@xercesc_3_1@@UStringHasher@2@@2@QAV?$RefArrayVectorOf@G@2@HQAVMemoryManager@2@@Z 12028906 f    CIL library: CIL module
 0001:00027906       __ehhandler$?newInstance@Base64BinaryDatatypeValidator@xercesc_3_1@@UAEPAVDatatypeValidator@2@QAV?$RefHashTableOf@VKVStringPair@xercesc_3_1@@UStringHasher@2@@2@QAV?$RefArrayVectorOf@G@2@HQAVMemoryManager@2@@Z 12028906 f    CIL library: CIL module
 0001:00027906       __ehhandler$?newInstance@NCNameDatatypeValidator@xercesc_3_1@@UAEPAVDatatypeValidator@2@QAV?$RefHashTableOf@VKVStringPair@xercesc_3_1@@UStringHasher@2@@2@QAV?$RefArrayVectorOf@G@2@HQAVMemoryManager@2@@Z 12028906 f    CIL library: CIL module
 0001:00027906       __ehhandler$?newInstance@AnyURIDatatypeValidator@xercesc_3_1@@UAEPAVDatatypeValidator@2@QAV?$RefHashTableOf@VKVStringPair@xercesc_3_1@@UStringHasher@2@@2@QAV?$RefArrayVectorOf@G@2@HQAVMemoryManager@2@@Z 12028906 f    CIL library: CIL module
 0001:00027906       __ehhandler$?newInstance@NameDatatypeValidator@xercesc_3_1@@UAEPAVDatatypeValidator@2@QAV?$RefHashTableOf@VKVStringPair@xercesc_3_1@@UStringHasher@2@@2@QAV?$RefArrayVectorOf@G@2@HQAVMemoryManager@2@@Z 12028906 f    CIL library: CIL module
 0001:00027906       __ehhandler$?newInstance@FloatDatatypeValidator@xercesc_3_1@@UAEPAVDatatypeValidator@2@QAV?$RefHashTableOf@VKVStringPair@xercesc_3_1@@UStringHasher@2@@2@QAV?$RefArrayVectorOf@G@2@HQAVMemoryManager@2@@Z 12028906 f    CIL library: CIL module
 0001:00027906       __ehhandler$?newInstance@MonthDayDatatypeValidator@xercesc_3_1@@UAEPAVDatatypeValidator@2@QAV?$RefHashTableOf@VKVStringPair@xercesc_3_1@@UStringHasher@2@@2@QAV?$RefArrayVectorOf@G@2@HQAVMemoryManager@2@@Z 12028906 f    CIL library: CIL module
 0001:00027906       __ehhandler$?newInstance@DoubleDatatypeValidator@xercesc_3_1@@UAEPAVDatatypeValidator@2@QAV?$RefHashTableOf@VKVStringPair@xercesc_3_1@@UStringHasher@2@@2@QAV?$RefArrayVectorOf@G@2@HQAVMemoryManager@2@@Z 12028906 f    CIL library: CIL module
 0001:00027906       __ehhandler$?newInstance@IDREFDatatypeValidator@xercesc_3_1@@UAEPAVDatatypeValidator@2@QAV?$RefHashTableOf@VKVStringPair@xercesc_3_1@@UStringHasher@2@@2@QAV?$RefArrayVectorOf@G@2@HQAVMemoryManager@2@@Z 12028906 f    CIL library: CIL module
 0001:00027906       __ehhandler$?newInstance@MonthDatatypeValidator@xercesc_3_1@@UAEPAVDatatypeValidator@2@QAV?$RefHashTableOf@VKVStringPair@xercesc_3_1@@UStringHasher@2@@2@QAV?$RefArrayVectorOf@G@2@HQAVMemoryManager@2@@Z 12028906 f    CIL library: CIL module
 0001:00027906       __ehhandler$?newInstance@DecimalDatatypeValidator@xercesc_3_1@@UAEPAVDatatypeValidator@2@QAV?$RefHashTableOf@VKVStringPair@xercesc_3_1@@UStringHasher@2@@2@QAV?$RefArrayVectorOf@G@2@HQAVMemoryManager@2@@Z 12028906 f    CIL library: CIL module
 0001:00027910       $L187127                   12028910 f    CIL library: CIL module
 0001:00027918       $L187128                   12028918 f    CIL library: CIL module
 0001:00027922       __ehhandler$?assignFacet@AbstractStringValidator@xercesc_3_1@@AAEXQAVMemoryManager@2@@Z 12028922 f    CIL library: CIL module
 0001:0002792c       $L187227                   1202892c f    CIL library: CIL module
 0001:00027934       $L187228                   12028934 f    CIL library: CIL module
 0001:0002793e       __ehhandler$?assignFacet@AbstractNumericFacetValidator@xercesc_3_1@@AAEXQAVMemoryManager@2@@Z 1202893e f    CIL library: CIL module
 0001:00027948       $L187595                   12028948 f    CIL library: CIL module
 0001:00027950       __ehhandler$?loadObject@XTemplateSerializer@xercesc_3_1@@SAXPAPAV?$RefHash2KeysTableOf@V?$ValueVectorOf@PAVSchemaElementDecl@xercesc_3_1@@@xercesc_3_1@@UStringHasher@2@@2@H_NAAVXSerializeEngine@2@@Z 12028950 f    CIL library: CIL module
 0001:0002795a       $L187637                   1202895a f    CIL library: CIL module
 0001:00027962       __ehhandler$?storeObject@XTemplateSerializer@xercesc_3_1@@SAXQAV?$RefHash2KeysTableOf@V?$ValueVectorOf@PAVSchemaElementDecl@xercesc_3_1@@@xercesc_3_1@@UStringHasher@2@@2@AAVXSerializeEngine@2@@Z 12028962 f    CIL library: CIL module
 0001:0002796c       $L187719                   1202896c f    CIL library: CIL module
 0001:00027974       $L187720                   12028974 f    CIL library: CIL module
 0001:0002797c       __ehhandler$?loadObject@XTemplateSerializer@xercesc_3_1@@SAXPAPAV?$RefHashTableOf@VDatatypeValidator@xercesc_3_1@@UStringHasher@2@@2@H_NAAVXSerializeEngine@2@@Z 1202897c f    CIL library: CIL module
 0001:00027986       $L187852                   12028986 f    CIL library: CIL module
 0001:00027986       $L187896                   12028986 f    CIL library: CIL module
 0001:00027986       $L183037                   12028986 f    CIL library: CIL module
 0001:00027986       $L187786                   12028986 f    CIL library: CIL module
 0001:00027986       $L160417                   12028986 f    CIL library: CIL module
 0001:00027986       $L187870                   12028986 f    CIL library: CIL module
 0001:00027986       $L187830                   12028986 f    CIL library: CIL module
 0001:00027986       $L187668                   12028986 f    CIL library: CIL module
 0001:0002798e       __ehhandler$?loadObject@XTemplateSerializer@xercesc_3_1@@SAXPAPAV?$RefHash2KeysTableOf@VSchemaAttDef@xercesc_3_1@@UStringHasher@2@@2@H_NAAVXSerializeEngine@2@@Z 1202898e f    CIL library: CIL module
 0001:0002798e       __ehhandler$?loadObject@XTemplateSerializer@xercesc_3_1@@SAXPAPAV?$RefHashTableOf@VXercesAttGroupInfo@xercesc_3_1@@UStringHasher@2@@2@H_NAAVXSerializeEngine@2@@Z 1202898e f    CIL library: CIL module
 0001:0002798e       __ehhandler$?loadObject@XTemplateSerializer@xercesc_3_1@@SAXPAPAV?$RefHashTableOf@VDTDAttDef@xercesc_3_1@@UStringHasher@2@@2@H_NAAVXSerializeEngine@2@@Z 1202898e f    CIL library: CIL module
 0001:0002798e       __ehhandler$?loadObject@XTemplateSerializer@xercesc_3_1@@SAXPAPAV?$RefHashTableOf@VXMLAttDef@xercesc_3_1@@UStringHasher@2@@2@H_NAAVXSerializeEngine@2@@Z 1202898e f    CIL library: CIL module
 0001:0002798e       __ehhandler$?processBackReference@RegxParser@xercesc_3_1@@MAEPAVToken@2@XZ 1202898e f    CIL library: CIL module
 0001:0002798e       __ehhandler$?loadObject@XTemplateSerializer@xercesc_3_1@@SAXPAPAV?$RefHashTableOf@VComplexTypeInfo@xercesc_3_1@@UStringHasher@2@@2@H_NAAVXSerializeEngine@2@@Z 1202898e f    CIL library: CIL module
 0001:0002798e       __ehhandler$?loadObject@XTemplateSerializer@xercesc_3_1@@SAXPAPAV?$RefHashTableOf@VKVStringPair@xercesc_3_1@@UStringHasher@2@@2@H_NAAVXSerializeEngine@2@@Z 1202898e f    CIL library: CIL module
 0001:0002798e       __ehhandler$?loadObject@XTemplateSerializer@xercesc_3_1@@SAXPAPAV?$RefHashTableOf@VXSAnnotation@xercesc_3_1@@UPtrHasher@2@@2@H_NAAVXSerializeEngine@2@@Z 1202898e f    CIL library: CIL module
 0001:00027998       $L187918                   12028998 f    CIL library: CIL module
 0001:00027998       $L187935                   12028998 f    CIL library: CIL module
 0001:00027998       $L183525                   12028998 f    CIL library: CIL module
 0001:00027998       $L187952                   12028998 f    CIL library: CIL module
 0001:00027998       $L183431                   12028998 f    CIL library: CIL module
 0001:00027998       $L183472                   12028998 f    CIL library: CIL module
 0001:00027998       $L188038                   12028998 f    CIL library: CIL module
 0001:00027998       $L188004                   12028998 f    CIL library: CIL module
 0001:00027998       $L187969                   12028998 f    CIL library: CIL module
 0001:00027998       $L187987                   12028998 f    CIL library: CIL module
 0001:00027998       $L183499                   12028998 f    CIL library: CIL module
 0001:000279a0       __ehhandler$?loadObject@XTemplateSerializer@xercesc_3_1@@SAXPAPAV?$RefVectorOf@VDatatypeValidator@xercesc_3_1@@@2@H_NAAVXSerializeEngine@2@@Z 120289a0 f    CIL library: CIL module
 0001:000279a0       __ehhandler$?loadObject@XTemplateSerializer@xercesc_3_1@@SAXPAPAV?$RefVectorOf@VXMLNumber@xercesc_3_1@@@2@H_NW4NumberType@XMLNumber@2@AAVXSerializeEngine@2@@Z 120289a0 f    CIL library: CIL module
 0001:000279a0       __ehhandler$?loadObject@XTemplateSerializer@xercesc_3_1@@SAXPAPAV?$RefVectorOf@VIC_Field@xercesc_3_1@@@2@H_NAAVXSerializeEngine@2@@Z 120289a0 f    CIL library: CIL module
 0001:000279a0       __ehhandler$?loadObject@XTemplateSerializer@xercesc_3_1@@SAXPAPAV?$RefVectorOf@VSchemaElementDecl@xercesc_3_1@@@2@H_NAAVXSerializeEngine@2@@Z 120289a0 f    CIL library: CIL module
 0001:000279a0       __ehhandler$?loadObject@XTemplateSerializer@xercesc_3_1@@SAXPAPAV?$RefVectorOf@VSchemaAttDef@xercesc_3_1@@@2@H_NAAVXSerializeEngine@2@@Z 120289a0 f    CIL library: CIL module
 0001:000279a0       __ehhandler$?loadObject@XTemplateSerializer@xercesc_3_1@@SAXPAPAV?$RefArrayVectorOf@G@2@H_NAAVXSerializeEngine@2@@Z 120289a0 f    CIL library: CIL module
 0001:000279a0       __ehhandler$?loadObject@XTemplateSerializer@xercesc_3_1@@SAXPAPAV?$ValueVectorOf@PAVSchemaElementDecl@xercesc_3_1@@@2@H_NAAVXSerializeEngine@2@@Z 120289a0 f    CIL library: CIL module
 0001:000279a0       __ehhandler$?loadObject@XTemplateSerializer@xercesc_3_1@@SAXPAPAV?$RefVectorOf@VXercesLocationPath@xercesc_3_1@@@2@H_NAAVXSerializeEngine@2@@Z 120289a0 f    CIL library: CIL module
 0001:000279a0       __ehhandler$?loadObject@XTemplateSerializer@xercesc_3_1@@SAXPAPAV?$ValueVectorOf@I@2@H_NAAVXSerializeEngine@2@@Z 120289a0 f    CIL library: CIL module
 0001:000279a0       __ehhandler$?loadObject@XTemplateSerializer@xercesc_3_1@@SAXPAPAV?$RefVectorOf@VIdentityConstraint@xercesc_3_1@@@2@H_NAAVXSerializeEngine@2@@Z 120289a0 f    CIL library: CIL module
 0001:000279a0       __ehhandler$?loadObject@XTemplateSerializer@xercesc_3_1@@SAXPAPAV?$RefVectorOf@VXercesStep@xercesc_3_1@@@2@H_NAAVXSerializeEngine@2@@Z 120289a0 f    CIL library: CIL module
 0001:000279aa       $L190036                   120289aa f    CIL library: CIL module
 0001:000279aa       $L190123                   120289aa f    CIL library: CIL module
 0001:000279aa       $L189952                   120289aa f    CIL library: CIL module
 0001:000279aa       $L190114                   120289aa f    CIL library: CIL module
 0001:000279aa       $L189961                   120289aa f    CIL library: CIL module
 0001:000279aa       $L189970                   120289aa f    CIL library: CIL module
 0001:000279aa       $L190093                   120289aa f    CIL library: CIL module
 0001:000279aa       $L190027                   120289aa f    CIL library: CIL module
 0001:000279aa       $L190105                   120289aa f    CIL library: CIL module
 0001:000279b2       __ehhandler$??0MonthDatatypeValidator@xercesc_3_1@@QAE@QAVDatatypeValidator@1@QAV?$RefHashTableOf@VKVStringPair@xercesc_3_1@@UStringHasher@2@@1@QAV?$RefArrayVectorOf@G@1@HQAVMemoryManager@1@@Z 120289b2 f    CIL library: CIL module
 0001:000279b2       __ehhandler$??0MonthDayDatatypeValidator@xercesc_3_1@@QAE@QAVDatatypeValidator@1@QAV?$RefHashTableOf@VKVStringPair@xercesc_3_1@@UStringHasher@2@@1@QAV?$RefArrayVectorOf@G@1@HQAVMemoryManager@1@@Z 120289b2 f    CIL library: CIL module
 0001:000279b2       __ehhandler$??0TimeDatatypeValidator@xercesc_3_1@@QAE@QAVDatatypeValidator@1@QAV?$RefHashTableOf@VKVStringPair@xercesc_3_1@@UStringHasher@2@@1@QAV?$RefArrayVectorOf@G@1@HQAVMemoryManager@1@@Z 120289b2 f    CIL library: CIL module
 0001:000279b2       __ehhandler$??0DurationDatatypeValidator@xercesc_3_1@@QAE@QAVDatatypeValidator@1@QAV?$RefHashTableOf@VKVStringPair@xercesc_3_1@@UStringHasher@2@@1@QAV?$RefArrayVectorOf@G@1@HQAVMemoryManager@1@@Z 120289b2 f    CIL library: CIL module
 0001:000279b2       __ehhandler$??0YearDatatypeValidator@xercesc_3_1@@QAE@QAVDatatypeValidator@1@QAV?$RefHashTableOf@VKVStringPair@xercesc_3_1@@UStringHasher@2@@1@QAV?$RefArrayVectorOf@G@1@HQAVMemoryManager@1@@Z 120289b2 f    CIL library: CIL module
 0001:000279b2       __ehhandler$??0DayDatatypeValidator@xercesc_3_1@@QAE@QAVDatatypeValidator@1@QAV?$RefHashTableOf@VKVStringPair@xercesc_3_1@@UStringHasher@2@@1@QAV?$RefArrayVectorOf@G@1@HQAVMemoryManager@1@@Z 120289b2 f    CIL library: CIL module
 0001:000279b2       __ehhandler$??0YearMonthDatatypeValidator@xercesc_3_1@@QAE@QAVDatatypeValidator@1@QAV?$RefHashTableOf@VKVStringPair@xercesc_3_1@@UStringHasher@2@@1@QAV?$RefArrayVectorOf@G@1@HQAVMemoryManager@1@@Z 120289b2 f    CIL library: CIL module
 0001:000279b2       __ehhandler$??0DateTimeDatatypeValidator@xercesc_3_1@@QAE@QAVDatatypeValidator@1@QAV?$RefHashTableOf@VKVStringPair@xercesc_3_1@@UStringHasher@2@@1@QAV?$RefArrayVectorOf@G@1@HQAVMemoryManager@1@@Z 120289b2 f    CIL library: CIL module
 0001:000279b2       __ehhandler$??0DateDatatypeValidator@xercesc_3_1@@QAE@QAVDatatypeValidator@1@QAV?$RefHashTableOf@VKVStringPair@xercesc_3_1@@UStringHasher@2@@1@QAV?$RefArrayVectorOf@G@1@HQAVMemoryManager@1@@Z 120289b2 f    CIL library: CIL module
 0001:000279bc       $L190075                   120289bc f    CIL library: CIL module
 0001:000279bc       $L190748                   120289bc f    CIL library: CIL module
 0001:000279bc       $L190000                   120289bc f    CIL library: CIL module
 0001:000279bc       $L190739                   120289bc f    CIL library: CIL module
 0001:000279bc       $L189979                   120289bc f    CIL library: CIL module
 0001:000279bc       $L190046                   120289bc f    CIL library: CIL module
 0001:000279bc       $L189991                   120289bc f    CIL library: CIL module
 0001:000279c4       __ehhandler$??0Base64BinaryDatatypeValidator@xercesc_3_1@@QAE@QAVDatatypeValidator@1@QAV?$RefHashTableOf@VKVStringPair@xercesc_3_1@@UStringHasher@2@@1@QAV?$RefArrayVectorOf@G@1@HQAVMemoryManager@1@@Z 120289c4 f    CIL library: CIL module
 0001:000279c4       __ehhandler$??0NOTATIONDatatypeValidator@xercesc_3_1@@QAE@QAVDatatypeValidator@1@QAV?$RefHashTableOf@VKVStringPair@xercesc_3_1@@UStringHasher@2@@1@QAV?$RefArrayVectorOf@G@1@HQAVMemoryManager@1@@Z 120289c4 f    CIL library: CIL module
 0001:000279c4       __ehhandler$??0StringDatatypeValidator@xercesc_3_1@@QAE@QAVDatatypeValidator@1@QAV?$RefHashTableOf@VKVStringPair@xercesc_3_1@@UStringHasher@2@@1@QAV?$RefArrayVectorOf@G@1@HQAVMemoryManager@1@@Z 120289c4 f    CIL library: CIL module
 0001:000279c4       __ehhandler$??0QNameDatatypeValidator@xercesc_3_1@@QAE@QAVDatatypeValidator@1@QAV?$RefHashTableOf@VKVStringPair@xercesc_3_1@@UStringHasher@2@@1@QAV?$RefArrayVectorOf@G@1@HQAVMemoryManager@1@@Z 120289c4 f    CIL library: CIL module
 0001:000279c4       __ehhandler$??0ListDatatypeValidator@xercesc_3_1@@QAE@QAVDatatypeValidator@1@QAV?$RefHashTableOf@VKVStringPair@xercesc_3_1@@UStringHasher@2@@1@QAV?$RefArrayVectorOf@G@1@HQAVMemoryManager@1@@Z 120289c4 f    CIL library: CIL module
 0001:000279c4       __ehhandler$??0HexBinaryDatatypeValidator@xercesc_3_1@@QAE@QAVDatatypeValidator@1@QAV?$RefHashTableOf@VKVStringPair@xercesc_3_1@@UStringHasher@2@@1@QAV?$RefArrayVectorOf@G@1@HQAVMemoryManager@1@@Z 120289c4 f    CIL library: CIL module
 0001:000279c4       __ehhandler$??0AnyURIDatatypeValidator@xercesc_3_1@@QAE@QAVDatatypeValidator@1@QAV?$RefHashTableOf@VKVStringPair@xercesc_3_1@@UStringHasher@2@@1@QAV?$RefArrayVectorOf@G@1@HQAVMemoryManager@1@@Z 120289c4 f    CIL library: CIL module
 0001:000279ce       $L190084                   120289ce f    CIL library: CIL module
 0001:000279ce       $L190009                   120289ce f    CIL library: CIL module
 0001:000279ce       $L190018                   120289ce f    CIL library: CIL module
 0001:000279ce       $L190057                   120289ce f    CIL library: CIL module
 0001:000279ce       $L190066                   120289ce f    CIL library: CIL module
 0001:000279d6       __ehhandler$??0IDREFDatatypeValidator@xercesc_3_1@@QAE@QAVDatatypeValidator@1@QAV?$RefHashTableOf@VKVStringPair@xercesc_3_1@@UStringHasher@2@@1@QAV?$RefArrayVectorOf@G@1@HQAVMemoryManager@1@@Z 120289d6 f    CIL library: CIL module
 0001:000279d6       __ehhandler$??0NameDatatypeValidator@xercesc_3_1@@QAE@QAVDatatypeValidator@1@QAV?$RefHashTableOf@VKVStringPair@xercesc_3_1@@UStringHasher@2@@1@QAV?$RefArrayVectorOf@G@1@HQAVMemoryManager@1@@Z 120289d6 f    CIL library: CIL module
 0001:000279d6       __ehhandler$??0ENTITYDatatypeValidator@xercesc_3_1@@QAE@QAVDatatypeValidator@1@QAV?$RefHashTableOf@VKVStringPair@xercesc_3_1@@UStringHasher@2@@1@QAV?$RefArrayVectorOf@G@1@HQAVMemoryManager@1@@Z 120289d6 f    CIL library: CIL module
 0001:000279d6       __ehhandler$??0NCNameDatatypeValidator@xercesc_3_1@@QAE@QAVDatatypeValidator@1@QAV?$RefHashTableOf@VKVStringPair@xercesc_3_1@@UStringHasher@2@@1@QAV?$RefArrayVectorOf@G@1@HQAVMemoryManager@1@@Z 120289d6 f    CIL library: CIL module
 0001:000279d6       __ehhandler$??0IDDatatypeValidator@xercesc_3_1@@QAE@QAVDatatypeValidator@1@QAV?$RefHashTableOf@VKVStringPair@xercesc_3_1@@UStringHasher@2@@1@QAV?$RefArrayVectorOf@G@1@HQAVMemoryManager@1@@Z 120289d6 f    CIL library: CIL module
 0001:000279e0       $L190680                   120289e0 f    CIL library: CIL module
 0001:000279e8       $L190681                   120289e8 f    CIL library: CIL module
 0001:000279f0       $L190682                   120289f0 f    CIL library: CIL module
 0001:000279f8       $L190683                   120289f8 f    CIL library: CIL module
 0001:00027a00       __ehhandler$?serialize@DatatypeValidator@xercesc_3_1@@UAEXAAVXSerializeEngine@2@@Z 12028a00 f    CIL library: CIL module
 0001:00027a0a       $L192601                   12028a0a f    CIL library: CIL module
 0001:00027a0a       $L192657                   12028a0a f    CIL library: CIL module
 0001:00027a0a       $L192645                   12028a0a f    CIL library: CIL module
 0001:00027a12       __ehhandler$??0DecimalDatatypeValidator@xercesc_3_1@@QAE@QAVDatatypeValidator@1@QAV?$RefHashTableOf@VKVStringPair@xercesc_3_1@@UStringHasher@2@@1@QAV?$RefArrayVectorOf@G@1@HQAVMemoryManager@1@@Z 12028a12 f    CIL library: CIL module
 0001:00027a12       __ehhandler$??0FloatDatatypeValidator@xercesc_3_1@@QAE@QAVDatatypeValidator@1@QAV?$RefHashTableOf@VKVStringPair@xercesc_3_1@@UStringHasher@2@@1@QAV?$RefArrayVectorOf@G@1@HQAVMemoryManager@1@@Z 12028a12 f    CIL library: CIL module
 0001:00027a12       __ehhandler$??0DoubleDatatypeValidator@xercesc_3_1@@QAE@QAVDatatypeValidator@1@QAV?$RefHashTableOf@VKVStringPair@xercesc_3_1@@UStringHasher@2@@1@QAV?$RefArrayVectorOf@G@1@HQAVMemoryManager@1@@Z 12028a12 f    CIL library: CIL module
 0001:00027a1c       _$E1                       12028a1c f   DOMTypeInfoImpl.obj
 0001:00027a32       _$E1                       12028a32 f   DOMTypeInfoImpl.obj
 0001:00027a4c       _$E4                       12028a4c f   DOMTypeInfoImpl.obj
 0001:00027a66       _$E7                       12028a66 f   DOMTypeInfoImpl.obj
 0001:00027a86       _$E10                      12028a86 f   DOMTypeInfoImpl.obj
 0001:00027aa6       _$E13                      12028aa6 f   DOMTypeInfoImpl.obj
 0001:00027ac6       _$E16                      12028ac6 f   DOMTypeInfoImpl.obj
 0001:00027ae6       _$E19                      12028ae6 f   DOMTypeInfoImpl.obj
 0001:00027b06       _$E22                      12028b06 f   DOMTypeInfoImpl.obj
 0001:00027b26       _$E25                      12028b26 f   DOMTypeInfoImpl.obj
 0001:00027b46       _$E28                      12028b46 f   DOMTypeInfoImpl.obj
 0001:00027b66       _$E31                      12028b66 f   DOMTypeInfoImpl.obj
 0001:00027b86       _$E34                      12028b86 f   DOMTypeInfoImpl.obj
 0001:00027ba6       _$E2                       12028ba6 f   DOMTypeInfoImpl.obj
 0001:00027bb0       _$E2                       12028bb0 f   DOMTypeInfoImpl.obj
 0001:00027bba       _$E5                       12028bba f   DOMTypeInfoImpl.obj
 0001:00027bc4       _$E8                       12028bc4 f   DOMTypeInfoImpl.obj
 0001:00027bce       _$E11                      12028bce f   DOMTypeInfoImpl.obj
 0001:00027bd8       _$E14                      12028bd8 f   DOMTypeInfoImpl.obj
 0001:00027be2       _$E17                      12028be2 f   DOMTypeInfoImpl.obj
 0001:00027bec       _$E20                      12028bec f   DOMTypeInfoImpl.obj
 0001:00027bf6       _$E23                      12028bf6 f   DOMTypeInfoImpl.obj
 0001:00027c00       _$E26                      12028c00 f   DOMTypeInfoImpl.obj
 0001:00027c0a       _$E29                      12028c0a f   DOMTypeInfoImpl.obj
 0001:00027c14       _$E32                      12028c14 f   DOMTypeInfoImpl.obj
 0001:00027c1e       _$E35                      12028c1e f   DOMTypeInfoImpl.obj
